
objs/1-test-pad-disp.elf:     file format elf32-littlearm


Disassembly of section .text:

00008000 <__code_start__>:
    8000:	e3a00013 	mov	r0, #19, 0
    8004:	e3800080 	orr	r0, r0, #128, 0	; 0x80
    8008:	e129f000 	msr	CPSR_fc, r0
    800c:	e3a01000 	mov	r1, #0, 0
    8010:	ee071f95 	mcr	15, 0, r1, cr7, cr5, {4}
    8014:	e3a0d302 	mov	sp, #134217728	; 0x8000000
    8018:	e3a0b000 	mov	fp, #0, 0
    801c:	eb0006f4 	bl	9bf4 <_cstart>
    8020:	eb000729 	bl	9ccc <rpi_reboot>

00008024 <PUT32>:
    8024:	e5801000 	str	r1, [r0]
    8028:	e12fff1e 	bx	lr

0000802c <GET32>:
    802c:	e5900000 	ldr	r0, [r0]
    8030:	e12fff1e 	bx	lr

00008034 <BRANCHTO>:
    8034:	e12fff10 	bx	r0

00008038 <abs16>:
    8038:	e3500000 	cmp	r0, #0, 0
    803c:	b2600000 	rsblt	r0, r0, #0, 0
    8040:	e6bf0070 	sxth	r0, r0
    8044:	e12fff1e 	bx	lr

00008048 <display_data>:
    8048:	e92d4070 	push	{r4, r5, r6, lr}
    804c:	e1a02001 	mov	r2, r1
    8050:	e2814001 	add	r4, r1, #1, 0
    8054:	e59f1040 	ldr	r1, [pc, #64]	; 809c <display_data+0x54>
    8058:	e1540001 	cmp	r4, r1
    805c:	8a00000b 	bhi	8090 <display_data+0x48>
    8060:	e1a03000 	mov	r3, r0
    8064:	e59f5034 	ldr	r5, [pc, #52]	; 80a0 <display_data+0x58>
    8068:	e1a00005 	mov	r0, r5
    806c:	e3a01040 	mov	r1, #64, 0	; 0x40
    8070:	e4c01001 	strb	r1, [r0], #1
    8074:	e1a01003 	mov	r1, r3
    8078:	eb000576 	bl	9658 <memcpy>
    807c:	e1a02004 	mov	r2, r4
    8080:	e1a01005 	mov	r1, r5
    8084:	e3a0003c 	mov	r0, #60, 0	; 0x3c
    8088:	eb0003fc 	bl	9080 <i2c_write>
    808c:	e8bd8070 	pop	{r4, r5, r6, pc}
    8090:	e59f000c 	ldr	r0, [pc, #12]	; 80a4 <display_data+0x5c>
    8094:	eb0005c2 	bl	97a4 <printk>
    8098:	e8bd8070 	pop	{r4, r5, r6, pc}
    809c:	00000401 	.word	0x00000401
    80a0:	0000a668 	.word	0x0000a668
    80a4:	00009fa0 	.word	0x00009fa0

000080a8 <display_command>:
    80a8:	e52de004 	push	{lr}		; (str lr, [sp, #-4]!)
    80ac:	e24dd00c 	sub	sp, sp, #12, 0
    80b0:	e3a03000 	mov	r3, #0, 0
    80b4:	e5cd3004 	strb	r3, [sp, #4]
    80b8:	e5cd0005 	strb	r0, [sp, #5]
    80bc:	e3a02002 	mov	r2, #2, 0
    80c0:	e28d1004 	add	r1, sp, #4, 0
    80c4:	e3a0003c 	mov	r0, #60, 0	; 0x3c
    80c8:	eb0003ec 	bl	9080 <i2c_write>
    80cc:	e28dd00c 	add	sp, sp, #12, 0
    80d0:	e49df004 	pop	{pc}		; (ldr pc, [sp], #4)

000080d4 <display_clear>:
    80d4:	e92d4010 	push	{r4, lr}
    80d8:	e3a02b01 	mov	r2, #1024	; 0x400
    80dc:	e3a01000 	mov	r1, #0, 0
    80e0:	e59f0004 	ldr	r0, [pc, #4]	; 80ec <display_clear+0x18>
    80e4:	eb000586 	bl	9704 <memset>
    80e8:	e8bd8010 	pop	{r4, pc}
    80ec:	0000aa6c 	.word	0x0000aa6c

000080f0 <display_update>:
    80f0:	e92d4010 	push	{r4, lr}
    80f4:	e3a00021 	mov	r0, #33, 0	; 0x21
    80f8:	ebffffea 	bl	80a8 <display_command>
    80fc:	e3a00000 	mov	r0, #0, 0
    8100:	ebffffe8 	bl	80a8 <display_command>
    8104:	e3a0007f 	mov	r0, #127, 0	; 0x7f
    8108:	ebffffe6 	bl	80a8 <display_command>
    810c:	e3a00022 	mov	r0, #34, 0	; 0x22
    8110:	ebffffe4 	bl	80a8 <display_command>
    8114:	e3a00000 	mov	r0, #0, 0
    8118:	ebffffe2 	bl	80a8 <display_command>
    811c:	e3a00007 	mov	r0, #7, 0
    8120:	ebffffe0 	bl	80a8 <display_command>
    8124:	e3a01b01 	mov	r1, #1024	; 0x400
    8128:	e59f0004 	ldr	r0, [pc, #4]	; 8134 <display_update+0x44>
    812c:	ebffffc5 	bl	8048 <display_data>
    8130:	e8bd8010 	pop	{r4, pc}
    8134:	0000aa6c 	.word	0x0000aa6c

00008138 <display_init>:
    8138:	e92d4010 	push	{r4, lr}
    813c:	eb00049e 	bl	93bc <i2c_init>
    8140:	e59f00ec 	ldr	r0, [pc, #236]	; 8234 <display_init+0xfc>
    8144:	eb000596 	bl	97a4 <printk>
    8148:	e3a00064 	mov	r0, #100, 0	; 0x64
    814c:	eb000701 	bl	9d58 <delay_ms>
    8150:	e3a000ae 	mov	r0, #174, 0	; 0xae
    8154:	ebffffd3 	bl	80a8 <display_command>
    8158:	e3a000d5 	mov	r0, #213, 0	; 0xd5
    815c:	ebffffd1 	bl	80a8 <display_command>
    8160:	e3a00080 	mov	r0, #128, 0	; 0x80
    8164:	ebffffcf 	bl	80a8 <display_command>
    8168:	e3a000a8 	mov	r0, #168, 0	; 0xa8
    816c:	ebffffcd 	bl	80a8 <display_command>
    8170:	e3a0003f 	mov	r0, #63, 0	; 0x3f
    8174:	ebffffcb 	bl	80a8 <display_command>
    8178:	e3a000d3 	mov	r0, #211, 0	; 0xd3
    817c:	ebffffc9 	bl	80a8 <display_command>
    8180:	e3a00000 	mov	r0, #0, 0
    8184:	ebffffc7 	bl	80a8 <display_command>
    8188:	e3a00040 	mov	r0, #64, 0	; 0x40
    818c:	ebffffc5 	bl	80a8 <display_command>
    8190:	e3a0008d 	mov	r0, #141, 0	; 0x8d
    8194:	ebffffc3 	bl	80a8 <display_command>
    8198:	e3a00014 	mov	r0, #20, 0
    819c:	ebffffc1 	bl	80a8 <display_command>
    81a0:	e3a00020 	mov	r0, #32, 0
    81a4:	ebffffbf 	bl	80a8 <display_command>
    81a8:	e3a00000 	mov	r0, #0, 0
    81ac:	ebffffbd 	bl	80a8 <display_command>
    81b0:	e3a000a1 	mov	r0, #161, 0	; 0xa1
    81b4:	ebffffbb 	bl	80a8 <display_command>
    81b8:	e3a000c8 	mov	r0, #200, 0	; 0xc8
    81bc:	ebffffb9 	bl	80a8 <display_command>
    81c0:	e3a000da 	mov	r0, #218, 0	; 0xda
    81c4:	ebffffb7 	bl	80a8 <display_command>
    81c8:	e3a00012 	mov	r0, #18, 0
    81cc:	ebffffb5 	bl	80a8 <display_command>
    81d0:	e3a00081 	mov	r0, #129, 0	; 0x81
    81d4:	ebffffb3 	bl	80a8 <display_command>
    81d8:	e3a000cf 	mov	r0, #207, 0	; 0xcf
    81dc:	ebffffb1 	bl	80a8 <display_command>
    81e0:	e3a000d9 	mov	r0, #217, 0	; 0xd9
    81e4:	ebffffaf 	bl	80a8 <display_command>
    81e8:	e3a000f1 	mov	r0, #241, 0	; 0xf1
    81ec:	ebffffad 	bl	80a8 <display_command>
    81f0:	e3a000db 	mov	r0, #219, 0	; 0xdb
    81f4:	ebffffab 	bl	80a8 <display_command>
    81f8:	e3a00040 	mov	r0, #64, 0	; 0x40
    81fc:	ebffffa9 	bl	80a8 <display_command>
    8200:	e3a000a4 	mov	r0, #164, 0	; 0xa4
    8204:	ebffffa7 	bl	80a8 <display_command>
    8208:	e3a000a6 	mov	r0, #166, 0	; 0xa6
    820c:	ebffffa5 	bl	80a8 <display_command>
    8210:	e3a0002e 	mov	r0, #46, 0	; 0x2e
    8214:	ebffffa3 	bl	80a8 <display_command>
    8218:	e3a000af 	mov	r0, #175, 0	; 0xaf
    821c:	ebffffa1 	bl	80a8 <display_command>
    8220:	ebffffab 	bl	80d4 <display_clear>
    8224:	ebffffb1 	bl	80f0 <display_update>
    8228:	e59f0008 	ldr	r0, [pc, #8]	; 8238 <display_init+0x100>
    822c:	eb00055c 	bl	97a4 <printk>
    8230:	e8bd8010 	pop	{r4, pc}
    8234:	00009fc4 	.word	0x00009fc4
    8238:	00009fec 	.word	0x00009fec

0000823c <display_set_pixel>:
    823c:	e6ff0070 	uxth	r0, r0
    8240:	e1a03fa1 	lsr	r3, r1, #31
    8244:	e350007f 	cmp	r0, #127, 0	; 0x7f
    8248:	83833001 	orrhi	r3, r3, #1, 0
    824c:	e3530000 	cmp	r3, #0, 0
    8250:	112fff1e 	bxne	lr
    8254:	e351003f 	cmp	r1, #63, 0	; 0x3f
    8258:	c12fff1e 	bxgt	lr
    825c:	e2813007 	add	r3, r1, #7, 0
    8260:	e3510000 	cmp	r1, #0, 0
    8264:	a1a03001 	movge	r3, r1
    8268:	e1a031c3 	asr	r3, r3, #3
    826c:	e1a03383 	lsl	r3, r3, #7
    8270:	e6ff3073 	uxth	r3, r3
    8274:	e0800003 	add	r0, r0, r3
    8278:	e6ff0070 	uxth	r0, r0
    827c:	e2713000 	rsbs	r3, r1, #0, 0
    8280:	e2011007 	and	r1, r1, #7, 0
    8284:	e2033007 	and	r3, r3, #7, 0
    8288:	52631000 	rsbpl	r1, r3, #0, 0
    828c:	e6ef1071 	uxtb	r1, r1
    8290:	e3520001 	cmp	r2, #1, 0
    8294:	0a000008 	beq	82bc <display_set_pixel+0x80>
    8298:	e3520000 	cmp	r2, #0, 0
    829c:	1a00000c 	bne	82d4 <display_set_pixel+0x98>
    82a0:	e59f3050 	ldr	r3, [pc, #80]	; 82f8 <display_set_pixel+0xbc>
    82a4:	e0830000 	add	r0, r3, r0
    82a8:	e5d03404 	ldrb	r3, [r0, #1028]	; 0x404
    82ac:	e3a02001 	mov	r2, #1, 0
    82b0:	e1c31112 	bic	r1, r3, r2, lsl r1
    82b4:	e5c01404 	strb	r1, [r0, #1028]	; 0x404
    82b8:	e12fff1e 	bx	lr
    82bc:	e59f3034 	ldr	r3, [pc, #52]	; 82f8 <display_set_pixel+0xbc>
    82c0:	e0830000 	add	r0, r3, r0
    82c4:	e5d03404 	ldrb	r3, [r0, #1028]	; 0x404
    82c8:	e1831112 	orr	r1, r3, r2, lsl r1
    82cc:	e5c01404 	strb	r1, [r0, #1028]	; 0x404
    82d0:	e12fff1e 	bx	lr
    82d4:	e3520002 	cmp	r2, #2, 0
    82d8:	112fff1e 	bxne	lr
    82dc:	e59f3014 	ldr	r3, [pc, #20]	; 82f8 <display_set_pixel+0xbc>
    82e0:	e0830000 	add	r0, r3, r0
    82e4:	e5d03404 	ldrb	r3, [r0, #1028]	; 0x404
    82e8:	e3a02001 	mov	r2, #1, 0
    82ec:	e0231112 	eor	r1, r3, r2, lsl r1
    82f0:	e5c01404 	strb	r1, [r0, #1028]	; 0x404
    82f4:	e12fff1e 	bx	lr
    82f8:	0000a668 	.word	0x0000a668

000082fc <display_draw_line>:
    82fc:	e92d4ff0 	push	{r4, r5, r6, r7, r8, r9, sl, fp, lr}
    8300:	e24dd00c 	sub	sp, sp, #12, 0
    8304:	e1a04000 	mov	r4, r0
    8308:	e58d0000 	str	r0, [sp]
    830c:	e1a07001 	mov	r7, r1
    8310:	e1a06002 	mov	r6, r2
    8314:	e1a05003 	mov	r5, r3
    8318:	e5ddb030 	ldrb	fp, [sp, #48]	; 0x30
    831c:	e0430001 	sub	r0, r3, r1
    8320:	e6bf0070 	sxth	r0, r0
    8324:	ebffff43 	bl	8038 <abs16>
    8328:	e1a08000 	mov	r8, r0
    832c:	e0460004 	sub	r0, r6, r4
    8330:	e6bf0070 	sxth	r0, r0
    8334:	ebffff3f 	bl	8038 <abs16>
    8338:	e1a09000 	mov	r9, r0
    833c:	e1580000 	cmp	r8, r0
    8340:	ca000005 	bgt	835c <display_draw_line+0x60>
    8344:	e1a03005 	mov	r3, r5
    8348:	e1a05006 	mov	r5, r6
    834c:	e1a06003 	mov	r6, r3
    8350:	e1a03007 	mov	r3, r7
    8354:	e1a07004 	mov	r7, r4
    8358:	e58d3000 	str	r3, [sp]
    835c:	e1570005 	cmp	r7, r5
    8360:	ca000005 	bgt	837c <display_draw_line+0x80>
    8364:	e1a03006 	mov	r3, r6
    8368:	e59d6000 	ldr	r6, [sp]
    836c:	e58d3000 	str	r3, [sp]
    8370:	e1a03005 	mov	r3, r5
    8374:	e1a05007 	mov	r5, r7
    8378:	e1a07003 	mov	r7, r3
    837c:	e0474005 	sub	r4, r7, r5
    8380:	e6ff3074 	uxth	r3, r4
    8384:	e58d3004 	str	r3, [sp, #4]
    8388:	e6bf4074 	sxth	r4, r4
    838c:	e59d3000 	ldr	r3, [sp]
    8390:	e0430006 	sub	r0, r3, r6
    8394:	e6bf0070 	sxth	r0, r0
    8398:	ebffff26 	bl	8038 <abs16>
    839c:	e1a0a000 	mov	sl, r0
    83a0:	e0844fa4 	add	r4, r4, r4, lsr #31
    83a4:	e1a040c4 	asr	r4, r4, #1
    83a8:	e59d3000 	ldr	r3, [sp]
    83ac:	e1560003 	cmp	r6, r3
    83b0:	ba00001d 	blt	842c <display_draw_line+0x130>
    83b4:	e3e03000 	mvn	r3, #0, 0
    83b8:	e58d3000 	str	r3, [sp]
    83bc:	ea00000a 	b	83ec <display_draw_line+0xf0>
    83c0:	e1a0200b 	mov	r2, fp
    83c4:	e1a01006 	mov	r1, r6
    83c8:	e1a00005 	mov	r0, r5
    83cc:	ebffff9a 	bl	823c <display_set_pixel>
    83d0:	e044400a 	sub	r4, r4, sl
    83d4:	e6ff3074 	uxth	r3, r4
    83d8:	e6bf4074 	sxth	r4, r4
    83dc:	e3540000 	cmp	r4, #0, 0
    83e0:	ba00000a 	blt	8410 <display_draw_line+0x114>
    83e4:	e2855001 	add	r5, r5, #1, 0
    83e8:	e6bf5075 	sxth	r5, r5
    83ec:	e1550007 	cmp	r5, r7
    83f0:	ca000010 	bgt	8438 <display_draw_line+0x13c>
    83f4:	e1580009 	cmp	r8, r9
    83f8:	dafffff0 	ble	83c0 <display_draw_line+0xc4>
    83fc:	e1a0200b 	mov	r2, fp
    8400:	e1a01005 	mov	r1, r5
    8404:	e1a00006 	mov	r0, r6
    8408:	ebffff8b 	bl	823c <display_set_pixel>
    840c:	eaffffef 	b	83d0 <display_draw_line+0xd4>
    8410:	e59d2000 	ldr	r2, [sp]
    8414:	e0866002 	add	r6, r6, r2
    8418:	e6bf6076 	sxth	r6, r6
    841c:	e59d2004 	ldr	r2, [sp, #4]
    8420:	e0824003 	add	r4, r2, r3
    8424:	e6bf4074 	sxth	r4, r4
    8428:	eaffffed 	b	83e4 <display_draw_line+0xe8>
    842c:	e3a03001 	mov	r3, #1, 0
    8430:	e58d3000 	str	r3, [sp]
    8434:	eaffffec 	b	83ec <display_draw_line+0xf0>
    8438:	e28dd00c 	add	sp, sp, #12, 0
    843c:	e8bd8ff0 	pop	{r4, r5, r6, r7, r8, r9, sl, fp, pc}

00008440 <display_draw_rect>:
    8440:	e92d41f0 	push	{r4, r5, r6, r7, r8, lr}
    8444:	e24dd008 	sub	sp, sp, #8, 0
    8448:	e1a07000 	mov	r7, r0
    844c:	e1a06001 	mov	r6, r1
    8450:	e1a04003 	mov	r4, r3
    8454:	e5dd8020 	ldrb	r8, [sp, #32]
    8458:	e0805002 	add	r5, r0, r2
    845c:	e6ff5075 	uxth	r5, r5
    8460:	e2455001 	sub	r5, r5, #1, 0
    8464:	e6bf5075 	sxth	r5, r5
    8468:	e58d8000 	str	r8, [sp]
    846c:	e1a03001 	mov	r3, r1
    8470:	e1a02005 	mov	r2, r5
    8474:	ebffffa0 	bl	82fc <display_draw_line>
    8478:	e0864004 	add	r4, r6, r4
    847c:	e6ff4074 	uxth	r4, r4
    8480:	e2444001 	sub	r4, r4, #1, 0
    8484:	e6bf4074 	sxth	r4, r4
    8488:	e58d8000 	str	r8, [sp]
    848c:	e1a03004 	mov	r3, r4
    8490:	e1a02005 	mov	r2, r5
    8494:	e1a01004 	mov	r1, r4
    8498:	e1a00007 	mov	r0, r7
    849c:	ebffff96 	bl	82fc <display_draw_line>
    84a0:	e58d8000 	str	r8, [sp]
    84a4:	e1a03004 	mov	r3, r4
    84a8:	e1a02007 	mov	r2, r7
    84ac:	e1a01006 	mov	r1, r6
    84b0:	e1a00007 	mov	r0, r7
    84b4:	ebffff90 	bl	82fc <display_draw_line>
    84b8:	e58d8000 	str	r8, [sp]
    84bc:	e1a03004 	mov	r3, r4
    84c0:	e1a02005 	mov	r2, r5
    84c4:	e1a01006 	mov	r1, r6
    84c8:	e1a00005 	mov	r0, r5
    84cc:	ebffff8a 	bl	82fc <display_draw_line>
    84d0:	e28dd008 	add	sp, sp, #8, 0
    84d4:	e8bd81f0 	pop	{r4, r5, r6, r7, r8, pc}

000084d8 <display_fill_rect>:
    84d8:	e92d47f0 	push	{r4, r5, r6, r7, r8, r9, sl, lr}
    84dc:	e1a09000 	mov	r9, r0
    84e0:	e1a06001 	mov	r6, r1
    84e4:	e1a0a002 	mov	sl, r2
    84e8:	e1a07003 	mov	r7, r3
    84ec:	e5dd8020 	ldrb	r8, [sp, #32]
    84f0:	e1a05000 	mov	r5, r0
    84f4:	ea00000a 	b	8524 <display_fill_rect+0x4c>
    84f8:	e1a02008 	mov	r2, r8
    84fc:	e1a01004 	mov	r1, r4
    8500:	e1a00005 	mov	r0, r5
    8504:	ebffff4c 	bl	823c <display_set_pixel>
    8508:	e2844001 	add	r4, r4, #1, 0
    850c:	e6bf4074 	sxth	r4, r4
    8510:	e0863007 	add	r3, r6, r7
    8514:	e1540003 	cmp	r4, r3
    8518:	bafffff6 	blt	84f8 <display_fill_rect+0x20>
    851c:	e2855001 	add	r5, r5, #1, 0
    8520:	e6bf5075 	sxth	r5, r5
    8524:	e089300a 	add	r3, r9, sl
    8528:	e1550003 	cmp	r5, r3
    852c:	a8bd87f0 	popge	{r4, r5, r6, r7, r8, r9, sl, pc}
    8530:	e1a04006 	mov	r4, r6
    8534:	eafffff5 	b	8510 <display_fill_rect+0x38>

00008538 <display_draw_circle>:
    8538:	e92d4ff0 	push	{r4, r5, r6, r7, r8, r9, sl, fp, lr}
    853c:	e24dd01c 	sub	sp, sp, #28, 0
    8540:	e1a0a000 	mov	sl, r0
    8544:	e1a05001 	mov	r5, r1
    8548:	e58d2004 	str	r2, [sp, #4]
    854c:	e1a06003 	mov	r6, r3
    8550:	e6ff4072 	uxth	r4, r2
    8554:	e2643001 	rsb	r3, r4, #1, 0
    8558:	e6bf9073 	sxth	r9, r3
    855c:	e0643784 	rsb	r3, r4, r4, lsl #15
    8560:	e1a03083 	lsl	r3, r3, #1
    8564:	e6bf3073 	sxth	r3, r3
    8568:	e58d3014 	str	r3, [sp, #20]
    856c:	e6ffb071 	uxth	fp, r1
    8570:	e084100b 	add	r1, r4, fp
    8574:	e1a02006 	mov	r2, r6
    8578:	e6bf1071 	sxth	r1, r1
    857c:	ebffff2e 	bl	823c <display_set_pixel>
    8580:	e04b1004 	sub	r1, fp, r4
    8584:	e1a02006 	mov	r2, r6
    8588:	e6bf1071 	sxth	r1, r1
    858c:	e1a0000a 	mov	r0, sl
    8590:	ebffff29 	bl	823c <display_set_pixel>
    8594:	e6ffa07a 	uxth	sl, sl
    8598:	e084000a 	add	r0, r4, sl
    859c:	e1a02006 	mov	r2, r6
    85a0:	e1a01005 	mov	r1, r5
    85a4:	e6bf0070 	sxth	r0, r0
    85a8:	ebffff23 	bl	823c <display_set_pixel>
    85ac:	e04a0004 	sub	r0, sl, r4
    85b0:	e1a02006 	mov	r2, r6
    85b4:	e1a01005 	mov	r1, r5
    85b8:	e6bf0070 	sxth	r0, r0
    85bc:	ebffff1e 	bl	823c <display_set_pixel>
    85c0:	e3a03000 	mov	r3, #0, 0
    85c4:	e58d3008 	str	r3, [sp, #8]
    85c8:	e3a03001 	mov	r3, #1, 0
    85cc:	e58d300c 	str	r3, [sp, #12]
    85d0:	ea00003c 	b	86c8 <display_draw_circle+0x190>
    85d4:	e59d3008 	ldr	r3, [sp, #8]
    85d8:	e2833001 	add	r3, r3, #1, 0
    85dc:	e6ff5073 	uxth	r5, r3
    85e0:	e6bf3073 	sxth	r3, r3
    85e4:	e58d3008 	str	r3, [sp, #8]
    85e8:	e59d300c 	ldr	r3, [sp, #12]
    85ec:	e2833002 	add	r3, r3, #2, 0
    85f0:	e6bf2073 	sxth	r2, r3
    85f4:	e58d200c 	str	r2, [sp, #12]
    85f8:	e6f99073 	uxtah	r9, r9, r3
    85fc:	e6bf9079 	sxth	r9, r9
    8600:	e08a3005 	add	r3, sl, r5
    8604:	e6bf3073 	sxth	r3, r3
    8608:	e1dd40b4 	ldrh	r4, [sp, #4]
    860c:	e08b8004 	add	r8, fp, r4
    8610:	e6bf8078 	sxth	r8, r8
    8614:	e1a02006 	mov	r2, r6
    8618:	e1a01008 	mov	r1, r8
    861c:	e58d3010 	str	r3, [sp, #16]
    8620:	e1a00003 	mov	r0, r3
    8624:	ebffff04 	bl	823c <display_set_pixel>
    8628:	e04a7005 	sub	r7, sl, r5
    862c:	e6bf7077 	sxth	r7, r7
    8630:	e1a02006 	mov	r2, r6
    8634:	e1a01008 	mov	r1, r8
    8638:	e1a00007 	mov	r0, r7
    863c:	ebfffefe 	bl	823c <display_set_pixel>
    8640:	e04b8004 	sub	r8, fp, r4
    8644:	e6bf8078 	sxth	r8, r8
    8648:	e1a02006 	mov	r2, r6
    864c:	e1a01008 	mov	r1, r8
    8650:	e59d0010 	ldr	r0, [sp, #16]
    8654:	ebfffef8 	bl	823c <display_set_pixel>
    8658:	e1a02006 	mov	r2, r6
    865c:	e1a01008 	mov	r1, r8
    8660:	e1a00007 	mov	r0, r7
    8664:	ebfffef4 	bl	823c <display_set_pixel>
    8668:	e08a7004 	add	r7, sl, r4
    866c:	e6bf7077 	sxth	r7, r7
    8670:	e08b8005 	add	r8, fp, r5
    8674:	e6bf8078 	sxth	r8, r8
    8678:	e1a02006 	mov	r2, r6
    867c:	e1a01008 	mov	r1, r8
    8680:	e1a00007 	mov	r0, r7
    8684:	ebfffeec 	bl	823c <display_set_pixel>
    8688:	e04a4004 	sub	r4, sl, r4
    868c:	e6bf4074 	sxth	r4, r4
    8690:	e1a02006 	mov	r2, r6
    8694:	e1a01008 	mov	r1, r8
    8698:	e1a00004 	mov	r0, r4
    869c:	ebfffee6 	bl	823c <display_set_pixel>
    86a0:	e04b5005 	sub	r5, fp, r5
    86a4:	e6bf5075 	sxth	r5, r5
    86a8:	e1a02006 	mov	r2, r6
    86ac:	e1a01005 	mov	r1, r5
    86b0:	e1a00007 	mov	r0, r7
    86b4:	ebfffee0 	bl	823c <display_set_pixel>
    86b8:	e1a02006 	mov	r2, r6
    86bc:	e1a01005 	mov	r1, r5
    86c0:	e1a00004 	mov	r0, r4
    86c4:	ebfffedc 	bl	823c <display_set_pixel>
    86c8:	e59d3008 	ldr	r3, [sp, #8]
    86cc:	e59d2004 	ldr	r2, [sp, #4]
    86d0:	e1530002 	cmp	r3, r2
    86d4:	aa00000c 	bge	870c <display_draw_circle+0x1d4>
    86d8:	e3590000 	cmp	r9, #0, 0
    86dc:	baffffbc 	blt	85d4 <display_draw_circle+0x9c>
    86e0:	e59d3004 	ldr	r3, [sp, #4]
    86e4:	e2433001 	sub	r3, r3, #1, 0
    86e8:	e6bf3073 	sxth	r3, r3
    86ec:	e58d3004 	str	r3, [sp, #4]
    86f0:	e59d3014 	ldr	r3, [sp, #20]
    86f4:	e2833002 	add	r3, r3, #2, 0
    86f8:	e6bf2073 	sxth	r2, r3
    86fc:	e58d2014 	str	r2, [sp, #20]
    8700:	e6f99073 	uxtah	r9, r9, r3
    8704:	e6bf9079 	sxth	r9, r9
    8708:	eaffffb1 	b	85d4 <display_draw_circle+0x9c>
    870c:	e28dd01c 	add	sp, sp, #28, 0
    8710:	e8bd8ff0 	pop	{r4, r5, r6, r7, r8, r9, sl, fp, pc}

00008714 <display_fill_circle>:
    8714:	e92d4ff0 	push	{r4, r5, r6, r7, r8, r9, sl, fp, lr}
    8718:	e24dd024 	sub	sp, sp, #36, 0	; 0x24
    871c:	e58d001c 	str	r0, [sp, #28]
    8720:	e58d200c 	str	r2, [sp, #12]
    8724:	e1a0b003 	mov	fp, r3
    8728:	e6ffa071 	uxth	sl, r1
    872c:	e6ff5072 	uxth	r5, r2
    8730:	e04a1005 	sub	r1, sl, r5
    8734:	e08a3005 	add	r3, sl, r5
    8738:	e58db000 	str	fp, [sp]
    873c:	e6bf3073 	sxth	r3, r3
    8740:	e1a02000 	mov	r2, r0
    8744:	e6bf1071 	sxth	r1, r1
    8748:	ebfffeeb 	bl	82fc <display_draw_line>
    874c:	e2654001 	rsb	r4, r5, #1, 0
    8750:	e6bf4074 	sxth	r4, r4
    8754:	e0655785 	rsb	r5, r5, r5, lsl #15
    8758:	e1a05085 	lsl	r5, r5, #1
    875c:	e6bf3075 	sxth	r3, r5
    8760:	e58d3018 	str	r3, [sp, #24]
    8764:	e3a03000 	mov	r3, #0, 0
    8768:	e58d3010 	str	r3, [sp, #16]
    876c:	e3a03001 	mov	r3, #1, 0
    8770:	e58d3014 	str	r3, [sp, #20]
    8774:	ea000030 	b	883c <display_fill_circle+0x128>
    8778:	e59d3010 	ldr	r3, [sp, #16]
    877c:	e2833001 	add	r3, r3, #1, 0
    8780:	e6ff6073 	uxth	r6, r3
    8784:	e6bf3073 	sxth	r3, r3
    8788:	e58d3010 	str	r3, [sp, #16]
    878c:	e59d3014 	ldr	r3, [sp, #20]
    8790:	e2833002 	add	r3, r3, #2, 0
    8794:	e6bf2073 	sxth	r2, r3
    8798:	e58d2014 	str	r2, [sp, #20]
    879c:	e6f44073 	uxtah	r4, r4, r3
    87a0:	e6bf4074 	sxth	r4, r4
    87a4:	e1dd51bc 	ldrh	r5, [sp, #28]
    87a8:	e0860005 	add	r0, r6, r5
    87ac:	e6bf0070 	sxth	r0, r0
    87b0:	e1dd70bc 	ldrh	r7, [sp, #12]
    87b4:	e04a8007 	sub	r8, sl, r7
    87b8:	e6bf8078 	sxth	r8, r8
    87bc:	e08a9007 	add	r9, sl, r7
    87c0:	e6bf9079 	sxth	r9, r9
    87c4:	e58db000 	str	fp, [sp]
    87c8:	e1a03009 	mov	r3, r9
    87cc:	e1a02000 	mov	r2, r0
    87d0:	e1a01008 	mov	r1, r8
    87d4:	ebfffec8 	bl	82fc <display_draw_line>
    87d8:	e0450006 	sub	r0, r5, r6
    87dc:	e6bf0070 	sxth	r0, r0
    87e0:	e58db000 	str	fp, [sp]
    87e4:	e1a03009 	mov	r3, r9
    87e8:	e1a02000 	mov	r2, r0
    87ec:	e1a01008 	mov	r1, r8
    87f0:	ebfffec1 	bl	82fc <display_draw_line>
    87f4:	e0850007 	add	r0, r5, r7
    87f8:	e6bf0070 	sxth	r0, r0
    87fc:	e04a8006 	sub	r8, sl, r6
    8800:	e6bf8078 	sxth	r8, r8
    8804:	e08a6006 	add	r6, sl, r6
    8808:	e6bf6076 	sxth	r6, r6
    880c:	e58db000 	str	fp, [sp]
    8810:	e1a03006 	mov	r3, r6
    8814:	e1a02000 	mov	r2, r0
    8818:	e1a01008 	mov	r1, r8
    881c:	ebfffeb6 	bl	82fc <display_draw_line>
    8820:	e0455007 	sub	r5, r5, r7
    8824:	e6bf0075 	sxth	r0, r5
    8828:	e58db000 	str	fp, [sp]
    882c:	e1a03006 	mov	r3, r6
    8830:	e1a02000 	mov	r2, r0
    8834:	e1a01008 	mov	r1, r8
    8838:	ebfffeaf 	bl	82fc <display_draw_line>
    883c:	e59d3010 	ldr	r3, [sp, #16]
    8840:	e59d200c 	ldr	r2, [sp, #12]
    8844:	e1530002 	cmp	r3, r2
    8848:	aa00000c 	bge	8880 <display_fill_circle+0x16c>
    884c:	e3540000 	cmp	r4, #0, 0
    8850:	baffffc8 	blt	8778 <display_fill_circle+0x64>
    8854:	e59d300c 	ldr	r3, [sp, #12]
    8858:	e2433001 	sub	r3, r3, #1, 0
    885c:	e6bf3073 	sxth	r3, r3
    8860:	e58d300c 	str	r3, [sp, #12]
    8864:	e59d3018 	ldr	r3, [sp, #24]
    8868:	e2833002 	add	r3, r3, #2, 0
    886c:	e6bf2073 	sxth	r2, r3
    8870:	e58d2018 	str	r2, [sp, #24]
    8874:	e6f44073 	uxtah	r4, r4, r3
    8878:	e6bf4074 	sxth	r4, r4
    887c:	eaffffbd 	b	8778 <display_fill_circle+0x64>
    8880:	e28dd024 	add	sp, sp, #36, 0	; 0x24
    8884:	e8bd8ff0 	pop	{r4, r5, r6, r7, r8, r9, sl, fp, pc}

00008888 <display_draw_char>:
    8888:	e92d4ff0 	push	{r4, r5, r6, r7, r8, r9, sl, fp, lr}
    888c:	e24dd014 	sub	sp, sp, #20, 0
    8890:	e1a09000 	mov	r9, r0
    8894:	e1a0a001 	mov	sl, r1
    8898:	e58d200c 	str	r2, [sp, #12]
    889c:	e1a08003 	mov	r8, r3
    88a0:	e5ddb038 	ldrb	fp, [sp, #56]	; 0x38
    88a4:	e5dd603c 	ldrb	r6, [sp, #60]	; 0x3c
    88a8:	e2423020 	sub	r3, r2, #32, 0
    88ac:	e6ef3073 	uxtb	r3, r3
    88b0:	e353005e 	cmp	r3, #94, 0	; 0x5e
    88b4:	83a0303f 	movhi	r3, #63, 0	; 0x3f
    88b8:	858d300c 	strhi	r3, [sp, #12]
    88bc:	e3a07000 	mov	r7, #0, 0
    88c0:	ea00002d 	b	897c <display_draw_char+0xf4>
    88c4:	e0209697 	mla	r0, r7, r6, r9
    88c8:	e021a694 	mla	r1, r4, r6, sl
    88cc:	e6bf2076 	sxth	r2, r6
    88d0:	e58d8000 	str	r8, [sp]
    88d4:	e1a03002 	mov	r3, r2
    88d8:	e6bf1071 	sxth	r1, r1
    88dc:	e6bf0070 	sxth	r0, r0
    88e0:	ebfffefc 	bl	84d8 <display_fill_rect>
    88e4:	e1a050a5 	lsr	r5, r5, #1
    88e8:	e2844001 	add	r4, r4, #1, 0
    88ec:	e6af4074 	sxtb	r4, r4
    88f0:	e3540007 	cmp	r4, #7, 0
    88f4:	ca00001e 	bgt	8974 <display_draw_char+0xec>
    88f8:	e3150001 	tst	r5, #1, 0
    88fc:	0a000008 	beq	8924 <display_draw_char+0x9c>
    8900:	e3560001 	cmp	r6, #1, 0
    8904:	1affffee 	bne	88c4 <display_draw_char+0x3c>
    8908:	e0870009 	add	r0, r7, r9
    890c:	e084100a 	add	r1, r4, sl
    8910:	e1a02008 	mov	r2, r8
    8914:	e6bf1071 	sxth	r1, r1
    8918:	e6bf0070 	sxth	r0, r0
    891c:	ebfffe46 	bl	823c <display_set_pixel>
    8920:	eaffffef 	b	88e4 <display_draw_char+0x5c>
    8924:	e15b0008 	cmp	fp, r8
    8928:	0affffed 	beq	88e4 <display_draw_char+0x5c>
    892c:	e3560001 	cmp	r6, #1, 0
    8930:	0a000008 	beq	8958 <display_draw_char+0xd0>
    8934:	e0209697 	mla	r0, r7, r6, r9
    8938:	e021a694 	mla	r1, r4, r6, sl
    893c:	e6bf2076 	sxth	r2, r6
    8940:	e58db000 	str	fp, [sp]
    8944:	e1a03002 	mov	r3, r2
    8948:	e6bf1071 	sxth	r1, r1
    894c:	e6bf0070 	sxth	r0, r0
    8950:	ebfffee0 	bl	84d8 <display_fill_rect>
    8954:	eaffffe2 	b	88e4 <display_draw_char+0x5c>
    8958:	e0870009 	add	r0, r7, r9
    895c:	e084100a 	add	r1, r4, sl
    8960:	e1a0200b 	mov	r2, fp
    8964:	e6bf1071 	sxth	r1, r1
    8968:	e6bf0070 	sxth	r0, r0
    896c:	ebfffe32 	bl	823c <display_set_pixel>
    8970:	eaffffdb 	b	88e4 <display_draw_char+0x5c>
    8974:	e2877001 	add	r7, r7, #1, 0
    8978:	e6af7077 	sxtb	r7, r7
    897c:	e3570004 	cmp	r7, #4, 0
    8980:	ca000007 	bgt	89a4 <display_draw_char+0x11c>
    8984:	e59d300c 	ldr	r3, [sp, #12]
    8988:	e2433020 	sub	r3, r3, #32, 0
    898c:	e0833103 	add	r3, r3, r3, lsl #2
    8990:	e0873003 	add	r3, r7, r3
    8994:	e59f2010 	ldr	r2, [pc, #16]	; 89ac <display_draw_char+0x124>
    8998:	e7d25003 	ldrb	r5, [r2, r3]
    899c:	e3a04000 	mov	r4, #0, 0
    89a0:	eaffffd2 	b	88f0 <display_draw_char+0x68>
    89a4:	e28dd014 	add	sp, sp, #20, 0
    89a8:	e8bd8ff0 	pop	{r4, r5, r6, r7, r8, r9, sl, fp, pc}
    89ac:	0000a0bc 	.word	0x0000a0bc

000089b0 <display_write>:
    89b0:	e92d47f0 	push	{r4, r5, r6, r7, r8, r9, sl, lr}
    89b4:	e24dd008 	sub	sp, sp, #8, 0
    89b8:	e1a08000 	mov	r8, r0
    89bc:	e1a06001 	mov	r6, r1
    89c0:	e1a04002 	mov	r4, r2
    89c4:	e1a09003 	mov	r9, r3
    89c8:	e5dda028 	ldrb	sl, [sp, #40]	; 0x28
    89cc:	e5dd502c 	ldrb	r5, [sp, #44]	; 0x2c
    89d0:	e1a07000 	mov	r7, r0
    89d4:	ea000003 	b	89e8 <display_write+0x38>
    89d8:	e0866185 	add	r6, r6, r5, lsl #3
    89dc:	e6bf6076 	sxth	r6, r6
    89e0:	e1a07008 	mov	r7, r8
    89e4:	e2844001 	add	r4, r4, #1, 0
    89e8:	e5d42000 	ldrb	r2, [r4]
    89ec:	e3520000 	cmp	r2, #0, 0
    89f0:	0a000015 	beq	8a4c <display_write+0x9c>
    89f4:	e352000a 	cmp	r2, #10, 0
    89f8:	0afffff6 	beq	89d8 <display_write+0x28>
    89fc:	e352000d 	cmp	r2, #13, 0
    8a00:	0afffff7 	beq	89e4 <display_write+0x34>
    8a04:	e58d5004 	str	r5, [sp, #4]
    8a08:	e58da000 	str	sl, [sp]
    8a0c:	e1a03009 	mov	r3, r9
    8a10:	e1a01006 	mov	r1, r6
    8a14:	e1a00007 	mov	r0, r7
    8a18:	ebffff9a 	bl	8888 <display_draw_char>
    8a1c:	e6ff1075 	uxth	r1, r5
    8a20:	e0853085 	add	r3, r5, r5, lsl #1
    8a24:	e0877083 	add	r7, r7, r3, lsl #1
    8a28:	e6bf7077 	sxth	r7, r7
    8a2c:	e0453105 	sub	r3, r5, r5, lsl #2
    8a30:	e1a03083 	lsl	r3, r3, #1
    8a34:	e2833080 	add	r3, r3, #128, 0	; 0x80
    8a38:	e1570003 	cmp	r7, r3
    8a3c:	c0866181 	addgt	r6, r6, r1, lsl #3
    8a40:	c6bf6076 	sxthgt	r6, r6
    8a44:	c1a07008 	movgt	r7, r8
    8a48:	eaffffe5 	b	89e4 <display_write+0x34>
    8a4c:	e28dd008 	add	sp, sp, #8, 0
    8a50:	e8bd87f0 	pop	{r4, r5, r6, r7, r8, r9, sl, pc}

00008a54 <display_invert>:
    8a54:	e92d4010 	push	{r4, lr}
    8a58:	e3500000 	cmp	r0, #0, 0
    8a5c:	0a000002 	beq	8a6c <display_invert+0x18>
    8a60:	e3a000a7 	mov	r0, #167, 0	; 0xa7
    8a64:	ebfffd8f 	bl	80a8 <display_command>
    8a68:	e8bd8010 	pop	{r4, pc}
    8a6c:	e3a000a6 	mov	r0, #166, 0	; 0xa6
    8a70:	ebfffd8c 	bl	80a8 <display_command>
    8a74:	e8bd8010 	pop	{r4, pc}

00008a78 <notmain>:
    8a78:	e92d4030 	push	{r4, r5, lr}
    8a7c:	e24dd014 	sub	sp, sp, #20, 0
    8a80:	e59f0110 	ldr	r0, [pc, #272]	; 8b98 <notmain+0x120>
    8a84:	eb000346 	bl	97a4 <printk>
    8a88:	e3a0103c 	mov	r1, #60, 0	; 0x3c
    8a8c:	e59f0108 	ldr	r0, [pc, #264]	; 8b9c <notmain+0x124>
    8a90:	eb000343 	bl	97a4 <printk>
    8a94:	ebfffda7 	bl	8138 <display_init>
    8a98:	e59f0100 	ldr	r0, [pc, #256]	; 8ba0 <notmain+0x128>
    8a9c:	eb000340 	bl	97a4 <printk>
    8aa0:	ebfffd8b 	bl	80d4 <display_clear>
    8aa4:	ebfffd91 	bl	80f0 <display_update>
    8aa8:	e59f00f4 	ldr	r0, [pc, #244]	; 8ba4 <notmain+0x12c>
    8aac:	eb00033c 	bl	97a4 <printk>
    8ab0:	e59f00f0 	ldr	r0, [pc, #240]	; 8ba8 <notmain+0x130>
    8ab4:	eb00033a 	bl	97a4 <printk>
    8ab8:	e3a00006 	mov	r0, #6, 0
    8abc:	eb0002c3 	bl	95d0 <gpio_set_input>
    8ac0:	e3a00007 	mov	r0, #7, 0
    8ac4:	eb0002c1 	bl	95d0 <gpio_set_input>
    8ac8:	e3a00008 	mov	r0, #8, 0
    8acc:	eb0002bf 	bl	95d0 <gpio_set_input>
    8ad0:	e3a00009 	mov	r0, #9, 0
    8ad4:	eb0002bd 	bl	95d0 <gpio_set_input>
    8ad8:	e3a0000a 	mov	r0, #10, 0
    8adc:	eb0002bb 	bl	95d0 <gpio_set_input>
    8ae0:	ea00001a 	b	8b50 <notmain+0xd8>
    8ae4:	e3a04074 	mov	r4, #116, 0	; 0x74
    8ae8:	ea00001d 	b	8b64 <notmain+0xec>
    8aec:	e3a00006 	mov	r0, #6, 0
    8af0:	eb000282 	bl	9500 <gpio_read>
    8af4:	e3500000 	cmp	r0, #0, 0
    8af8:	03a04073 	moveq	r4, #115, 0	; 0x73
    8afc:	e5cd400c 	strb	r4, [sp, #12]
    8b00:	e3a05000 	mov	r5, #0, 0
    8b04:	e5cd500d 	strb	r5, [sp, #13]
    8b08:	ebfffd71 	bl	80d4 <display_clear>
    8b0c:	e3a04001 	mov	r4, #1, 0
    8b10:	e58d4004 	str	r4, [sp, #4]
    8b14:	e58d5000 	str	r5, [sp]
    8b18:	e1a03004 	mov	r3, r4
    8b1c:	e59f2088 	ldr	r2, [pc, #136]	; 8bac <notmain+0x134>
    8b20:	e3a01014 	mov	r1, #20, 0
    8b24:	e3a0000a 	mov	r0, #10, 0
    8b28:	ebffffa0 	bl	89b0 <display_write>
    8b2c:	e3a03002 	mov	r3, #2, 0
    8b30:	e58d3004 	str	r3, [sp, #4]
    8b34:	e58d5000 	str	r5, [sp]
    8b38:	e1a03004 	mov	r3, r4
    8b3c:	e28d200c 	add	r2, sp, #12, 0
    8b40:	e3a0102d 	mov	r1, #45, 0	; 0x2d
    8b44:	e3a0000a 	mov	r0, #10, 0
    8b48:	ebffff98 	bl	89b0 <display_write>
    8b4c:	ebfffd67 	bl	80f0 <display_update>
    8b50:	e3a00009 	mov	r0, #9, 0
    8b54:	eb000269 	bl	9500 <gpio_read>
    8b58:	e3500000 	cmp	r0, #0, 0
    8b5c:	0affffe0 	beq	8ae4 <notmain+0x6c>
    8b60:	e3a0406e 	mov	r4, #110, 0	; 0x6e
    8b64:	e3a00008 	mov	r0, #8, 0
    8b68:	eb000264 	bl	9500 <gpio_read>
    8b6c:	e3500000 	cmp	r0, #0, 0
    8b70:	03a04062 	moveq	r4, #98, 0	; 0x62
    8b74:	e3a00007 	mov	r0, #7, 0
    8b78:	eb000260 	bl	9500 <gpio_read>
    8b7c:	e3500000 	cmp	r0, #0, 0
    8b80:	03a04072 	moveq	r4, #114, 0	; 0x72
    8b84:	e3a0000a 	mov	r0, #10, 0
    8b88:	eb00025c 	bl	9500 <gpio_read>
    8b8c:	e3500000 	cmp	r0, #0, 0
    8b90:	03a0406c 	moveq	r4, #108, 0	; 0x6c
    8b94:	eaffffd4 	b	8aec <notmain+0x74>
    8b98:	0000a010 	.word	0x0000a010
    8b9c:	0000a03c 	.word	0x0000a03c
    8ba0:	0000a068 	.word	0x0000a068
    8ba4:	0000a080 	.word	0x0000a080
    8ba8:	0000a094 	.word	0x0000a094
    8bac:	0000a0ac 	.word	0x0000a0ac

00008bb0 <clear_c>:
    8bb0:	e3c00b1e 	bic	r0, r0, #30720	; 0x7800
    8bb4:	e3c0004e 	bic	r0, r0, #78, 0	; 0x4e
    8bb8:	e6ff0070 	uxth	r0, r0
    8bbc:	e12fff1e 	bx	lr

00008bc0 <clear_s>:
    8bc0:	e1a00b00 	lsl	r0, r0, #22
    8bc4:	e1a00b20 	lsr	r0, r0, #22
    8bc8:	e12fff1e 	bx	lr

00008bcc <xfer_end>:
    8bcc:	e52de004 	push	{lr}		; (str lr, [sp, #-4]!)
    8bd0:	e24dd00c 	sub	sp, sp, #12, 0
    8bd4:	e59f30c4 	ldr	r3, [pc, #196]	; 8ca0 <xfer_end+0xd4>
    8bd8:	e5933004 	ldr	r3, [r3, #4]
    8bdc:	e3130002 	tst	r3, #2, 0
    8be0:	1a000013 	bne	8c34 <xfer_end+0x68>
    8be4:	e59f30b4 	ldr	r3, [pc, #180]	; 8ca0 <xfer_end+0xd4>
    8be8:	e5933004 	ldr	r3, [r3, #4]
    8bec:	e3130c01 	tst	r3, #256	; 0x100
    8bf0:	1a000009 	bne	8c1c <xfer_end+0x50>
    8bf4:	e59f30a4 	ldr	r3, [pc, #164]	; 8ca0 <xfer_end+0xd4>
    8bf8:	e5933004 	ldr	r3, [r3, #4]
    8bfc:	e3130c02 	tst	r3, #512	; 0x200
    8c00:	0afffff3 	beq	8bd4 <xfer_end+0x8>
    8c04:	e3a03f46 	mov	r3, #280	; 0x118
    8c08:	e59f2094 	ldr	r2, [pc, #148]	; 8ca4 <xfer_end+0xd8>
    8c0c:	e59f1094 	ldr	r1, [pc, #148]	; 8ca8 <xfer_end+0xdc>
    8c10:	e59f0094 	ldr	r0, [pc, #148]	; 8cac <xfer_end+0xe0>
    8c14:	eb0002e2 	bl	97a4 <printk>
    8c18:	eb0003ea 	bl	9bc8 <clean_reboot>
    8c1c:	e3a03f46 	mov	r3, #280	; 0x118
    8c20:	e59f207c 	ldr	r2, [pc, #124]	; 8ca4 <xfer_end+0xd8>
    8c24:	e59f107c 	ldr	r1, [pc, #124]	; 8ca8 <xfer_end+0xdc>
    8c28:	e59f0080 	ldr	r0, [pc, #128]	; 8cb0 <xfer_end+0xe4>
    8c2c:	eb0002dc 	bl	97a4 <printk>
    8c30:	eb0003e4 	bl	9bc8 <clean_reboot>
    8c34:	e59f3064 	ldr	r3, [pc, #100]	; 8ca0 <xfer_end+0xd4>
    8c38:	e5933004 	ldr	r3, [r3, #4]
    8c3c:	e3130001 	tst	r3, #1, 0
    8c40:	1a000006 	bne	8c60 <xfer_end+0x94>
    8c44:	e59f3054 	ldr	r3, [pc, #84]	; 8ca0 <xfer_end+0xd4>
    8c48:	e5933004 	ldr	r3, [r3, #4]
    8c4c:	e3130c01 	tst	r3, #256	; 0x100
    8c50:	1a00000a 	bne	8c80 <xfer_end+0xb4>
    8c54:	eb000416 	bl	9cb4 <dev_barrier>
    8c58:	e28dd00c 	add	sp, sp, #12, 0
    8c5c:	e49df004 	pop	{pc}		; (ldr pc, [sp], #4)
    8c60:	e59f304c 	ldr	r3, [pc, #76]	; 8cb4 <xfer_end+0xe8>
    8c64:	e58d3000 	str	r3, [sp]
    8c68:	e59f3048 	ldr	r3, [pc, #72]	; 8cb8 <xfer_end+0xec>
    8c6c:	e59f2030 	ldr	r2, [pc, #48]	; 8ca4 <xfer_end+0xd8>
    8c70:	e59f1030 	ldr	r1, [pc, #48]	; 8ca8 <xfer_end+0xdc>
    8c74:	e59f0040 	ldr	r0, [pc, #64]	; 8cbc <xfer_end+0xf0>
    8c78:	eb0002c9 	bl	97a4 <printk>
    8c7c:	eb0003d1 	bl	9bc8 <clean_reboot>
    8c80:	e59f3038 	ldr	r3, [pc, #56]	; 8cc0 <xfer_end+0xf4>
    8c84:	e58d3000 	str	r3, [sp]
    8c88:	e59f3034 	ldr	r3, [pc, #52]	; 8cc4 <xfer_end+0xf8>
    8c8c:	e59f2010 	ldr	r2, [pc, #16]	; 8ca4 <xfer_end+0xd8>
    8c90:	e59f1010 	ldr	r1, [pc, #16]	; 8ca8 <xfer_end+0xdc>
    8c94:	e59f0020 	ldr	r0, [pc, #32]	; 8cbc <xfer_end+0xf0>
    8c98:	eb0002c1 	bl	97a4 <printk>
    8c9c:	eb0003c9 	bl	9bc8 <clean_reboot>
    8ca0:	20804000 	.word	0x20804000
    8ca4:	0000a42c 	.word	0x0000a42c
    8ca8:	0000a29c 	.word	0x0000a29c
    8cac:	0000a2c8 	.word	0x0000a2c8
    8cb0:	0000a2a4 	.word	0x0000a2a4
    8cb4:	0000a328 	.word	0x0000a328
    8cb8:	0000011b 	.word	0x0000011b
    8cbc:	0000a2f8 	.word	0x0000a2f8
    8cc0:	0000a33c 	.word	0x0000a33c
    8cc4:	0000011d 	.word	0x0000011d

00008cc8 <read_s>:
    8cc8:	e92d4010 	push	{r4, lr}
    8ccc:	ebfffcd6 	bl	802c <GET32>
    8cd0:	ebffffba 	bl	8bc0 <clear_s>
    8cd4:	e8bd8010 	pop	{r4, pc}

00008cd8 <reset_status>:
    8cd8:	e92d4010 	push	{r4, lr}
    8cdc:	e59f4018 	ldr	r4, [pc, #24]	; 8cfc <reset_status+0x24>
    8ce0:	e1a00004 	mov	r0, r4
    8ce4:	ebfffff7 	bl	8cc8 <read_s>
    8ce8:	e3801c03 	orr	r1, r0, #768	; 0x300
    8cec:	e3811002 	orr	r1, r1, #2, 0
    8cf0:	e1a00004 	mov	r0, r4
    8cf4:	ebfffcca 	bl	8024 <PUT32>
    8cf8:	e8bd8010 	pop	{r4, pc}
    8cfc:	20804004 	.word	0x20804004

00008d00 <read_c>:
    8d00:	e92d4010 	push	{r4, lr}
    8d04:	ebfffcc8 	bl	802c <GET32>
    8d08:	ebffffa8 	bl	8bb0 <clear_c>
    8d0c:	e8bd8010 	pop	{r4, pc}

00008d10 <xfer_start>:
    8d10:	e92d4070 	push	{r4, r5, r6, lr}
    8d14:	e24dd008 	sub	sp, sp, #8, 0
    8d18:	e1a06000 	mov	r6, r0
    8d1c:	e1a05001 	mov	r5, r1
    8d20:	e1a04002 	mov	r4, r2
    8d24:	eb0003e2 	bl	9cb4 <dev_barrier>
    8d28:	e59f3180 	ldr	r3, [pc, #384]	; 8eb0 <xfer_start+0x1a0>
    8d2c:	e5933004 	ldr	r3, [r3, #4]
    8d30:	e3130001 	tst	r3, #1, 0
    8d34:	0a000013 	beq	8d88 <xfer_start+0x78>
    8d38:	e59f3170 	ldr	r3, [pc, #368]	; 8eb0 <xfer_start+0x1a0>
    8d3c:	e5933004 	ldr	r3, [r3, #4]
    8d40:	e3130c01 	tst	r3, #256	; 0x100
    8d44:	1a000009 	bne	8d70 <xfer_start+0x60>
    8d48:	e59f3160 	ldr	r3, [pc, #352]	; 8eb0 <xfer_start+0x1a0>
    8d4c:	e5933004 	ldr	r3, [r3, #4]
    8d50:	e3130c02 	tst	r3, #512	; 0x200
    8d54:	0afffff3 	beq	8d28 <xfer_start+0x18>
    8d58:	e3a030f7 	mov	r3, #247, 0	; 0xf7
    8d5c:	e59f2150 	ldr	r2, [pc, #336]	; 8eb4 <xfer_start+0x1a4>
    8d60:	e59f1150 	ldr	r1, [pc, #336]	; 8eb8 <xfer_start+0x1a8>
    8d64:	e59f0150 	ldr	r0, [pc, #336]	; 8ebc <xfer_start+0x1ac>
    8d68:	eb00028d 	bl	97a4 <printk>
    8d6c:	eb000395 	bl	9bc8 <clean_reboot>
    8d70:	e3a030f7 	mov	r3, #247, 0	; 0xf7
    8d74:	e59f2138 	ldr	r2, [pc, #312]	; 8eb4 <xfer_start+0x1a4>
    8d78:	e59f1138 	ldr	r1, [pc, #312]	; 8eb8 <xfer_start+0x1a8>
    8d7c:	e59f013c 	ldr	r0, [pc, #316]	; 8ec0 <xfer_start+0x1b0>
    8d80:	eb000287 	bl	97a4 <printk>
    8d84:	eb00038f 	bl	9bc8 <clean_reboot>
    8d88:	e59f3120 	ldr	r3, [pc, #288]	; 8eb0 <xfer_start+0x1a0>
    8d8c:	e5933004 	ldr	r3, [r3, #4]
    8d90:	e3130040 	tst	r3, #64, 0	; 0x40
    8d94:	0a000025 	beq	8e30 <xfer_start+0x120>
    8d98:	ebffffce 	bl	8cd8 <reset_status>
    8d9c:	e1b033a6 	lsrs	r3, r6, #7
    8da0:	1a00002a 	bne	8e50 <xfer_start+0x140>
    8da4:	e1a01006 	mov	r1, r6
    8da8:	e59f0114 	ldr	r0, [pc, #276]	; 8ec4 <xfer_start+0x1b4>
    8dac:	ebfffc9c 	bl	8024 <PUT32>
    8db0:	e1b03825 	lsrs	r3, r5, #16
    8db4:	1a00002d 	bne	8e70 <xfer_start+0x160>
    8db8:	e1a01005 	mov	r1, r5
    8dbc:	e59f0104 	ldr	r0, [pc, #260]	; 8ec8 <xfer_start+0x1b8>
    8dc0:	ebfffc97 	bl	8024 <PUT32>
    8dc4:	e59f50e4 	ldr	r5, [pc, #228]	; 8eb0 <xfer_start+0x1a0>
    8dc8:	e1a00005 	mov	r0, r5
    8dcc:	ebffffcb 	bl	8d00 <read_c>
    8dd0:	e38030b0 	orr	r3, r0, #176, 0	; 0xb0
    8dd4:	e2041001 	and	r1, r4, #1, 0
    8dd8:	e3c33001 	bic	r3, r3, #1, 0
    8ddc:	e1811003 	orr	r1, r1, r3
    8de0:	e1a00005 	mov	r0, r5
    8de4:	ebfffc8e 	bl	8024 <PUT32>
    8de8:	e59f30c0 	ldr	r3, [pc, #192]	; 8eb0 <xfer_start+0x1a0>
    8dec:	e5933004 	ldr	r3, [r3, #4]
    8df0:	e3130001 	tst	r3, #1, 0
    8df4:	1a00002b 	bne	8ea8 <xfer_start+0x198>
    8df8:	e59f30b0 	ldr	r3, [pc, #176]	; 8eb0 <xfer_start+0x1a0>
    8dfc:	e5933004 	ldr	r3, [r3, #4]
    8e00:	e3130c01 	tst	r3, #256	; 0x100
    8e04:	1a000021 	bne	8e90 <xfer_start+0x180>
    8e08:	e59f30a0 	ldr	r3, [pc, #160]	; 8eb0 <xfer_start+0x1a0>
    8e0c:	e5933004 	ldr	r3, [r3, #4]
    8e10:	e3130c02 	tst	r3, #512	; 0x200
    8e14:	0afffff3 	beq	8de8 <xfer_start+0xd8>
    8e18:	e59f30ac 	ldr	r3, [pc, #172]	; 8ecc <xfer_start+0x1bc>
    8e1c:	e59f2090 	ldr	r2, [pc, #144]	; 8eb4 <xfer_start+0x1a4>
    8e20:	e59f1090 	ldr	r1, [pc, #144]	; 8eb8 <xfer_start+0x1a8>
    8e24:	e59f0090 	ldr	r0, [pc, #144]	; 8ebc <xfer_start+0x1ac>
    8e28:	eb00025d 	bl	97a4 <printk>
    8e2c:	eb000365 	bl	9bc8 <clean_reboot>
    8e30:	e59f3098 	ldr	r3, [pc, #152]	; 8ed0 <xfer_start+0x1c0>
    8e34:	e58d3000 	str	r3, [sp]
    8e38:	e3a030fa 	mov	r3, #250, 0	; 0xfa
    8e3c:	e59f2070 	ldr	r2, [pc, #112]	; 8eb4 <xfer_start+0x1a4>
    8e40:	e59f1070 	ldr	r1, [pc, #112]	; 8eb8 <xfer_start+0x1a8>
    8e44:	e59f0088 	ldr	r0, [pc, #136]	; 8ed4 <xfer_start+0x1c4>
    8e48:	eb000255 	bl	97a4 <printk>
    8e4c:	eb00035d 	bl	9bc8 <clean_reboot>
    8e50:	e59f3080 	ldr	r3, [pc, #128]	; 8ed8 <xfer_start+0x1c8>
    8e54:	e58d3000 	str	r3, [sp]
    8e58:	e3a030ff 	mov	r3, #255, 0	; 0xff
    8e5c:	e59f2050 	ldr	r2, [pc, #80]	; 8eb4 <xfer_start+0x1a4>
    8e60:	e59f1050 	ldr	r1, [pc, #80]	; 8eb8 <xfer_start+0x1a8>
    8e64:	e59f0068 	ldr	r0, [pc, #104]	; 8ed4 <xfer_start+0x1c4>
    8e68:	eb00024d 	bl	97a4 <printk>
    8e6c:	eb000355 	bl	9bc8 <clean_reboot>
    8e70:	e59f3064 	ldr	r3, [pc, #100]	; 8edc <xfer_start+0x1cc>
    8e74:	e58d3000 	str	r3, [sp]
    8e78:	e59f3060 	ldr	r3, [pc, #96]	; 8ee0 <xfer_start+0x1d0>
    8e7c:	e59f2030 	ldr	r2, [pc, #48]	; 8eb4 <xfer_start+0x1a4>
    8e80:	e59f1030 	ldr	r1, [pc, #48]	; 8eb8 <xfer_start+0x1a8>
    8e84:	e59f0048 	ldr	r0, [pc, #72]	; 8ed4 <xfer_start+0x1c4>
    8e88:	eb000245 	bl	97a4 <printk>
    8e8c:	eb00034d 	bl	9bc8 <clean_reboot>
    8e90:	e59f3034 	ldr	r3, [pc, #52]	; 8ecc <xfer_start+0x1bc>
    8e94:	e59f2018 	ldr	r2, [pc, #24]	; 8eb4 <xfer_start+0x1a4>
    8e98:	e59f1018 	ldr	r1, [pc, #24]	; 8eb8 <xfer_start+0x1a8>
    8e9c:	e59f001c 	ldr	r0, [pc, #28]	; 8ec0 <xfer_start+0x1b0>
    8ea0:	eb00023f 	bl	97a4 <printk>
    8ea4:	eb000347 	bl	9bc8 <clean_reboot>
    8ea8:	e28dd008 	add	sp, sp, #8, 0
    8eac:	e8bd8070 	pop	{r4, r5, r6, pc}
    8eb0:	20804000 	.word	0x20804000
    8eb4:	0000a438 	.word	0x0000a438
    8eb8:	0000a29c 	.word	0x0000a29c
    8ebc:	0000a2c8 	.word	0x0000a2c8
    8ec0:	0000a2a4 	.word	0x0000a2a4
    8ec4:	2080400c 	.word	0x2080400c
    8ec8:	20804008 	.word	0x20804008
    8ecc:	00000112 	.word	0x00000112
    8ed0:	0000a350 	.word	0x0000a350
    8ed4:	0000a2f8 	.word	0x0000a2f8
    8ed8:	0000a368 	.word	0x0000a368
    8edc:	0000a37c 	.word	0x0000a37c
    8ee0:	00000103 	.word	0x00000103

00008ee4 <xfer_start_hack>:
    8ee4:	e92d4070 	push	{r4, r5, r6, lr}
    8ee8:	e24dd008 	sub	sp, sp, #8, 0
    8eec:	e1a06000 	mov	r6, r0
    8ef0:	e1a05001 	mov	r5, r1
    8ef4:	e1a04002 	mov	r4, r2
    8ef8:	eb00036d 	bl	9cb4 <dev_barrier>
    8efc:	e59f3150 	ldr	r3, [pc, #336]	; 9054 <xfer_start_hack+0x170>
    8f00:	e5933004 	ldr	r3, [r3, #4]
    8f04:	e3130001 	tst	r3, #1, 0
    8f08:	0a000013 	beq	8f5c <xfer_start_hack+0x78>
    8f0c:	e59f3140 	ldr	r3, [pc, #320]	; 9054 <xfer_start_hack+0x170>
    8f10:	e5933004 	ldr	r3, [r3, #4]
    8f14:	e3130c01 	tst	r3, #256	; 0x100
    8f18:	1a000009 	bne	8f44 <xfer_start_hack+0x60>
    8f1c:	e59f3130 	ldr	r3, [pc, #304]	; 9054 <xfer_start_hack+0x170>
    8f20:	e5933004 	ldr	r3, [r3, #4]
    8f24:	e3130c02 	tst	r3, #512	; 0x200
    8f28:	0afffff3 	beq	8efc <xfer_start_hack+0x18>
    8f2c:	e3a03f52 	mov	r3, #328	; 0x148
    8f30:	e59f2120 	ldr	r2, [pc, #288]	; 9058 <xfer_start_hack+0x174>
    8f34:	e59f1120 	ldr	r1, [pc, #288]	; 905c <xfer_start_hack+0x178>
    8f38:	e59f0120 	ldr	r0, [pc, #288]	; 9060 <xfer_start_hack+0x17c>
    8f3c:	eb000218 	bl	97a4 <printk>
    8f40:	eb000320 	bl	9bc8 <clean_reboot>
    8f44:	e3a03f52 	mov	r3, #328	; 0x148
    8f48:	e59f2108 	ldr	r2, [pc, #264]	; 9058 <xfer_start_hack+0x174>
    8f4c:	e59f1108 	ldr	r1, [pc, #264]	; 905c <xfer_start_hack+0x178>
    8f50:	e59f010c 	ldr	r0, [pc, #268]	; 9064 <xfer_start_hack+0x180>
    8f54:	eb000212 	bl	97a4 <printk>
    8f58:	eb00031a 	bl	9bc8 <clean_reboot>
    8f5c:	ebffff5d 	bl	8cd8 <reset_status>
    8f60:	e1b033a6 	lsrs	r3, r6, #7
    8f64:	1a000022 	bne	8ff4 <xfer_start_hack+0x110>
    8f68:	e1a01006 	mov	r1, r6
    8f6c:	e59f00f4 	ldr	r0, [pc, #244]	; 9068 <xfer_start_hack+0x184>
    8f70:	ebfffc2b 	bl	8024 <PUT32>
    8f74:	e1b03825 	lsrs	r3, r5, #16
    8f78:	1a000025 	bne	9014 <xfer_start_hack+0x130>
    8f7c:	e1a01005 	mov	r1, r5
    8f80:	e59f00e4 	ldr	r0, [pc, #228]	; 906c <xfer_start_hack+0x188>
    8f84:	ebfffc26 	bl	8024 <PUT32>
    8f88:	e59f50c4 	ldr	r5, [pc, #196]	; 9054 <xfer_start_hack+0x170>
    8f8c:	e1a00005 	mov	r0, r5
    8f90:	ebffff5a 	bl	8d00 <read_c>
    8f94:	e38030b0 	orr	r3, r0, #176, 0	; 0xb0
    8f98:	e2041001 	and	r1, r4, #1, 0
    8f9c:	e3c33001 	bic	r3, r3, #1, 0
    8fa0:	e1811003 	orr	r1, r1, r3
    8fa4:	e1a00005 	mov	r0, r5
    8fa8:	ebfffc1d 	bl	8024 <PUT32>
    8fac:	e59f30a0 	ldr	r3, [pc, #160]	; 9054 <xfer_start_hack+0x170>
    8fb0:	e5933004 	ldr	r3, [r3, #4]
    8fb4:	e3130001 	tst	r3, #1, 0
    8fb8:	1a000023 	bne	904c <xfer_start_hack+0x168>
    8fbc:	e59f3090 	ldr	r3, [pc, #144]	; 9054 <xfer_start_hack+0x170>
    8fc0:	e5933004 	ldr	r3, [r3, #4]
    8fc4:	e3130c01 	tst	r3, #256	; 0x100
    8fc8:	1a000019 	bne	9034 <xfer_start_hack+0x150>
    8fcc:	e59f3080 	ldr	r3, [pc, #128]	; 9054 <xfer_start_hack+0x170>
    8fd0:	e5933004 	ldr	r3, [r3, #4]
    8fd4:	e3130c02 	tst	r3, #512	; 0x200
    8fd8:	0afffff3 	beq	8fac <xfer_start_hack+0xc8>
    8fdc:	e59f308c 	ldr	r3, [pc, #140]	; 9070 <xfer_start_hack+0x18c>
    8fe0:	e59f2070 	ldr	r2, [pc, #112]	; 9058 <xfer_start_hack+0x174>
    8fe4:	e59f1070 	ldr	r1, [pc, #112]	; 905c <xfer_start_hack+0x178>
    8fe8:	e59f0070 	ldr	r0, [pc, #112]	; 9060 <xfer_start_hack+0x17c>
    8fec:	eb0001ec 	bl	97a4 <printk>
    8ff0:	eb0002f4 	bl	9bc8 <clean_reboot>
    8ff4:	e59f3078 	ldr	r3, [pc, #120]	; 9074 <xfer_start_hack+0x190>
    8ff8:	e58d3000 	str	r3, [sp]
    8ffc:	e3a03e15 	mov	r3, #336	; 0x150
    9000:	e59f2050 	ldr	r2, [pc, #80]	; 9058 <xfer_start_hack+0x174>
    9004:	e59f1050 	ldr	r1, [pc, #80]	; 905c <xfer_start_hack+0x178>
    9008:	e59f0068 	ldr	r0, [pc, #104]	; 9078 <xfer_start_hack+0x194>
    900c:	eb0001e4 	bl	97a4 <printk>
    9010:	eb0002ec 	bl	9bc8 <clean_reboot>
    9014:	e59f3060 	ldr	r3, [pc, #96]	; 907c <xfer_start_hack+0x198>
    9018:	e58d3000 	str	r3, [sp]
    901c:	e3a03f55 	mov	r3, #340	; 0x154
    9020:	e59f2030 	ldr	r2, [pc, #48]	; 9058 <xfer_start_hack+0x174>
    9024:	e59f1030 	ldr	r1, [pc, #48]	; 905c <xfer_start_hack+0x178>
    9028:	e59f0048 	ldr	r0, [pc, #72]	; 9078 <xfer_start_hack+0x194>
    902c:	eb0001dc 	bl	97a4 <printk>
    9030:	eb0002e4 	bl	9bc8 <clean_reboot>
    9034:	e59f3034 	ldr	r3, [pc, #52]	; 9070 <xfer_start_hack+0x18c>
    9038:	e59f2018 	ldr	r2, [pc, #24]	; 9058 <xfer_start_hack+0x174>
    903c:	e59f1018 	ldr	r1, [pc, #24]	; 905c <xfer_start_hack+0x178>
    9040:	e59f001c 	ldr	r0, [pc, #28]	; 9064 <xfer_start_hack+0x180>
    9044:	eb0001d6 	bl	97a4 <printk>
    9048:	eb0002de 	bl	9bc8 <clean_reboot>
    904c:	e28dd008 	add	sp, sp, #8, 0
    9050:	e8bd8070 	pop	{r4, r5, r6, pc}
    9054:	20804000 	.word	0x20804000
    9058:	0000a444 	.word	0x0000a444
    905c:	0000a29c 	.word	0x0000a29c
    9060:	0000a2c8 	.word	0x0000a2c8
    9064:	0000a2a4 	.word	0x0000a2a4
    9068:	2080400c 	.word	0x2080400c
    906c:	20804008 	.word	0x20804008
    9070:	0000015e 	.word	0x0000015e
    9074:	0000a368 	.word	0x0000a368
    9078:	0000a2f8 	.word	0x0000a2f8
    907c:	0000a37c 	.word	0x0000a37c

00009080 <i2c_write>:
    9080:	e92d4070 	push	{r4, r5, r6, lr}
    9084:	e1a05001 	mov	r5, r1
    9088:	e1a04002 	mov	r4, r2
    908c:	e3a02000 	mov	r2, #0, 0
    9090:	e1a01004 	mov	r1, r4
    9094:	ebffff1d 	bl	8d10 <xfer_start>
    9098:	e3a02000 	mov	r2, #0, 0
    909c:	ea000009 	b	90c8 <i2c_write+0x48>
    90a0:	e3a03f4a 	mov	r3, #296	; 0x128
    90a4:	e59f2078 	ldr	r2, [pc, #120]	; 9124 <i2c_write+0xa4>
    90a8:	e59f1078 	ldr	r1, [pc, #120]	; 9128 <i2c_write+0xa8>
    90ac:	e59f0078 	ldr	r0, [pc, #120]	; 912c <i2c_write+0xac>
    90b0:	eb0001bb 	bl	97a4 <printk>
    90b4:	eb0002c3 	bl	9bc8 <clean_reboot>
    90b8:	e7d51002 	ldrb	r1, [r5, r2]
    90bc:	e59f306c 	ldr	r3, [pc, #108]	; 9130 <i2c_write+0xb0>
    90c0:	e5831010 	str	r1, [r3, #16]
    90c4:	e2822001 	add	r2, r2, #1, 0
    90c8:	e1520004 	cmp	r2, r4
    90cc:	2a000011 	bcs	9118 <i2c_write+0x98>
    90d0:	e59f3058 	ldr	r3, [pc, #88]	; 9130 <i2c_write+0xb0>
    90d4:	e5933004 	ldr	r3, [r3, #4]
    90d8:	e3130010 	tst	r3, #16, 0
    90dc:	1afffff5 	bne	90b8 <i2c_write+0x38>
    90e0:	e59f3048 	ldr	r3, [pc, #72]	; 9130 <i2c_write+0xb0>
    90e4:	e5933004 	ldr	r3, [r3, #4]
    90e8:	e3130c01 	tst	r3, #256	; 0x100
    90ec:	1affffeb 	bne	90a0 <i2c_write+0x20>
    90f0:	e59f3038 	ldr	r3, [pc, #56]	; 9130 <i2c_write+0xb0>
    90f4:	e5933004 	ldr	r3, [r3, #4]
    90f8:	e3130c02 	tst	r3, #512	; 0x200
    90fc:	0afffff3 	beq	90d0 <i2c_write+0x50>
    9100:	e3a03f4a 	mov	r3, #296	; 0x128
    9104:	e59f2018 	ldr	r2, [pc, #24]	; 9124 <i2c_write+0xa4>
    9108:	e59f1018 	ldr	r1, [pc, #24]	; 9128 <i2c_write+0xa8>
    910c:	e59f0020 	ldr	r0, [pc, #32]	; 9134 <i2c_write+0xb4>
    9110:	eb0001a3 	bl	97a4 <printk>
    9114:	eb0002ab 	bl	9bc8 <clean_reboot>
    9118:	ebfffeab 	bl	8bcc <xfer_end>
    911c:	e3a00001 	mov	r0, #1, 0
    9120:	e8bd8070 	pop	{r4, r5, r6, pc}
    9124:	0000a454 	.word	0x0000a454
    9128:	0000a29c 	.word	0x0000a29c
    912c:	0000a2a4 	.word	0x0000a2a4
    9130:	20804000 	.word	0x20804000
    9134:	0000a2c8 	.word	0x0000a2c8

00009138 <i2c_read>:
    9138:	e92d4070 	push	{r4, r5, r6, lr}
    913c:	e1a05001 	mov	r5, r1
    9140:	e1a04002 	mov	r4, r2
    9144:	e3a02001 	mov	r2, #1, 0
    9148:	e1a01004 	mov	r1, r4
    914c:	ebfffeef 	bl	8d10 <xfer_start>
    9150:	e3a02000 	mov	r2, #0, 0
    9154:	ea000009 	b	9180 <i2c_read+0x48>
    9158:	e59f307c 	ldr	r3, [pc, #124]	; 91dc <i2c_read+0xa4>
    915c:	e59f207c 	ldr	r2, [pc, #124]	; 91e0 <i2c_read+0xa8>
    9160:	e59f107c 	ldr	r1, [pc, #124]	; 91e4 <i2c_read+0xac>
    9164:	e59f007c 	ldr	r0, [pc, #124]	; 91e8 <i2c_read+0xb0>
    9168:	eb00018d 	bl	97a4 <printk>
    916c:	eb000295 	bl	9bc8 <clean_reboot>
    9170:	e59f3074 	ldr	r3, [pc, #116]	; 91ec <i2c_read+0xb4>
    9174:	e5933010 	ldr	r3, [r3, #16]
    9178:	e7c53002 	strb	r3, [r5, r2]
    917c:	e2822001 	add	r2, r2, #1, 0
    9180:	e1520004 	cmp	r2, r4
    9184:	2a000011 	bcs	91d0 <i2c_read+0x98>
    9188:	e59f305c 	ldr	r3, [pc, #92]	; 91ec <i2c_read+0xb4>
    918c:	e5933004 	ldr	r3, [r3, #4]
    9190:	e3130020 	tst	r3, #32, 0
    9194:	1afffff5 	bne	9170 <i2c_read+0x38>
    9198:	e59f304c 	ldr	r3, [pc, #76]	; 91ec <i2c_read+0xb4>
    919c:	e5933004 	ldr	r3, [r3, #4]
    91a0:	e3130c01 	tst	r3, #256	; 0x100
    91a4:	1affffeb 	bne	9158 <i2c_read+0x20>
    91a8:	e59f303c 	ldr	r3, [pc, #60]	; 91ec <i2c_read+0xb4>
    91ac:	e5933004 	ldr	r3, [r3, #4]
    91b0:	e3130c02 	tst	r3, #512	; 0x200
    91b4:	0afffff3 	beq	9188 <i2c_read+0x50>
    91b8:	e59f301c 	ldr	r3, [pc, #28]	; 91dc <i2c_read+0xa4>
    91bc:	e59f201c 	ldr	r2, [pc, #28]	; 91e0 <i2c_read+0xa8>
    91c0:	e59f101c 	ldr	r1, [pc, #28]	; 91e4 <i2c_read+0xac>
    91c4:	e59f0024 	ldr	r0, [pc, #36]	; 91f0 <i2c_read+0xb8>
    91c8:	eb000175 	bl	97a4 <printk>
    91cc:	eb00027d 	bl	9bc8 <clean_reboot>
    91d0:	ebfffe7d 	bl	8bcc <xfer_end>
    91d4:	e3a00001 	mov	r0, #1, 0
    91d8:	e8bd8070 	pop	{r4, r5, r6, pc}
    91dc:	0000013a 	.word	0x0000013a
    91e0:	0000a460 	.word	0x0000a460
    91e4:	0000a29c 	.word	0x0000a29c
    91e8:	0000a2a4 	.word	0x0000a2a4
    91ec:	20804000 	.word	0x20804000
    91f0:	0000a2c8 	.word	0x0000a2c8

000091f4 <i2c_discover_addr>:
    91f4:	e92d4070 	push	{r4, r5, r6, lr}
    91f8:	e1a05000 	mov	r5, r0
    91fc:	e1a06001 	mov	r6, r1
    9200:	e3a04000 	mov	r4, #0, 0
    9204:	e35400ff 	cmp	r4, #255, 0	; 0xff
    9208:	8a00004e 	bhi	9348 <i2c_discover_addr+0x154>
    920c:	e3a02001 	mov	r2, #1, 0
    9210:	e1a01002 	mov	r1, r2
    9214:	e1a00004 	mov	r0, r4
    9218:	ebffff31 	bl	8ee4 <xfer_start_hack>
    921c:	e59f3154 	ldr	r3, [pc, #340]	; 9378 <i2c_discover_addr+0x184>
    9220:	e5933004 	ldr	r3, [r3, #4]
    9224:	e3130010 	tst	r3, #16, 0
    9228:	1a000013 	bne	927c <i2c_discover_addr+0x88>
    922c:	e59f3144 	ldr	r3, [pc, #324]	; 9378 <i2c_discover_addr+0x184>
    9230:	e5933004 	ldr	r3, [r3, #4]
    9234:	e3130c01 	tst	r3, #256	; 0x100
    9238:	1a000009 	bne	9264 <i2c_discover_addr+0x70>
    923c:	e59f3134 	ldr	r3, [pc, #308]	; 9378 <i2c_discover_addr+0x184>
    9240:	e5933004 	ldr	r3, [r3, #4]
    9244:	e3130c02 	tst	r3, #512	; 0x200
    9248:	0afffff3 	beq	921c <i2c_discover_addr+0x28>
    924c:	e59f3128 	ldr	r3, [pc, #296]	; 937c <i2c_discover_addr+0x188>
    9250:	e59f2128 	ldr	r2, [pc, #296]	; 9380 <i2c_discover_addr+0x18c>
    9254:	e59f1128 	ldr	r1, [pc, #296]	; 9384 <i2c_discover_addr+0x190>
    9258:	e59f0128 	ldr	r0, [pc, #296]	; 9388 <i2c_discover_addr+0x194>
    925c:	eb000150 	bl	97a4 <printk>
    9260:	eb000258 	bl	9bc8 <clean_reboot>
    9264:	e59f3110 	ldr	r3, [pc, #272]	; 937c <i2c_discover_addr+0x188>
    9268:	e59f2110 	ldr	r2, [pc, #272]	; 9380 <i2c_discover_addr+0x18c>
    926c:	e59f1110 	ldr	r1, [pc, #272]	; 9384 <i2c_discover_addr+0x190>
    9270:	e59f0114 	ldr	r0, [pc, #276]	; 938c <i2c_discover_addr+0x198>
    9274:	eb00014a 	bl	97a4 <printk>
    9278:	eb000252 	bl	9bc8 <clean_reboot>
    927c:	e59f30f4 	ldr	r3, [pc, #244]	; 9378 <i2c_discover_addr+0x184>
    9280:	e5835010 	str	r5, [r3, #16]
    9284:	e59f30ec 	ldr	r3, [pc, #236]	; 9378 <i2c_discover_addr+0x184>
    9288:	e5933004 	ldr	r3, [r3, #4]
    928c:	e3130010 	tst	r3, #16, 0
    9290:	1a000013 	bne	92e4 <i2c_discover_addr+0xf0>
    9294:	e59f30dc 	ldr	r3, [pc, #220]	; 9378 <i2c_discover_addr+0x184>
    9298:	e5933004 	ldr	r3, [r3, #4]
    929c:	e3130c01 	tst	r3, #256	; 0x100
    92a0:	1a000009 	bne	92cc <i2c_discover_addr+0xd8>
    92a4:	e59f30cc 	ldr	r3, [pc, #204]	; 9378 <i2c_discover_addr+0x184>
    92a8:	e5933004 	ldr	r3, [r3, #4]
    92ac:	e3130c02 	tst	r3, #512	; 0x200
    92b0:	0afffff3 	beq	9284 <i2c_discover_addr+0x90>
    92b4:	e59f30d4 	ldr	r3, [pc, #212]	; 9390 <i2c_discover_addr+0x19c>
    92b8:	e59f20c0 	ldr	r2, [pc, #192]	; 9380 <i2c_discover_addr+0x18c>
    92bc:	e59f10c0 	ldr	r1, [pc, #192]	; 9384 <i2c_discover_addr+0x190>
    92c0:	e59f00c0 	ldr	r0, [pc, #192]	; 9388 <i2c_discover_addr+0x194>
    92c4:	eb000136 	bl	97a4 <printk>
    92c8:	eb00023e 	bl	9bc8 <clean_reboot>
    92cc:	e59f30bc 	ldr	r3, [pc, #188]	; 9390 <i2c_discover_addr+0x19c>
    92d0:	e59f20a8 	ldr	r2, [pc, #168]	; 9380 <i2c_discover_addr+0x18c>
    92d4:	e59f10a8 	ldr	r1, [pc, #168]	; 9384 <i2c_discover_addr+0x190>
    92d8:	e59f00ac 	ldr	r0, [pc, #172]	; 938c <i2c_discover_addr+0x198>
    92dc:	eb000130 	bl	97a4 <printk>
    92e0:	eb000238 	bl	9bc8 <clean_reboot>
    92e4:	e59f308c 	ldr	r3, [pc, #140]	; 9378 <i2c_discover_addr+0x184>
    92e8:	e5836010 	str	r6, [r3, #16]
    92ec:	e59f3084 	ldr	r3, [pc, #132]	; 9378 <i2c_discover_addr+0x184>
    92f0:	e5933004 	ldr	r3, [r3, #4]
    92f4:	e3130002 	tst	r3, #2, 0
    92f8:	1a000018 	bne	9360 <i2c_discover_addr+0x16c>
    92fc:	e59f3074 	ldr	r3, [pc, #116]	; 9378 <i2c_discover_addr+0x184>
    9300:	e5933004 	ldr	r3, [r3, #4]
    9304:	e3130c01 	tst	r3, #256	; 0x100
    9308:	1a000009 	bne	9334 <i2c_discover_addr+0x140>
    930c:	e59f3064 	ldr	r3, [pc, #100]	; 9378 <i2c_discover_addr+0x184>
    9310:	e5933004 	ldr	r3, [r3, #4]
    9314:	e3130c02 	tst	r3, #512	; 0x200
    9318:	0afffff3 	beq	92ec <i2c_discover_addr+0xf8>
    931c:	e59f3070 	ldr	r3, [pc, #112]	; 9394 <i2c_discover_addr+0x1a0>
    9320:	e59f2058 	ldr	r2, [pc, #88]	; 9380 <i2c_discover_addr+0x18c>
    9324:	e59f1058 	ldr	r1, [pc, #88]	; 9384 <i2c_discover_addr+0x190>
    9328:	e59f0068 	ldr	r0, [pc, #104]	; 9398 <i2c_discover_addr+0x1a4>
    932c:	eb00011c 	bl	97a4 <printk>
    9330:	eb000224 	bl	9bc8 <clean_reboot>
    9334:	e1a01004 	mov	r1, r4
    9338:	e59f005c 	ldr	r0, [pc, #92]	; 939c <i2c_discover_addr+0x1a8>
    933c:	eb000118 	bl	97a4 <printk>
    9340:	e2844001 	add	r4, r4, #1, 0
    9344:	eaffffae 	b	9204 <i2c_discover_addr+0x10>
    9348:	e59f3050 	ldr	r3, [pc, #80]	; 93a0 <i2c_discover_addr+0x1ac>
    934c:	e59f202c 	ldr	r2, [pc, #44]	; 9380 <i2c_discover_addr+0x18c>
    9350:	e59f102c 	ldr	r1, [pc, #44]	; 9384 <i2c_discover_addr+0x190>
    9354:	e59f0048 	ldr	r0, [pc, #72]	; 93a4 <i2c_discover_addr+0x1b0>
    9358:	eb000111 	bl	97a4 <printk>
    935c:	eb000219 	bl	9bc8 <clean_reboot>
    9360:	e1a01004 	mov	r1, r4
    9364:	e59f003c 	ldr	r0, [pc, #60]	; 93a8 <i2c_discover_addr+0x1b4>
    9368:	eb00010d 	bl	97a4 <printk>
    936c:	ebfffe16 	bl	8bcc <xfer_end>
    9370:	e6ef0074 	uxtb	r0, r4
    9374:	e8bd8070 	pop	{r4, r5, r6, pc}
    9378:	20804000 	.word	0x20804000
    937c:	00000167 	.word	0x00000167
    9380:	0000a46c 	.word	0x0000a46c
    9384:	0000a29c 	.word	0x0000a29c
    9388:	0000a2c8 	.word	0x0000a2c8
    938c:	0000a2a4 	.word	0x0000a2a4
    9390:	00000169 	.word	0x00000169
    9394:	00000177 	.word	0x00000177
    9398:	0000a3dc 	.word	0x0000a3dc
    939c:	0000a3c0 	.word	0x0000a3c0
    93a0:	0000017a 	.word	0x0000017a
    93a4:	0000a40c 	.word	0x0000a40c
    93a8:	0000a394 	.word	0x0000a394

000093ac <i2c_is_initialized>:
    93ac:	e59f3004 	ldr	r3, [pc, #4]	; 93b8 <i2c_is_initialized+0xc>
    93b0:	e5930000 	ldr	r0, [r3]
    93b4:	e12fff1e 	bx	lr
    93b8:	0000ae94 	.word	0x0000ae94

000093bc <i2c_init>:
    93bc:	e92d4010 	push	{r4, lr}
    93c0:	e24dd008 	sub	sp, sp, #8, 0
    93c4:	eb00023a 	bl	9cb4 <dev_barrier>
    93c8:	e3a01004 	mov	r1, #4, 0
    93cc:	e3a00002 	mov	r0, #2, 0
    93d0:	eb000059 	bl	953c <gpio_set_function>
    93d4:	e3a01004 	mov	r1, #4, 0
    93d8:	e3a00003 	mov	r0, #3, 0
    93dc:	eb000056 	bl	953c <gpio_set_function>
    93e0:	eb000233 	bl	9cb4 <dev_barrier>
    93e4:	e59f405c 	ldr	r4, [pc, #92]	; 9448 <i2c_init+0x8c>
    93e8:	e3a01902 	mov	r1, #32768	; 0x8000
    93ec:	e1a00004 	mov	r0, r4
    93f0:	ebfffb0b 	bl	8024 <PUT32>
    93f4:	e3a03082 	mov	r3, #130, 0	; 0x82
    93f8:	e5843014 	str	r3, [r4, #20]
    93fc:	eb00022c 	bl	9cb4 <dev_barrier>
    9400:	ebfffe34 	bl	8cd8 <reset_status>
    9404:	eb00022a 	bl	9cb4 <dev_barrier>
    9408:	e5943004 	ldr	r3, [r4, #4]
    940c:	e3130001 	tst	r3, #1, 0
    9410:	1a000004 	bne	9428 <i2c_init+0x6c>
    9414:	e59f3030 	ldr	r3, [pc, #48]	; 944c <i2c_init+0x90>
    9418:	e3a02001 	mov	r2, #1, 0
    941c:	e5832000 	str	r2, [r3]
    9420:	e28dd008 	add	sp, sp, #8, 0
    9424:	e8bd8010 	pop	{r4, pc}
    9428:	e59f3020 	ldr	r3, [pc, #32]	; 9450 <i2c_init+0x94>
    942c:	e58d3000 	str	r3, [sp]
    9430:	e59f301c 	ldr	r3, [pc, #28]	; 9454 <i2c_init+0x98>
    9434:	e59f201c 	ldr	r2, [pc, #28]	; 9458 <i2c_init+0x9c>
    9438:	e59f101c 	ldr	r1, [pc, #28]	; 945c <i2c_init+0xa0>
    943c:	e59f001c 	ldr	r0, [pc, #28]	; 9460 <i2c_init+0xa4>
    9440:	eb0000d7 	bl	97a4 <printk>
    9444:	eb0001df 	bl	9bc8 <clean_reboot>
    9448:	20804000 	.word	0x20804000
    944c:	0000ae94 	.word	0x0000ae94
    9450:	0000a328 	.word	0x0000a328
    9454:	000001ae 	.word	0x000001ae
    9458:	0000a480 	.word	0x0000a480
    945c:	0000a29c 	.word	0x0000a29c
    9460:	0000a2f8 	.word	0x0000a2f8

00009464 <i2c_init_once>:
    9464:	e92d4010 	push	{r4, lr}
    9468:	ebffffcf 	bl	93ac <i2c_is_initialized>
    946c:	e3500000 	cmp	r0, #0, 0
    9470:	18bd8010 	popne	{r4, pc}
    9474:	ebffffd0 	bl	93bc <i2c_init>
    9478:	e8bd8010 	pop	{r4, pc}

0000947c <gpio_set_on>:
    947c:	e350002f 	cmp	r0, #47, 0	; 0x2f
    9480:	1350001f 	cmpne	r0, #31, 0
    9484:	812fff1e 	bxhi	lr
    9488:	e92d4010 	push	{r4, lr}
    948c:	e59f3018 	ldr	r3, [pc, #24]	; 94ac <gpio_set_on+0x30>
    9490:	e08332a0 	add	r3, r3, r0, lsr #5
    9494:	e200001f 	and	r0, r0, #31, 0
    9498:	e3a01001 	mov	r1, #1, 0
    949c:	e1a01011 	lsl	r1, r1, r0
    94a0:	e1a00103 	lsl	r0, r3, #2
    94a4:	ebfffade 	bl	8024 <PUT32>
    94a8:	e8bd8010 	pop	{r4, pc}
    94ac:	08080007 	.word	0x08080007

000094b0 <gpio_set_off>:
    94b0:	e350002f 	cmp	r0, #47, 0	; 0x2f
    94b4:	1350001f 	cmpne	r0, #31, 0
    94b8:	812fff1e 	bxhi	lr
    94bc:	e92d4010 	push	{r4, lr}
    94c0:	e59f3018 	ldr	r3, [pc, #24]	; 94e0 <gpio_set_off+0x30>
    94c4:	e08332a0 	add	r3, r3, r0, lsr #5
    94c8:	e200001f 	and	r0, r0, #31, 0
    94cc:	e3a01001 	mov	r1, #1, 0
    94d0:	e1a01011 	lsl	r1, r1, r0
    94d4:	e1a00103 	lsl	r0, r3, #2
    94d8:	ebfffad1 	bl	8024 <PUT32>
    94dc:	e8bd8010 	pop	{r4, pc}
    94e0:	0808000a 	.word	0x0808000a

000094e4 <gpio_write>:
    94e4:	e92d4010 	push	{r4, lr}
    94e8:	e3510000 	cmp	r1, #0, 0
    94ec:	0a000001 	beq	94f8 <gpio_write+0x14>
    94f0:	ebffffe1 	bl	947c <gpio_set_on>
    94f4:	e8bd8010 	pop	{r4, pc}
    94f8:	ebffffec 	bl	94b0 <gpio_set_off>
    94fc:	e8bd8010 	pop	{r4, pc}

00009500 <gpio_read>:
    9500:	e350001f 	cmp	r0, #31, 0
    9504:	8a000009 	bhi	9530 <gpio_read+0x30>
    9508:	e92d4010 	push	{r4, lr}
    950c:	e1a04000 	mov	r4, r0
    9510:	e59f0020 	ldr	r0, [pc, #32]	; 9538 <gpio_read+0x38>
    9514:	e08002a4 	add	r0, r0, r4, lsr #5
    9518:	e1a00100 	lsl	r0, r0, #2
    951c:	ebfffac2 	bl	802c <GET32>
    9520:	e204401f 	and	r4, r4, #31, 0
    9524:	e1a04430 	lsr	r4, r0, r4
    9528:	e2040001 	and	r0, r4, #1, 0
    952c:	e8bd8010 	pop	{r4, pc}
    9530:	e3e00000 	mvn	r0, #0, 0
    9534:	e12fff1e 	bx	lr
    9538:	0808000d 	.word	0x0808000d

0000953c <gpio_set_function>:
    953c:	e350002f 	cmp	r0, #47, 0	; 0x2f
    9540:	1350001f 	cmpne	r0, #31, 0
    9544:	812fff1e 	bxhi	lr
    9548:	e92d41f0 	push	{r4, r5, r6, r7, r8, lr}
    954c:	e1a04000 	mov	r4, r0
    9550:	e1a06001 	mov	r6, r1
    9554:	e350002f 	cmp	r0, #47, 0	; 0x2f
    9558:	13a03000 	movne	r3, #0, 0
    955c:	03a03001 	moveq	r3, #1, 0
    9560:	e3510001 	cmp	r1, #1, 0
    9564:	03a03000 	moveq	r3, #0, 0
    9568:	e3530000 	cmp	r3, #0, 0
    956c:	18bd81f0 	popne	{r4, r5, r6, r7, r8, pc}
    9570:	e3510007 	cmp	r1, #7, 0
    9574:	88bd81f0 	pophi	{r4, r5, r6, r7, r8, pc}
    9578:	e59f503c 	ldr	r5, [pc, #60]	; 95bc <gpio_set_function+0x80>
    957c:	e0853095 	umull	r3, r5, r5, r0
    9580:	e1a051a5 	lsr	r5, r5, #3
    9584:	e2857302 	add	r7, r5, #134217728	; 0x8000000
    9588:	e2877702 	add	r7, r7, #524288	; 0x80000
    958c:	e1a07107 	lsl	r7, r7, #2
    9590:	e1a00007 	mov	r0, r7
    9594:	ebfffaa4 	bl	802c <GET32>
    9598:	e0855105 	add	r5, r5, r5, lsl #2
    959c:	e0444085 	sub	r4, r4, r5, lsl #1
    95a0:	e0844084 	add	r4, r4, r4, lsl #1
    95a4:	e3a01007 	mov	r1, #7, 0
    95a8:	e1c01411 	bic	r1, r0, r1, lsl r4
    95ac:	e1811416 	orr	r1, r1, r6, lsl r4
    95b0:	e1a00007 	mov	r0, r7
    95b4:	ebfffa9a 	bl	8024 <PUT32>
    95b8:	e8bd81f0 	pop	{r4, r5, r6, r7, r8, pc}
    95bc:	cccccccd 	.word	0xcccccccd

000095c0 <gpio_set_output>:
    95c0:	e92d4010 	push	{r4, lr}
    95c4:	e3a01001 	mov	r1, #1, 0
    95c8:	ebffffdb 	bl	953c <gpio_set_function>
    95cc:	e8bd8010 	pop	{r4, pc}

000095d0 <gpio_set_input>:
    95d0:	e92d4010 	push	{r4, lr}
    95d4:	e3a01000 	mov	r1, #0, 0
    95d8:	ebffffd7 	bl	953c <gpio_set_function>
    95dc:	e8bd8010 	pop	{r4, pc}

000095e0 <memcpy256>:
    95e0:	e92d40f0 	push	{r4, r5, r6, r7, lr}
    95e4:	e24dd00c 	sub	sp, sp, #12, 0
    95e8:	e212401f 	ands	r4, r2, #31, 0
    95ec:	01a06000 	moveq	r6, r0
    95f0:	01a07001 	moveq	r7, r1
    95f4:	01a052a2 	lsreq	r5, r2, #5
    95f8:	0a00000f 	beq	963c <memcpy256+0x5c>
    95fc:	e3a03020 	mov	r3, #32, 0
    9600:	e58d3004 	str	r3, [sp, #4]
    9604:	e58d2000 	str	r2, [sp]
    9608:	e3a0300f 	mov	r3, #15, 0
    960c:	e59f2038 	ldr	r2, [pc, #56]	; 964c <memcpy256+0x6c>
    9610:	e59f1038 	ldr	r1, [pc, #56]	; 9650 <memcpy256+0x70>
    9614:	e59f0038 	ldr	r0, [pc, #56]	; 9654 <memcpy256+0x74>
    9618:	eb000061 	bl	97a4 <printk>
    961c:	eb000169 	bl	9bc8 <clean_reboot>
    9620:	e086c284 	add	ip, r6, r4, lsl #5
    9624:	e087e284 	add	lr, r7, r4, lsl #5
    9628:	e8be000f 	ldm	lr!, {r0, r1, r2, r3}
    962c:	e8ac000f 	stmia	ip!, {r0, r1, r2, r3}
    9630:	e89e000f 	ldm	lr, {r0, r1, r2, r3}
    9634:	e88c000f 	stm	ip, {r0, r1, r2, r3}
    9638:	e2844001 	add	r4, r4, #1, 0
    963c:	e1540005 	cmp	r4, r5
    9640:	3afffff6 	bcc	9620 <memcpy256+0x40>
    9644:	e28dd00c 	add	sp, sp, #12, 0
    9648:	e8bd80f0 	pop	{r4, r5, r6, r7, pc}
    964c:	0000a4d8 	.word	0x0000a4d8
    9650:	0000a48c 	.word	0x0000a48c
    9654:	0000a49c 	.word	0x0000a49c

00009658 <memcpy>:
    9658:	e3100007 	tst	r0, #7, 0
    965c:	1a00000f 	bne	96a0 <memcpy+0x48>
    9660:	e3110007 	tst	r1, #7, 0
    9664:	1a00000d 	bne	96a0 <memcpy+0x48>
    9668:	e2123007 	ands	r3, r2, #7, 0
    966c:	1a00000b 	bne	96a0 <memcpy+0x48>
    9670:	e1a021a2 	lsr	r2, r2, #3
    9674:	e1530002 	cmp	r3, r2
    9678:	212fff1e 	bxcs	lr
    967c:	e92d0030 	push	{r4, r5}
    9680:	e1a0c183 	lsl	ip, r3, #3
    9684:	e18140dc 	ldrd	r4, [r1, ip]
    9688:	e18040fc 	strd	r4, [r0, ip]
    968c:	e2833001 	add	r3, r3, #1, 0
    9690:	e1530002 	cmp	r3, r2
    9694:	3afffff9 	bcc	9680 <memcpy+0x28>
    9698:	e8bd0030 	pop	{r4, r5}
    969c:	e12fff1e 	bx	lr
    96a0:	e2103003 	ands	r3, r0, #3, 0
    96a4:	1a000011 	bne	96f0 <memcpy+0x98>
    96a8:	e211c003 	ands	ip, r1, #3, 0
    96ac:	1a00000c 	bne	96e4 <memcpy+0x8c>
    96b0:	e2123003 	ands	r3, r2, #3, 0
    96b4:	1a00000f 	bne	96f8 <memcpy+0xa0>
    96b8:	e1a02122 	lsr	r2, r2, #2
    96bc:	ea000002 	b	96cc <memcpy+0x74>
    96c0:	e791c103 	ldr	ip, [r1, r3, lsl #2]
    96c4:	e780c103 	str	ip, [r0, r3, lsl #2]
    96c8:	e2833001 	add	r3, r3, #1, 0
    96cc:	e1530002 	cmp	r3, r2
    96d0:	3afffffa 	bcc	96c0 <memcpy+0x68>
    96d4:	e12fff1e 	bx	lr
    96d8:	e7d1c003 	ldrb	ip, [r1, r3]
    96dc:	e7c0c003 	strb	ip, [r0, r3]
    96e0:	e2833001 	add	r3, r3, #1, 0
    96e4:	e1530002 	cmp	r3, r2
    96e8:	3afffffa 	bcc	96d8 <memcpy+0x80>
    96ec:	e12fff1e 	bx	lr
    96f0:	e3a03000 	mov	r3, #0, 0
    96f4:	eafffffa 	b	96e4 <memcpy+0x8c>
    96f8:	e1a0300c 	mov	r3, ip
    96fc:	eafffff8 	b	96e4 <memcpy+0x8c>

00009700 <memcpy_end>:
    9700:	e12fff1e 	bx	lr

00009704 <memset>:
    9704:	e3520000 	cmp	r2, #0, 0
    9708:	012fff1e 	bxeq	lr
    970c:	e3510000 	cmp	r1, #0, 0
    9710:	1a000007 	bne	9734 <memset+0x30>
    9714:	e3100007 	tst	r0, #7, 0
    9718:	1a000001 	bne	9724 <memset+0x20>
    971c:	e3120007 	tst	r2, #7, 0
    9720:	0a000011 	beq	976c <memset+0x68>
    9724:	e3100003 	tst	r0, #3, 0
    9728:	1a000001 	bne	9734 <memset+0x30>
    972c:	e3120003 	tst	r2, #3, 0
    9730:	0a000001 	beq	973c <memset+0x38>
    9734:	e0802002 	add	r2, r0, r2
    9738:	ea000008 	b	9760 <memset+0x5c>
    973c:	e1a02122 	lsr	r2, r2, #2
    9740:	ea000001 	b	974c <memset+0x48>
    9744:	e4801004 	str	r1, [r0], #4
    9748:	e1a02003 	mov	r2, r3
    974c:	e2423001 	sub	r3, r2, #1, 0
    9750:	e3520000 	cmp	r2, #0, 0
    9754:	1afffffa 	bne	9744 <memset+0x40>
    9758:	e12fff1e 	bx	lr
    975c:	e4c01001 	strb	r1, [r0], #1
    9760:	e1500002 	cmp	r0, r2
    9764:	3afffffc 	bcc	975c <memset+0x58>
    9768:	e12fff1e 	bx	lr
    976c:	e1a021a2 	lsr	r2, r2, #3
    9770:	e2423001 	sub	r3, r2, #1, 0
    9774:	e3520000 	cmp	r2, #0, 0
    9778:	012fff1e 	bxeq	lr
    977c:	e92d0030 	push	{r4, r5}
    9780:	e1a04001 	mov	r4, r1
    9784:	e1a05fc1 	asr	r5, r1, #31
    9788:	e0c040f8 	strd	r4, [r0], #8
    978c:	e1a02003 	mov	r2, r3
    9790:	e2433001 	sub	r3, r3, #1, 0
    9794:	e3520000 	cmp	r2, #0, 0
    9798:	1afffff8 	bne	9780 <memset+0x7c>
    979c:	e8bd0030 	pop	{r4, r5}
    97a0:	e12fff1e 	bx	lr

000097a4 <printk>:
    97a4:	e92d000f 	push	{r0, r1, r2, r3}
    97a8:	e52de004 	push	{lr}		; (str lr, [sp, #-4]!)
    97ac:	e24dd00c 	sub	sp, sp, #12, 0
    97b0:	e28d1014 	add	r1, sp, #20, 0
    97b4:	e58d1004 	str	r1, [sp, #4]
    97b8:	e59d0010 	ldr	r0, [sp, #16]
    97bc:	eb000047 	bl	98e0 <vprintk>
    97c0:	e28dd00c 	add	sp, sp, #12, 0
    97c4:	e49de004 	pop	{lr}		; (ldr lr, [sp], #4)
    97c8:	e28dd010 	add	sp, sp, #16, 0
    97cc:	e12fff1e 	bx	lr

000097d0 <emit_val>:
    97d0:	e92d4010 	push	{r4, lr}
    97d4:	e24dd030 	sub	sp, sp, #48, 0	; 0x30
    97d8:	e350000a 	cmp	r0, #10, 0
    97dc:	0a000014 	beq	9834 <emit_val+0x64>
    97e0:	e3500010 	cmp	r0, #16, 0
    97e4:	0a000022 	beq	9874 <emit_val+0xa4>
    97e8:	e3500002 	cmp	r0, #2, 0
    97ec:	0a000006 	beq	980c <emit_val+0x3c>
    97f0:	e58d0000 	str	r0, [sp]
    97f4:	e3a0301b 	mov	r3, #27, 0
    97f8:	e59f20c0 	ldr	r2, [pc, #192]	; 98c0 <emit_val+0xf0>
    97fc:	e59f10c0 	ldr	r1, [pc, #192]	; 98c4 <emit_val+0xf4>
    9800:	e59f00c0 	ldr	r0, [pc, #192]	; 98c8 <emit_val+0xf8>
    9804:	ebffffe6 	bl	97a4 <printk>
    9808:	eb0000ee 	bl	9bc8 <clean_reboot>
    980c:	e28d400c 	add	r4, sp, #12, 0
    9810:	e2012001 	and	r2, r1, #1, 0
    9814:	e59f00b0 	ldr	r0, [pc, #176]	; 98cc <emit_val+0xfc>
    9818:	e7d02002 	ldrb	r2, [r0, r2]
    981c:	e5c42000 	strb	r2, [r4]
    9820:	e2844001 	add	r4, r4, #1, 0
    9824:	e3510001 	cmp	r1, #1, 0
    9828:	e1a010a1 	lsr	r1, r1, #1
    982c:	8afffff7 	bhi	9810 <emit_val+0x40>
    9830:	ea00001d 	b	98ac <emit_val+0xdc>
    9834:	e28d400c 	add	r4, sp, #12, 0
    9838:	e59f3090 	ldr	r3, [pc, #144]	; 98d0 <emit_val+0x100>
    983c:	e0832193 	umull	r2, r3, r3, r1
    9840:	e1a031a3 	lsr	r3, r3, #3
    9844:	e1a00003 	mov	r0, r3
    9848:	e0833103 	add	r3, r3, r3, lsl #2
    984c:	e0413083 	sub	r3, r1, r3, lsl #1
    9850:	e59fc07c 	ldr	ip, [pc, #124]	; 98d4 <emit_val+0x104>
    9854:	e7dcc003 	ldrb	ip, [ip, r3]
    9858:	e5c4c000 	strb	ip, [r4]
    985c:	e2844001 	add	r4, r4, #1, 0
    9860:	e1a03001 	mov	r3, r1
    9864:	e1a01000 	mov	r1, r0
    9868:	e3530009 	cmp	r3, #9, 0
    986c:	8afffff1 	bhi	9838 <emit_val+0x68>
    9870:	ea00000d 	b	98ac <emit_val+0xdc>
    9874:	e28d400c 	add	r4, sp, #12, 0
    9878:	e201200f 	and	r2, r1, #15, 0
    987c:	e59f0054 	ldr	r0, [pc, #84]	; 98d8 <emit_val+0x108>
    9880:	e7d02002 	ldrb	r2, [r0, r2]
    9884:	e5c42000 	strb	r2, [r4]
    9888:	e2844001 	add	r4, r4, #1, 0
    988c:	e351000f 	cmp	r1, #15, 0
    9890:	e1a01221 	lsr	r1, r1, #4
    9894:	8afffff7 	bhi	9878 <emit_val+0xa8>
    9898:	ea000003 	b	98ac <emit_val+0xdc>
    989c:	e59f3038 	ldr	r3, [pc, #56]	; 98dc <emit_val+0x10c>
    98a0:	e5933000 	ldr	r3, [r3]
    98a4:	e5740001 	ldrb	r0, [r4, #-1]!
    98a8:	e12fff33 	blx	r3
    98ac:	e28d300c 	add	r3, sp, #12, 0
    98b0:	e1540003 	cmp	r4, r3
    98b4:	8afffff8 	bhi	989c <emit_val+0xcc>
    98b8:	e28dd030 	add	sp, sp, #48, 0	; 0x30
    98bc:	e8bd8010 	pop	{r4, pc}
    98c0:	0000a59c 	.word	0x0000a59c
    98c4:	0000a4e4 	.word	0x0000a4e4
    98c8:	0000a4f4 	.word	0x0000a4f4
    98cc:	0000a518 	.word	0x0000a518
    98d0:	cccccccd 	.word	0xcccccccd
    98d4:	0000a51c 	.word	0x0000a51c
    98d8:	0000a528 	.word	0x0000a528
    98dc:	0000a664 	.word	0x0000a664

000098e0 <vprintk>:
    98e0:	e92d4030 	push	{r4, r5, lr}
    98e4:	e24dd014 	sub	sp, sp, #20, 0
    98e8:	e1a04000 	mov	r4, r0
    98ec:	e58d100c 	str	r1, [sp, #12]
    98f0:	ea000003 	b	9904 <vprintk+0x24>
    98f4:	e59f3288 	ldr	r3, [pc, #648]	; 9b84 <vprintk+0x2a4>
    98f8:	e5933000 	ldr	r3, [r3]
    98fc:	e12fff33 	blx	r3
    9900:	e2844001 	add	r4, r4, #1, 0
    9904:	e5d40000 	ldrb	r0, [r4]
    9908:	e3500000 	cmp	r0, #0, 0
    990c:	0a00009a 	beq	9b7c <vprintk+0x29c>
    9910:	e3500025 	cmp	r0, #37, 0	; 0x25
    9914:	1afffff6 	bne	98f4 <vprintk+0x14>
    9918:	e2845001 	add	r5, r4, #1, 0
    991c:	e5d42001 	ldrb	r2, [r4, #1]
    9920:	e2423062 	sub	r3, r2, #98, 0	; 0x62
    9924:	e3530016 	cmp	r3, #22, 0
    9928:	979ff103 	ldrls	pc, [pc, r3, lsl #2]
    992c:	ea00008b 	b	9b60 <vprintk+0x280>
    9930:	0000998c 	.word	0x0000998c
    9934:	000099cc 	.word	0x000099cc
    9938:	00009ae4 	.word	0x00009ae4
    993c:	00009b60 	.word	0x00009b60
    9940:	00009b60 	.word	0x00009b60
    9944:	00009b60 	.word	0x00009b60
    9948:	00009b60 	.word	0x00009b60
    994c:	00009b60 	.word	0x00009b60
    9950:	00009b60 	.word	0x00009b60
    9954:	00009b60 	.word	0x00009b60
    9958:	000099f0 	.word	0x000099f0
    995c:	00009b60 	.word	0x00009b60
    9960:	00009b60 	.word	0x00009b60
    9964:	00009b60 	.word	0x00009b60
    9968:	00009aa8 	.word	0x00009aa8
    996c:	00009b60 	.word	0x00009b60
    9970:	00009b60 	.word	0x00009b60
    9974:	00009b28 	.word	0x00009b28
    9978:	00009b60 	.word	0x00009b60
    997c:	000099ac 	.word	0x000099ac
    9980:	00009b60 	.word	0x00009b60
    9984:	00009b60 	.word	0x00009b60
    9988:	00009aa8 	.word	0x00009aa8
    998c:	e59d300c 	ldr	r3, [sp, #12]
    9990:	e2832004 	add	r2, r3, #4, 0
    9994:	e58d200c 	str	r2, [sp, #12]
    9998:	e5931000 	ldr	r1, [r3]
    999c:	e3a00002 	mov	r0, #2, 0
    99a0:	ebffff8a 	bl	97d0 <emit_val>
    99a4:	e1a04005 	mov	r4, r5
    99a8:	eaffffd4 	b	9900 <vprintk+0x20>
    99ac:	e59d300c 	ldr	r3, [sp, #12]
    99b0:	e2832004 	add	r2, r3, #4, 0
    99b4:	e58d200c 	str	r2, [sp, #12]
    99b8:	e5931000 	ldr	r1, [r3]
    99bc:	e3a0000a 	mov	r0, #10, 0
    99c0:	ebffff82 	bl	97d0 <emit_val>
    99c4:	e1a04005 	mov	r4, r5
    99c8:	eaffffcc 	b	9900 <vprintk+0x20>
    99cc:	e59f31b0 	ldr	r3, [pc, #432]	; 9b84 <vprintk+0x2a4>
    99d0:	e5932000 	ldr	r2, [r3]
    99d4:	e59d300c 	ldr	r3, [sp, #12]
    99d8:	e2831004 	add	r1, r3, #4, 0
    99dc:	e58d100c 	str	r1, [sp, #12]
    99e0:	e5930000 	ldr	r0, [r3]
    99e4:	e12fff32 	blx	r2
    99e8:	e1a04005 	mov	r4, r5
    99ec:	eaffffc3 	b	9900 <vprintk+0x20>
    99f0:	e2842002 	add	r2, r4, #2, 0
    99f4:	e5d43002 	ldrb	r3, [r4, #2]
    99f8:	e353006c 	cmp	r3, #108, 0	; 0x6c
    99fc:	1a000018 	bne	9a64 <vprintk+0x184>
    9a00:	e2845003 	add	r5, r4, #3, 0
    9a04:	e5d43003 	ldrb	r3, [r4, #3]
    9a08:	e3530078 	cmp	r3, #120, 0	; 0x78
    9a0c:	1a00001b 	bne	9a80 <vprintk+0x1a0>
    9a10:	e59f416c 	ldr	r4, [pc, #364]	; 9b84 <vprintk+0x2a4>
    9a14:	e5943000 	ldr	r3, [r4]
    9a18:	e3a00030 	mov	r0, #48, 0	; 0x30
    9a1c:	e12fff33 	blx	r3
    9a20:	e5943000 	ldr	r3, [r4]
    9a24:	e3a00078 	mov	r0, #120, 0	; 0x78
    9a28:	e12fff33 	blx	r3
    9a2c:	e59d300c 	ldr	r3, [sp, #12]
    9a30:	e2833007 	add	r3, r3, #7, 0
    9a34:	e3c33007 	bic	r3, r3, #7, 0
    9a38:	e2832008 	add	r2, r3, #8, 0
    9a3c:	e58d200c 	str	r2, [sp, #12]
    9a40:	e5934000 	ldr	r4, [r3]
    9a44:	e5931004 	ldr	r1, [r3, #4]
    9a48:	e3510000 	cmp	r1, #0, 0
    9a4c:	1a000012 	bne	9a9c <vprintk+0x1bc>
    9a50:	e1a01004 	mov	r1, r4
    9a54:	e3a00010 	mov	r0, #16, 0
    9a58:	ebffff5c 	bl	97d0 <emit_val>
    9a5c:	e1a04005 	mov	r4, r5
    9a60:	eaffffa6 	b	9900 <vprintk+0x20>
    9a64:	e58d2000 	str	r2, [sp]
    9a68:	e3a0303b 	mov	r3, #59, 0	; 0x3b
    9a6c:	e59f2114 	ldr	r2, [pc, #276]	; 9b88 <vprintk+0x2a8>
    9a70:	e59f1114 	ldr	r1, [pc, #276]	; 9b8c <vprintk+0x2ac>
    9a74:	e59f0114 	ldr	r0, [pc, #276]	; 9b90 <vprintk+0x2b0>
    9a78:	ebffff49 	bl	97a4 <printk>
    9a7c:	eb000051 	bl	9bc8 <clean_reboot>
    9a80:	e58d5000 	str	r5, [sp]
    9a84:	e3a0303e 	mov	r3, #62, 0	; 0x3e
    9a88:	e59f20f8 	ldr	r2, [pc, #248]	; 9b88 <vprintk+0x2a8>
    9a8c:	e59f10f8 	ldr	r1, [pc, #248]	; 9b8c <vprintk+0x2ac>
    9a90:	e59f00f8 	ldr	r0, [pc, #248]	; 9b90 <vprintk+0x2b0>
    9a94:	ebffff42 	bl	97a4 <printk>
    9a98:	eb00004a 	bl	9bc8 <clean_reboot>
    9a9c:	e3a00010 	mov	r0, #16, 0
    9aa0:	ebffff4a 	bl	97d0 <emit_val>
    9aa4:	eaffffe9 	b	9a50 <vprintk+0x170>
    9aa8:	e59f40d4 	ldr	r4, [pc, #212]	; 9b84 <vprintk+0x2a4>
    9aac:	e5943000 	ldr	r3, [r4]
    9ab0:	e3a00030 	mov	r0, #48, 0	; 0x30
    9ab4:	e12fff33 	blx	r3
    9ab8:	e5943000 	ldr	r3, [r4]
    9abc:	e3a00078 	mov	r0, #120, 0	; 0x78
    9ac0:	e12fff33 	blx	r3
    9ac4:	e59d300c 	ldr	r3, [sp, #12]
    9ac8:	e2832004 	add	r2, r3, #4, 0
    9acc:	e58d200c 	str	r2, [sp, #12]
    9ad0:	e5931000 	ldr	r1, [r3]
    9ad4:	e3a00010 	mov	r0, #16, 0
    9ad8:	ebffff3c 	bl	97d0 <emit_val>
    9adc:	e1a04005 	mov	r4, r5
    9ae0:	eaffff86 	b	9900 <vprintk+0x20>
    9ae4:	e59d300c 	ldr	r3, [sp, #12]
    9ae8:	e2832004 	add	r2, r3, #4, 0
    9aec:	e58d200c 	str	r2, [sp, #12]
    9af0:	e5934000 	ldr	r4, [r3]
    9af4:	e3540000 	cmp	r4, #0, 0
    9af8:	ba000004 	blt	9b10 <vprintk+0x230>
    9afc:	e1a01004 	mov	r1, r4
    9b00:	e3a0000a 	mov	r0, #10, 0
    9b04:	ebffff31 	bl	97d0 <emit_val>
    9b08:	e1a04005 	mov	r4, r5
    9b0c:	eaffff7b 	b	9900 <vprintk+0x20>
    9b10:	e59f306c 	ldr	r3, [pc, #108]	; 9b84 <vprintk+0x2a4>
    9b14:	e5933000 	ldr	r3, [r3]
    9b18:	e3a0002d 	mov	r0, #45, 0	; 0x2d
    9b1c:	e12fff33 	blx	r3
    9b20:	e2644000 	rsb	r4, r4, #0, 0
    9b24:	eafffff4 	b	9afc <vprintk+0x21c>
    9b28:	e59d300c 	ldr	r3, [sp, #12]
    9b2c:	e2832004 	add	r2, r3, #4, 0
    9b30:	e58d200c 	str	r2, [sp, #12]
    9b34:	e5934000 	ldr	r4, [r3]
    9b38:	e5d40000 	ldrb	r0, [r4]
    9b3c:	e3500000 	cmp	r0, #0, 0
    9b40:	0a000004 	beq	9b58 <vprintk+0x278>
    9b44:	e59f3038 	ldr	r3, [pc, #56]	; 9b84 <vprintk+0x2a4>
    9b48:	e5933000 	ldr	r3, [r3]
    9b4c:	e12fff33 	blx	r3
    9b50:	e2844001 	add	r4, r4, #1, 0
    9b54:	eafffff7 	b	9b38 <vprintk+0x258>
    9b58:	e1a04005 	mov	r4, r5
    9b5c:	eaffff67 	b	9900 <vprintk+0x20>
    9b60:	e58d2000 	str	r2, [sp]
    9b64:	e3a03062 	mov	r3, #98, 0	; 0x62
    9b68:	e59f2018 	ldr	r2, [pc, #24]	; 9b88 <vprintk+0x2a8>
    9b6c:	e59f1018 	ldr	r1, [pc, #24]	; 9b8c <vprintk+0x2ac>
    9b70:	e59f001c 	ldr	r0, [pc, #28]	; 9b94 <vprintk+0x2b4>
    9b74:	ebffff0a 	bl	97a4 <printk>
    9b78:	eb000012 	bl	9bc8 <clean_reboot>
    9b7c:	e28dd014 	add	sp, sp, #20, 0
    9b80:	e8bd8030 	pop	{r4, r5, pc}
    9b84:	0000a664 	.word	0x0000a664
    9b88:	0000a5a8 	.word	0x0000a5a8
    9b8c:	0000a4e4 	.word	0x0000a4e4
    9b90:	0000a53c 	.word	0x0000a53c
    9b94:	0000a574 	.word	0x0000a574

00009b98 <default_putchar>:
    9b98:	e92d4010 	push	{r4, lr}
    9b9c:	e1a04000 	mov	r4, r0
    9ba0:	e6ef0070 	uxtb	r0, r0
    9ba4:	eb0000b8 	bl	9e8c <uart_put8>
    9ba8:	e1a00004 	mov	r0, r4
    9bac:	e8bd8010 	pop	{r4, pc}

00009bb0 <rpi_putchar_set>:
    9bb0:	e59f300c 	ldr	r3, [pc, #12]	; 9bc4 <rpi_putchar_set+0x14>
    9bb4:	e5932000 	ldr	r2, [r3]
    9bb8:	e5830000 	str	r0, [r3]
    9bbc:	e1a00002 	mov	r0, r2
    9bc0:	e12fff1e 	bx	lr
    9bc4:	0000a664 	.word	0x0000a664

00009bc8 <clean_reboot>:
    9bc8:	e92d4010 	push	{r4, lr}
    9bcc:	e59f0010 	ldr	r0, [pc, #16]	; 9be4 <clean_reboot+0x1c>
    9bd0:	eb0000e3 	bl	9f64 <putk>
    9bd4:	eb0000d0 	bl	9f1c <uart_flush_tx>
    9bd8:	e3a0000a 	mov	r0, #10, 0
    9bdc:	eb00005d 	bl	9d58 <delay_ms>
    9be0:	eb000039 	bl	9ccc <rpi_reboot>
    9be4:	0000a5b0 	.word	0x0000a5b0

00009be8 <program_end>:
    9be8:	e59f0000 	ldr	r0, [pc]	; 9bf0 <program_end+0x8>
    9bec:	e12fff1e 	bx	lr
    9bf0:	0000ae98 	.word	0x0000ae98

00009bf4 <_cstart>:
    9bf4:	e92d4030 	push	{r4, r5, lr}
    9bf8:	e24dd00c 	sub	sp, sp, #12, 0
    9bfc:	e59f3098 	ldr	r3, [pc, #152]	; 9c9c <_cstart+0xa8>
    9c00:	e59f2098 	ldr	r2, [pc, #152]	; 9ca0 <_cstart+0xac>
    9c04:	e1530002 	cmp	r3, r2
    9c08:	33a02000 	movcc	r2, #0, 0
    9c0c:	34c32001 	strbcc	r2, [r3], #1
    9c10:	3afffffa 	bcc	9c00 <_cstart+0xc>
    9c14:	eb00005b 	bl	9d88 <uart_init>
    9c18:	e3a03001 	mov	r3, #1, 0
    9c1c:	ee0f3f1c 	mcr	15, 0, r3, cr15, cr12, {0}
    9c20:	e3a02a01 	mov	r2, #4096	; 0x1000
    9c24:	e3a01000 	mov	r1, #0, 0
    9c28:	e1a00001 	mov	r0, r1
    9c2c:	ebfffeb4 	bl	9704 <memset>
    9c30:	e3a04000 	mov	r4, #0, 0
    9c34:	e1a05004 	mov	r5, r4
    9c38:	ea000005 	b	9c54 <_cstart+0x60>
    9c3c:	e2855001 	add	r5, r5, #1, 0
    9c40:	e5912000 	ldr	r2, [r1]
    9c44:	e1a03005 	mov	r3, r5
    9c48:	e59f0054 	ldr	r0, [pc, #84]	; 9ca4 <_cstart+0xb0>
    9c4c:	ebfffed4 	bl	97a4 <printk>
    9c50:	e2844001 	add	r4, r4, #1, 0
    9c54:	e3540b01 	cmp	r4, #1024	; 0x400
    9c58:	2a000004 	bcs	9c70 <_cstart+0x7c>
    9c5c:	e1a01104 	lsl	r1, r4, #2
    9c60:	e5913000 	ldr	r3, [r1]
    9c64:	e3530000 	cmp	r3, #0, 0
    9c68:	0afffff8 	beq	9c50 <_cstart+0x5c>
    9c6c:	eafffff2 	b	9c3c <_cstart+0x48>
    9c70:	e3550000 	cmp	r5, #0, 0
    9c74:	1a000001 	bne	9c80 <_cstart+0x8c>
    9c78:	ebfffb7e 	bl	8a78 <notmain>
    9c7c:	ebffffd1 	bl	9bc8 <clean_reboot>
    9c80:	e58d5000 	str	r5, [sp]
    9c84:	e3a0301b 	mov	r3, #27, 0
    9c88:	e59f2018 	ldr	r2, [pc, #24]	; 9ca8 <_cstart+0xb4>
    9c8c:	e59f1018 	ldr	r1, [pc, #24]	; 9cac <_cstart+0xb8>
    9c90:	e59f0018 	ldr	r0, [pc, #24]	; 9cb0 <_cstart+0xbc>
    9c94:	ebfffec2 	bl	97a4 <printk>
    9c98:	ebffffca 	bl	9bc8 <clean_reboot>
    9c9c:	0000a668 	.word	0x0000a668
    9ca0:	0000ae98 	.word	0x0000ae98
    9ca4:	0000a5bc 	.word	0x0000a5bc
    9ca8:	0000a654 	.word	0x0000a654
    9cac:	0000a5e8 	.word	0x0000a5e8
    9cb0:	0000a624 	.word	0x0000a624

00009cb4 <dev_barrier>:
    9cb4:	ea000002 	b	9cc4 <dsb>

00009cb8 <dmb>:
    9cb8:	e3a00000 	mov	r0, #0, 0
    9cbc:	ee070fba 	mcr	15, 0, r0, cr7, cr10, {5}
    9cc0:	e12fff1e 	bx	lr

00009cc4 <dsb>:
    9cc4:	ee070f9a 	mcr	15, 0, r0, cr7, cr10, {4}
    9cc8:	e12fff1e 	bx	lr

00009ccc <rpi_reboot>:
    9ccc:	e92d4010 	push	{r4, lr}
    9cd0:	e3a0000a 	mov	r0, #10, 0
    9cd4:	eb00001f 	bl	9d58 <delay_ms>
    9cd8:	e59f1014 	ldr	r1, [pc, #20]	; 9cf4 <rpi_reboot+0x28>
    9cdc:	e59f0014 	ldr	r0, [pc, #20]	; 9cf8 <rpi_reboot+0x2c>
    9ce0:	ebfff8cf 	bl	8024 <PUT32>
    9ce4:	e59f1010 	ldr	r1, [pc, #16]	; 9cfc <rpi_reboot+0x30>
    9ce8:	e59f0010 	ldr	r0, [pc, #16]	; 9d00 <rpi_reboot+0x34>
    9cec:	ebfff8cc 	bl	8024 <PUT32>
    9cf0:	eafffffe 	b	9cf0 <rpi_reboot+0x24>
    9cf4:	5a000001 	.word	0x5a000001
    9cf8:	20100024 	.word	0x20100024
    9cfc:	5a000020 	.word	0x5a000020
    9d00:	2010001c 	.word	0x2010001c

00009d04 <timer_get_usec_raw>:
    9d04:	e92d4010 	push	{r4, lr}
    9d08:	e59f0004 	ldr	r0, [pc, #4]	; 9d14 <timer_get_usec_raw+0x10>
    9d0c:	ebfff8c6 	bl	802c <GET32>
    9d10:	e8bd8010 	pop	{r4, pc}
    9d14:	20003004 	.word	0x20003004

00009d18 <timer_get_usec>:
    9d18:	e92d4010 	push	{r4, lr}
    9d1c:	ebffffe4 	bl	9cb4 <dev_barrier>
    9d20:	ebfffff7 	bl	9d04 <timer_get_usec_raw>
    9d24:	e1a04000 	mov	r4, r0
    9d28:	ebffffe1 	bl	9cb4 <dev_barrier>
    9d2c:	e1a00004 	mov	r0, r4
    9d30:	e8bd8010 	pop	{r4, pc}

00009d34 <delay_us>:
    9d34:	e92d4070 	push	{r4, r5, r6, lr}
    9d38:	e1a05000 	mov	r5, r0
    9d3c:	ebfffff5 	bl	9d18 <timer_get_usec>
    9d40:	e1a04000 	mov	r4, r0
    9d44:	ebfffff3 	bl	9d18 <timer_get_usec>
    9d48:	e0400004 	sub	r0, r0, r4
    9d4c:	e1500005 	cmp	r0, r5
    9d50:	3afffffb 	bcc	9d44 <delay_us+0x10>
    9d54:	e8bd8070 	pop	{r4, r5, r6, pc}

00009d58 <delay_ms>:
    9d58:	e92d4010 	push	{r4, lr}
    9d5c:	e0603280 	rsb	r3, r0, r0, lsl #5
    9d60:	e0800103 	add	r0, r0, r3, lsl #2
    9d64:	e1a00180 	lsl	r0, r0, #3
    9d68:	ebfffff1 	bl	9d34 <delay_us>
    9d6c:	e8bd8010 	pop	{r4, pc}

00009d70 <delay_sec>:
    9d70:	e92d4010 	push	{r4, lr}
    9d74:	e0603280 	rsb	r3, r0, r0, lsl #5
    9d78:	e0800103 	add	r0, r0, r3, lsl #2
    9d7c:	e1a00180 	lsl	r0, r0, #3
    9d80:	ebfffff4 	bl	9d58 <delay_ms>
    9d84:	e8bd8010 	pop	{r4, pc}

00009d88 <uart_init>:
    9d88:	e92d4010 	push	{r4, lr}
    9d8c:	ebffffc8 	bl	9cb4 <dev_barrier>
    9d90:	e3a01002 	mov	r1, #2, 0
    9d94:	e3a0000e 	mov	r0, #14, 0
    9d98:	ebfffde7 	bl	953c <gpio_set_function>
    9d9c:	e3a01002 	mov	r1, #2, 0
    9da0:	e3a0000f 	mov	r0, #15, 0
    9da4:	ebfffde4 	bl	953c <gpio_set_function>
    9da8:	ebffffc1 	bl	9cb4 <dev_barrier>
    9dac:	e59f4074 	ldr	r4, [pc, #116]	; 9e28 <uart_init+0xa0>
    9db0:	e1a00004 	mov	r0, r4
    9db4:	ebfff89c 	bl	802c <GET32>
    9db8:	e3801001 	orr	r1, r0, #1, 0
    9dbc:	e1a00004 	mov	r0, r4
    9dc0:	ebfff897 	bl	8024 <PUT32>
    9dc4:	ebffffba 	bl	9cb4 <dev_barrier>
    9dc8:	e284405c 	add	r4, r4, #92, 0	; 0x5c
    9dcc:	e3a01000 	mov	r1, #0, 0
    9dd0:	e1a00004 	mov	r0, r4
    9dd4:	ebfff892 	bl	8024 <PUT32>
    9dd8:	e3a01000 	mov	r1, #0, 0
    9ddc:	e59f0048 	ldr	r0, [pc, #72]	; 9e2c <uart_init+0xa4>
    9de0:	ebfff88f 	bl	8024 <PUT32>
    9de4:	e3a01006 	mov	r1, #6, 0
    9de8:	e59f0040 	ldr	r0, [pc, #64]	; 9e30 <uart_init+0xa8>
    9dec:	ebfff88c 	bl	8024 <PUT32>
    9df0:	e3a01003 	mov	r1, #3, 0
    9df4:	e59f0038 	ldr	r0, [pc, #56]	; 9e34 <uart_init+0xac>
    9df8:	ebfff889 	bl	8024 <PUT32>
    9dfc:	e3a01000 	mov	r1, #0, 0
    9e00:	e59f0030 	ldr	r0, [pc, #48]	; 9e38 <uart_init+0xb0>
    9e04:	ebfff886 	bl	8024 <PUT32>
    9e08:	e59f102c 	ldr	r1, [pc, #44]	; 9e3c <uart_init+0xb4>
    9e0c:	e59f002c 	ldr	r0, [pc, #44]	; 9e40 <uart_init+0xb8>
    9e10:	ebfff883 	bl	8024 <PUT32>
    9e14:	e3a01003 	mov	r1, #3, 0
    9e18:	e1a00004 	mov	r0, r4
    9e1c:	ebfff880 	bl	8024 <PUT32>
    9e20:	ebffffa3 	bl	9cb4 <dev_barrier>
    9e24:	e8bd8010 	pop	{r4, pc}
    9e28:	20215004 	.word	0x20215004
    9e2c:	20215044 	.word	0x20215044
    9e30:	20215048 	.word	0x20215048
    9e34:	2021504c 	.word	0x2021504c
    9e38:	20215050 	.word	0x20215050
    9e3c:	0000010e 	.word	0x0000010e
    9e40:	20215068 	.word	0x20215068

00009e44 <uart_tx_is_empty>:
    9e44:	e92d4010 	push	{r4, lr}
    9e48:	ebffff99 	bl	9cb4 <dev_barrier>
    9e4c:	e59f0014 	ldr	r0, [pc, #20]	; 9e68 <uart_tx_is_empty+0x24>
    9e50:	ebfff875 	bl	802c <GET32>
    9e54:	e1a04320 	lsr	r4, r0, #6
    9e58:	e2044001 	and	r4, r4, #1, 0
    9e5c:	ebffff94 	bl	9cb4 <dev_barrier>
    9e60:	e1a00004 	mov	r0, r4
    9e64:	e8bd8010 	pop	{r4, pc}
    9e68:	20215054 	.word	0x20215054

00009e6c <uart_can_put8>:
    9e6c:	e92d4010 	push	{r4, lr}
    9e70:	ebffff8f 	bl	9cb4 <dev_barrier>
    9e74:	e59f000c 	ldr	r0, [pc, #12]	; 9e88 <uart_can_put8+0x1c>
    9e78:	ebfff86b 	bl	802c <GET32>
    9e7c:	e1a002a0 	lsr	r0, r0, #5
    9e80:	e2000001 	and	r0, r0, #1, 0
    9e84:	e8bd8010 	pop	{r4, pc}
    9e88:	20215054 	.word	0x20215054

00009e8c <uart_put8>:
    9e8c:	e92d4010 	push	{r4, lr}
    9e90:	e1a04000 	mov	r4, r0
    9e94:	ebfffff4 	bl	9e6c <uart_can_put8>
    9e98:	e3500000 	cmp	r0, #0, 0
    9e9c:	0afffffc 	beq	9e94 <uart_put8+0x8>
    9ea0:	e1a01004 	mov	r1, r4
    9ea4:	e59f000c 	ldr	r0, [pc, #12]	; 9eb8 <uart_put8+0x2c>
    9ea8:	ebfff85d 	bl	8024 <PUT32>
    9eac:	ebffff80 	bl	9cb4 <dev_barrier>
    9eb0:	e3a00001 	mov	r0, #1, 0
    9eb4:	e8bd8010 	pop	{r4, pc}
    9eb8:	20215040 	.word	0x20215040

00009ebc <uart_has_data>:
    9ebc:	e92d4010 	push	{r4, lr}
    9ec0:	e59f0008 	ldr	r0, [pc, #8]	; 9ed0 <uart_has_data+0x14>
    9ec4:	ebfff858 	bl	802c <GET32>
    9ec8:	e2000001 	and	r0, r0, #1, 0
    9ecc:	e8bd8010 	pop	{r4, pc}
    9ed0:	20215054 	.word	0x20215054

00009ed4 <uart_get8>:
    9ed4:	e92d4010 	push	{r4, lr}
    9ed8:	ebffff75 	bl	9cb4 <dev_barrier>
    9edc:	ebfffff6 	bl	9ebc <uart_has_data>
    9ee0:	e3500000 	cmp	r0, #0, 0
    9ee4:	0afffffc 	beq	9edc <uart_get8+0x8>
    9ee8:	e59f0008 	ldr	r0, [pc, #8]	; 9ef8 <uart_get8+0x24>
    9eec:	ebfff84e 	bl	802c <GET32>
    9ef0:	e6ef0070 	uxtb	r0, r0
    9ef4:	e8bd8010 	pop	{r4, pc}
    9ef8:	20215040 	.word	0x20215040

00009efc <uart_get8_async>:
    9efc:	e92d4010 	push	{r4, lr}
    9f00:	ebffffed 	bl	9ebc <uart_has_data>
    9f04:	e3500000 	cmp	r0, #0, 0
    9f08:	0a000001 	beq	9f14 <uart_get8_async+0x18>
    9f0c:	ebfffff0 	bl	9ed4 <uart_get8>
    9f10:	e8bd8010 	pop	{r4, pc}
    9f14:	e3e00000 	mvn	r0, #0, 0
    9f18:	e8bd8010 	pop	{r4, pc}

00009f1c <uart_flush_tx>:
    9f1c:	e92d4010 	push	{r4, lr}
    9f20:	ebffffc7 	bl	9e44 <uart_tx_is_empty>
    9f24:	e3500000 	cmp	r0, #0, 0
    9f28:	18bd8010 	popne	{r4, pc}
    9f2c:	eb000019 	bl	9f98 <rpi_wait>
    9f30:	eafffffa 	b	9f20 <uart_flush_tx+0x4>

00009f34 <uart_disable>:
    9f34:	e92d4010 	push	{r4, lr}
    9f38:	ebffff5d 	bl	9cb4 <dev_barrier>
    9f3c:	ebfffff6 	bl	9f1c <uart_flush_tx>
    9f40:	e59f4018 	ldr	r4, [pc, #24]	; 9f60 <uart_disable+0x2c>
    9f44:	e1a00004 	mov	r0, r4
    9f48:	ebfff837 	bl	802c <GET32>
    9f4c:	e3c01001 	bic	r1, r0, #1, 0
    9f50:	e1a00004 	mov	r0, r4
    9f54:	ebfff832 	bl	8024 <PUT32>
    9f58:	ebffff55 	bl	9cb4 <dev_barrier>
    9f5c:	e8bd8010 	pop	{r4, pc}
    9f60:	20215004 	.word	0x20215004

00009f64 <putk>:
    9f64:	e92d4010 	push	{r4, lr}
    9f68:	e1a04000 	mov	r4, r0
    9f6c:	e5d40000 	ldrb	r0, [r4]
    9f70:	e3500000 	cmp	r0, #0, 0
    9f74:	0a000004 	beq	9f8c <putk+0x28>
    9f78:	e59f3014 	ldr	r3, [pc, #20]	; 9f94 <putk+0x30>
    9f7c:	e5933000 	ldr	r3, [r3]
    9f80:	e12fff33 	blx	r3
    9f84:	e2844001 	add	r4, r4, #1, 0
    9f88:	eafffff7 	b	9f6c <putk+0x8>
    9f8c:	e3a00001 	mov	r0, #1, 0
    9f90:	e8bd8010 	pop	{r4, pc}
    9f94:	0000a664 	.word	0x0000a664

00009f98 <rpi_wait>:
    9f98:	e12fff1e 	bx	lr

00009f9c <__code_end__>:
    9f9c:	00000000 	andeq	r0, r0, r0
