
objs/1-test-fat-laptop.elf:     file format elf32-littlearm


Disassembly of section .text:

00008000 <__code_start__>:
    8000:	e3a00013 	mov	r0, #19, 0
    8004:	e3800080 	orr	r0, r0, #128, 0	; 0x80
    8008:	e129f000 	msr	CPSR_fc, r0
    800c:	e3a01000 	mov	r1, #0, 0
    8010:	ee071f95 	mcr	15, 0, r1, cr7, cr5, {4}
    8014:	e3a0d302 	mov	sp, #134217728	; 0x8000000
    8018:	e3a0b000 	mov	fp, #0, 0
    801c:	eb001e24 	bl	f8b4 <_cstart>
    8020:	eb001e59 	bl	f98c <rpi_reboot>

00008024 <PUT32>:
    8024:	e5801000 	str	r1, [r0]
    8028:	e12fff1e 	bx	lr

0000802c <GET32>:
    802c:	e5900000 	ldr	r0, [r0]
    8030:	e12fff1e 	bx	lr

00008034 <BRANCHTO>:
    8034:	e12fff10 	bx	r0

00008038 <abs16>:
    8038:	e3500000 	cmp	r0, #0, 0
    803c:	b2600000 	rsblt	r0, r0, #0, 0
    8040:	e6bf0070 	sxth	r0, r0
    8044:	e12fff1e 	bx	lr

00008048 <min>:
    8048:	e1500001 	cmp	r0, r1
    804c:	312fff1e 	bxcc	lr
    8050:	e1a00001 	mov	r0, r1
    8054:	e12fff1e 	bx	lr

00008058 <display_data>:
    8058:	e92d4070 	push	{r4, r5, r6, lr}
    805c:	e1a02001 	mov	r2, r1
    8060:	e2814001 	add	r4, r1, #1, 0
    8064:	e59f1040 	ldr	r1, [pc, #64]	; 80ac <display_data+0x54>
    8068:	e1540001 	cmp	r4, r1
    806c:	8a00000b 	bhi	80a0 <display_data+0x48>
    8070:	e1a03000 	mov	r3, r0
    8074:	e59f5034 	ldr	r5, [pc, #52]	; 80b0 <display_data+0x58>
    8078:	e1a00005 	mov	r0, r5
    807c:	e3a01040 	mov	r1, #64, 0	; 0x40
    8080:	e4c01001 	strb	r1, [r0], #1
    8084:	e1a01003 	mov	r1, r3
    8088:	eb001c6f 	bl	f24c <memcpy>
    808c:	e1a02004 	mov	r2, r4
    8090:	e1a01005 	mov	r1, r5
    8094:	e3a0003c 	mov	r0, #60, 0	; 0x3c
    8098:	eb001ada 	bl	ec08 <i2c_write>
    809c:	e8bd8070 	pop	{r4, r5, r6, pc}
    80a0:	e59f000c 	ldr	r0, [pc, #12]	; 80b4 <display_data+0x5c>
    80a4:	eb001cc7 	bl	f3c8 <printk>
    80a8:	e8bd8070 	pop	{r4, r5, r6, pc}
    80ac:	00000401 	.word	0x00000401
    80b0:	00012a18 	.word	0x00012a18
    80b4:	0000fc80 	.word	0x0000fc80

000080b8 <display_command>:
    80b8:	e52de004 	push	{lr}		; (str lr, [sp, #-4]!)
    80bc:	e24dd00c 	sub	sp, sp, #12, 0
    80c0:	e3a03000 	mov	r3, #0, 0
    80c4:	e5cd3004 	strb	r3, [sp, #4]
    80c8:	e5cd0005 	strb	r0, [sp, #5]
    80cc:	e3a02002 	mov	r2, #2, 0
    80d0:	e28d1004 	add	r1, sp, #4, 0
    80d4:	e3a0003c 	mov	r0, #60, 0	; 0x3c
    80d8:	eb001aca 	bl	ec08 <i2c_write>
    80dc:	e28dd00c 	add	sp, sp, #12, 0
    80e0:	e49df004 	pop	{pc}		; (ldr pc, [sp], #4)

000080e4 <display_clear>:
    80e4:	e92d4010 	push	{r4, lr}
    80e8:	e3a02b01 	mov	r2, #1024	; 0x400
    80ec:	e3a01000 	mov	r1, #0, 0
    80f0:	e59f0004 	ldr	r0, [pc, #4]	; 80fc <display_clear+0x18>
    80f4:	eb001c8b 	bl	f328 <memset>
    80f8:	e8bd8010 	pop	{r4, pc}
    80fc:	00012e1c 	.word	0x00012e1c

00008100 <display_update>:
    8100:	e92d4010 	push	{r4, lr}
    8104:	e3a00021 	mov	r0, #33, 0	; 0x21
    8108:	ebffffea 	bl	80b8 <display_command>
    810c:	e3a00000 	mov	r0, #0, 0
    8110:	ebffffe8 	bl	80b8 <display_command>
    8114:	e3a0007f 	mov	r0, #127, 0	; 0x7f
    8118:	ebffffe6 	bl	80b8 <display_command>
    811c:	e3a00022 	mov	r0, #34, 0	; 0x22
    8120:	ebffffe4 	bl	80b8 <display_command>
    8124:	e3a00000 	mov	r0, #0, 0
    8128:	ebffffe2 	bl	80b8 <display_command>
    812c:	e3a00007 	mov	r0, #7, 0
    8130:	ebffffe0 	bl	80b8 <display_command>
    8134:	e3a01b01 	mov	r1, #1024	; 0x400
    8138:	e59f0004 	ldr	r0, [pc, #4]	; 8144 <display_update+0x44>
    813c:	ebffffc5 	bl	8058 <display_data>
    8140:	e8bd8010 	pop	{r4, pc}
    8144:	00012e1c 	.word	0x00012e1c

00008148 <display_init>:
    8148:	e92d4010 	push	{r4, lr}
    814c:	eb001b7c 	bl	ef44 <i2c_init>
    8150:	e59f00ec 	ldr	r0, [pc, #236]	; 8244 <display_init+0xfc>
    8154:	eb001c9b 	bl	f3c8 <printk>
    8158:	e3a00064 	mov	r0, #100, 0	; 0x64
    815c:	eb001e2d 	bl	fa18 <delay_ms>
    8160:	e3a000ae 	mov	r0, #174, 0	; 0xae
    8164:	ebffffd3 	bl	80b8 <display_command>
    8168:	e3a000d5 	mov	r0, #213, 0	; 0xd5
    816c:	ebffffd1 	bl	80b8 <display_command>
    8170:	e3a00080 	mov	r0, #128, 0	; 0x80
    8174:	ebffffcf 	bl	80b8 <display_command>
    8178:	e3a000a8 	mov	r0, #168, 0	; 0xa8
    817c:	ebffffcd 	bl	80b8 <display_command>
    8180:	e3a0003f 	mov	r0, #63, 0	; 0x3f
    8184:	ebffffcb 	bl	80b8 <display_command>
    8188:	e3a000d3 	mov	r0, #211, 0	; 0xd3
    818c:	ebffffc9 	bl	80b8 <display_command>
    8190:	e3a00000 	mov	r0, #0, 0
    8194:	ebffffc7 	bl	80b8 <display_command>
    8198:	e3a00040 	mov	r0, #64, 0	; 0x40
    819c:	ebffffc5 	bl	80b8 <display_command>
    81a0:	e3a0008d 	mov	r0, #141, 0	; 0x8d
    81a4:	ebffffc3 	bl	80b8 <display_command>
    81a8:	e3a00014 	mov	r0, #20, 0
    81ac:	ebffffc1 	bl	80b8 <display_command>
    81b0:	e3a00020 	mov	r0, #32, 0
    81b4:	ebffffbf 	bl	80b8 <display_command>
    81b8:	e3a00000 	mov	r0, #0, 0
    81bc:	ebffffbd 	bl	80b8 <display_command>
    81c0:	e3a000a1 	mov	r0, #161, 0	; 0xa1
    81c4:	ebffffbb 	bl	80b8 <display_command>
    81c8:	e3a000c8 	mov	r0, #200, 0	; 0xc8
    81cc:	ebffffb9 	bl	80b8 <display_command>
    81d0:	e3a000da 	mov	r0, #218, 0	; 0xda
    81d4:	ebffffb7 	bl	80b8 <display_command>
    81d8:	e3a00012 	mov	r0, #18, 0
    81dc:	ebffffb5 	bl	80b8 <display_command>
    81e0:	e3a00081 	mov	r0, #129, 0	; 0x81
    81e4:	ebffffb3 	bl	80b8 <display_command>
    81e8:	e3a000cf 	mov	r0, #207, 0	; 0xcf
    81ec:	ebffffb1 	bl	80b8 <display_command>
    81f0:	e3a000d9 	mov	r0, #217, 0	; 0xd9
    81f4:	ebffffaf 	bl	80b8 <display_command>
    81f8:	e3a000f1 	mov	r0, #241, 0	; 0xf1
    81fc:	ebffffad 	bl	80b8 <display_command>
    8200:	e3a000db 	mov	r0, #219, 0	; 0xdb
    8204:	ebffffab 	bl	80b8 <display_command>
    8208:	e3a00040 	mov	r0, #64, 0	; 0x40
    820c:	ebffffa9 	bl	80b8 <display_command>
    8210:	e3a000a4 	mov	r0, #164, 0	; 0xa4
    8214:	ebffffa7 	bl	80b8 <display_command>
    8218:	e3a000a6 	mov	r0, #166, 0	; 0xa6
    821c:	ebffffa5 	bl	80b8 <display_command>
    8220:	e3a0002e 	mov	r0, #46, 0	; 0x2e
    8224:	ebffffa3 	bl	80b8 <display_command>
    8228:	e3a000af 	mov	r0, #175, 0	; 0xaf
    822c:	ebffffa1 	bl	80b8 <display_command>
    8230:	ebffffab 	bl	80e4 <display_clear>
    8234:	ebffffb1 	bl	8100 <display_update>
    8238:	e59f0008 	ldr	r0, [pc, #8]	; 8248 <display_init+0x100>
    823c:	eb001c61 	bl	f3c8 <printk>
    8240:	e8bd8010 	pop	{r4, pc}
    8244:	0000fca4 	.word	0x0000fca4
    8248:	0000fccc 	.word	0x0000fccc

0000824c <display_set_pixel>:
    824c:	e6ff0070 	uxth	r0, r0
    8250:	e1a03fa1 	lsr	r3, r1, #31
    8254:	e350007f 	cmp	r0, #127, 0	; 0x7f
    8258:	83833001 	orrhi	r3, r3, #1, 0
    825c:	e3530000 	cmp	r3, #0, 0
    8260:	112fff1e 	bxne	lr
    8264:	e351003f 	cmp	r1, #63, 0	; 0x3f
    8268:	c12fff1e 	bxgt	lr
    826c:	e2813007 	add	r3, r1, #7, 0
    8270:	e3510000 	cmp	r1, #0, 0
    8274:	a1a03001 	movge	r3, r1
    8278:	e1a031c3 	asr	r3, r3, #3
    827c:	e1a03383 	lsl	r3, r3, #7
    8280:	e6ff3073 	uxth	r3, r3
    8284:	e0800003 	add	r0, r0, r3
    8288:	e6ff0070 	uxth	r0, r0
    828c:	e2713000 	rsbs	r3, r1, #0, 0
    8290:	e2011007 	and	r1, r1, #7, 0
    8294:	e2033007 	and	r3, r3, #7, 0
    8298:	52631000 	rsbpl	r1, r3, #0, 0
    829c:	e6ef1071 	uxtb	r1, r1
    82a0:	e3520001 	cmp	r2, #1, 0
    82a4:	0a000008 	beq	82cc <display_set_pixel+0x80>
    82a8:	e3520000 	cmp	r2, #0, 0
    82ac:	1a00000c 	bne	82e4 <display_set_pixel+0x98>
    82b0:	e59f3050 	ldr	r3, [pc, #80]	; 8308 <display_set_pixel+0xbc>
    82b4:	e0830000 	add	r0, r3, r0
    82b8:	e5d03404 	ldrb	r3, [r0, #1028]	; 0x404
    82bc:	e3a02001 	mov	r2, #1, 0
    82c0:	e1c31112 	bic	r1, r3, r2, lsl r1
    82c4:	e5c01404 	strb	r1, [r0, #1028]	; 0x404
    82c8:	e12fff1e 	bx	lr
    82cc:	e59f3034 	ldr	r3, [pc, #52]	; 8308 <display_set_pixel+0xbc>
    82d0:	e0830000 	add	r0, r3, r0
    82d4:	e5d03404 	ldrb	r3, [r0, #1028]	; 0x404
    82d8:	e1831112 	orr	r1, r3, r2, lsl r1
    82dc:	e5c01404 	strb	r1, [r0, #1028]	; 0x404
    82e0:	e12fff1e 	bx	lr
    82e4:	e3520002 	cmp	r2, #2, 0
    82e8:	112fff1e 	bxne	lr
    82ec:	e59f3014 	ldr	r3, [pc, #20]	; 8308 <display_set_pixel+0xbc>
    82f0:	e0830000 	add	r0, r3, r0
    82f4:	e5d03404 	ldrb	r3, [r0, #1028]	; 0x404
    82f8:	e3a02001 	mov	r2, #1, 0
    82fc:	e0231112 	eor	r1, r3, r2, lsl r1
    8300:	e5c01404 	strb	r1, [r0, #1028]	; 0x404
    8304:	e12fff1e 	bx	lr
    8308:	00012a18 	.word	0x00012a18

0000830c <display_draw_line>:
    830c:	e92d4ff0 	push	{r4, r5, r6, r7, r8, r9, sl, fp, lr}
    8310:	e24dd00c 	sub	sp, sp, #12, 0
    8314:	e1a04000 	mov	r4, r0
    8318:	e58d0000 	str	r0, [sp]
    831c:	e1a07001 	mov	r7, r1
    8320:	e1a06002 	mov	r6, r2
    8324:	e1a05003 	mov	r5, r3
    8328:	e5ddb030 	ldrb	fp, [sp, #48]	; 0x30
    832c:	e0430001 	sub	r0, r3, r1
    8330:	e6bf0070 	sxth	r0, r0
    8334:	ebffff3f 	bl	8038 <abs16>
    8338:	e1a08000 	mov	r8, r0
    833c:	e0460004 	sub	r0, r6, r4
    8340:	e6bf0070 	sxth	r0, r0
    8344:	ebffff3b 	bl	8038 <abs16>
    8348:	e1a09000 	mov	r9, r0
    834c:	e1580000 	cmp	r8, r0
    8350:	ca000005 	bgt	836c <display_draw_line+0x60>
    8354:	e1a03005 	mov	r3, r5
    8358:	e1a05006 	mov	r5, r6
    835c:	e1a06003 	mov	r6, r3
    8360:	e1a03007 	mov	r3, r7
    8364:	e1a07004 	mov	r7, r4
    8368:	e58d3000 	str	r3, [sp]
    836c:	e1570005 	cmp	r7, r5
    8370:	ca000005 	bgt	838c <display_draw_line+0x80>
    8374:	e1a03006 	mov	r3, r6
    8378:	e59d6000 	ldr	r6, [sp]
    837c:	e58d3000 	str	r3, [sp]
    8380:	e1a03005 	mov	r3, r5
    8384:	e1a05007 	mov	r5, r7
    8388:	e1a07003 	mov	r7, r3
    838c:	e0474005 	sub	r4, r7, r5
    8390:	e6ff3074 	uxth	r3, r4
    8394:	e58d3004 	str	r3, [sp, #4]
    8398:	e6bf4074 	sxth	r4, r4
    839c:	e59d3000 	ldr	r3, [sp]
    83a0:	e0430006 	sub	r0, r3, r6
    83a4:	e6bf0070 	sxth	r0, r0
    83a8:	ebffff22 	bl	8038 <abs16>
    83ac:	e1a0a000 	mov	sl, r0
    83b0:	e0844fa4 	add	r4, r4, r4, lsr #31
    83b4:	e1a040c4 	asr	r4, r4, #1
    83b8:	e59d3000 	ldr	r3, [sp]
    83bc:	e1560003 	cmp	r6, r3
    83c0:	ba00001d 	blt	843c <display_draw_line+0x130>
    83c4:	e3e03000 	mvn	r3, #0, 0
    83c8:	e58d3000 	str	r3, [sp]
    83cc:	ea00000a 	b	83fc <display_draw_line+0xf0>
    83d0:	e1a0200b 	mov	r2, fp
    83d4:	e1a01006 	mov	r1, r6
    83d8:	e1a00005 	mov	r0, r5
    83dc:	ebffff9a 	bl	824c <display_set_pixel>
    83e0:	e044400a 	sub	r4, r4, sl
    83e4:	e6ff3074 	uxth	r3, r4
    83e8:	e6bf4074 	sxth	r4, r4
    83ec:	e3540000 	cmp	r4, #0, 0
    83f0:	ba00000a 	blt	8420 <display_draw_line+0x114>
    83f4:	e2855001 	add	r5, r5, #1, 0
    83f8:	e6bf5075 	sxth	r5, r5
    83fc:	e1550007 	cmp	r5, r7
    8400:	ca000010 	bgt	8448 <display_draw_line+0x13c>
    8404:	e1580009 	cmp	r8, r9
    8408:	dafffff0 	ble	83d0 <display_draw_line+0xc4>
    840c:	e1a0200b 	mov	r2, fp
    8410:	e1a01005 	mov	r1, r5
    8414:	e1a00006 	mov	r0, r6
    8418:	ebffff8b 	bl	824c <display_set_pixel>
    841c:	eaffffef 	b	83e0 <display_draw_line+0xd4>
    8420:	e59d2000 	ldr	r2, [sp]
    8424:	e0866002 	add	r6, r6, r2
    8428:	e6bf6076 	sxth	r6, r6
    842c:	e59d2004 	ldr	r2, [sp, #4]
    8430:	e0824003 	add	r4, r2, r3
    8434:	e6bf4074 	sxth	r4, r4
    8438:	eaffffed 	b	83f4 <display_draw_line+0xe8>
    843c:	e3a03001 	mov	r3, #1, 0
    8440:	e58d3000 	str	r3, [sp]
    8444:	eaffffec 	b	83fc <display_draw_line+0xf0>
    8448:	e28dd00c 	add	sp, sp, #12, 0
    844c:	e8bd8ff0 	pop	{r4, r5, r6, r7, r8, r9, sl, fp, pc}

00008450 <display_draw_rect>:
    8450:	e92d41f0 	push	{r4, r5, r6, r7, r8, lr}
    8454:	e24dd008 	sub	sp, sp, #8, 0
    8458:	e1a07000 	mov	r7, r0
    845c:	e1a06001 	mov	r6, r1
    8460:	e1a04003 	mov	r4, r3
    8464:	e5dd8020 	ldrb	r8, [sp, #32]
    8468:	e0805002 	add	r5, r0, r2
    846c:	e6ff5075 	uxth	r5, r5
    8470:	e2455001 	sub	r5, r5, #1, 0
    8474:	e6bf5075 	sxth	r5, r5
    8478:	e58d8000 	str	r8, [sp]
    847c:	e1a03001 	mov	r3, r1
    8480:	e1a02005 	mov	r2, r5
    8484:	ebffffa0 	bl	830c <display_draw_line>
    8488:	e0864004 	add	r4, r6, r4
    848c:	e6ff4074 	uxth	r4, r4
    8490:	e2444001 	sub	r4, r4, #1, 0
    8494:	e6bf4074 	sxth	r4, r4
    8498:	e58d8000 	str	r8, [sp]
    849c:	e1a03004 	mov	r3, r4
    84a0:	e1a02005 	mov	r2, r5
    84a4:	e1a01004 	mov	r1, r4
    84a8:	e1a00007 	mov	r0, r7
    84ac:	ebffff96 	bl	830c <display_draw_line>
    84b0:	e58d8000 	str	r8, [sp]
    84b4:	e1a03004 	mov	r3, r4
    84b8:	e1a02007 	mov	r2, r7
    84bc:	e1a01006 	mov	r1, r6
    84c0:	e1a00007 	mov	r0, r7
    84c4:	ebffff90 	bl	830c <display_draw_line>
    84c8:	e58d8000 	str	r8, [sp]
    84cc:	e1a03004 	mov	r3, r4
    84d0:	e1a02005 	mov	r2, r5
    84d4:	e1a01006 	mov	r1, r6
    84d8:	e1a00005 	mov	r0, r5
    84dc:	ebffff8a 	bl	830c <display_draw_line>
    84e0:	e28dd008 	add	sp, sp, #8, 0
    84e4:	e8bd81f0 	pop	{r4, r5, r6, r7, r8, pc}

000084e8 <display_fill_rect>:
    84e8:	e92d47f0 	push	{r4, r5, r6, r7, r8, r9, sl, lr}
    84ec:	e1a09000 	mov	r9, r0
    84f0:	e1a06001 	mov	r6, r1
    84f4:	e1a0a002 	mov	sl, r2
    84f8:	e1a07003 	mov	r7, r3
    84fc:	e5dd8020 	ldrb	r8, [sp, #32]
    8500:	e1a05000 	mov	r5, r0
    8504:	ea00000a 	b	8534 <display_fill_rect+0x4c>
    8508:	e1a02008 	mov	r2, r8
    850c:	e1a01004 	mov	r1, r4
    8510:	e1a00005 	mov	r0, r5
    8514:	ebffff4c 	bl	824c <display_set_pixel>
    8518:	e2844001 	add	r4, r4, #1, 0
    851c:	e6bf4074 	sxth	r4, r4
    8520:	e0863007 	add	r3, r6, r7
    8524:	e1540003 	cmp	r4, r3
    8528:	bafffff6 	blt	8508 <display_fill_rect+0x20>
    852c:	e2855001 	add	r5, r5, #1, 0
    8530:	e6bf5075 	sxth	r5, r5
    8534:	e089300a 	add	r3, r9, sl
    8538:	e1550003 	cmp	r5, r3
    853c:	a8bd87f0 	popge	{r4, r5, r6, r7, r8, r9, sl, pc}
    8540:	e1a04006 	mov	r4, r6
    8544:	eafffff5 	b	8520 <display_fill_rect+0x38>

00008548 <display_draw_circle>:
    8548:	e92d4ff0 	push	{r4, r5, r6, r7, r8, r9, sl, fp, lr}
    854c:	e24dd01c 	sub	sp, sp, #28, 0
    8550:	e1a0a000 	mov	sl, r0
    8554:	e1a05001 	mov	r5, r1
    8558:	e58d2004 	str	r2, [sp, #4]
    855c:	e1a06003 	mov	r6, r3
    8560:	e6ff4072 	uxth	r4, r2
    8564:	e2643001 	rsb	r3, r4, #1, 0
    8568:	e6bf9073 	sxth	r9, r3
    856c:	e0643784 	rsb	r3, r4, r4, lsl #15
    8570:	e1a03083 	lsl	r3, r3, #1
    8574:	e6bf3073 	sxth	r3, r3
    8578:	e58d3014 	str	r3, [sp, #20]
    857c:	e6ffb071 	uxth	fp, r1
    8580:	e084100b 	add	r1, r4, fp
    8584:	e1a02006 	mov	r2, r6
    8588:	e6bf1071 	sxth	r1, r1
    858c:	ebffff2e 	bl	824c <display_set_pixel>
    8590:	e04b1004 	sub	r1, fp, r4
    8594:	e1a02006 	mov	r2, r6
    8598:	e6bf1071 	sxth	r1, r1
    859c:	e1a0000a 	mov	r0, sl
    85a0:	ebffff29 	bl	824c <display_set_pixel>
    85a4:	e6ffa07a 	uxth	sl, sl
    85a8:	e084000a 	add	r0, r4, sl
    85ac:	e1a02006 	mov	r2, r6
    85b0:	e1a01005 	mov	r1, r5
    85b4:	e6bf0070 	sxth	r0, r0
    85b8:	ebffff23 	bl	824c <display_set_pixel>
    85bc:	e04a0004 	sub	r0, sl, r4
    85c0:	e1a02006 	mov	r2, r6
    85c4:	e1a01005 	mov	r1, r5
    85c8:	e6bf0070 	sxth	r0, r0
    85cc:	ebffff1e 	bl	824c <display_set_pixel>
    85d0:	e3a03000 	mov	r3, #0, 0
    85d4:	e58d3008 	str	r3, [sp, #8]
    85d8:	e3a03001 	mov	r3, #1, 0
    85dc:	e58d300c 	str	r3, [sp, #12]
    85e0:	ea00003c 	b	86d8 <display_draw_circle+0x190>
    85e4:	e59d3008 	ldr	r3, [sp, #8]
    85e8:	e2833001 	add	r3, r3, #1, 0
    85ec:	e6ff5073 	uxth	r5, r3
    85f0:	e6bf3073 	sxth	r3, r3
    85f4:	e58d3008 	str	r3, [sp, #8]
    85f8:	e59d300c 	ldr	r3, [sp, #12]
    85fc:	e2833002 	add	r3, r3, #2, 0
    8600:	e6bf2073 	sxth	r2, r3
    8604:	e58d200c 	str	r2, [sp, #12]
    8608:	e6f99073 	uxtah	r9, r9, r3
    860c:	e6bf9079 	sxth	r9, r9
    8610:	e08a3005 	add	r3, sl, r5
    8614:	e6bf3073 	sxth	r3, r3
    8618:	e1dd40b4 	ldrh	r4, [sp, #4]
    861c:	e08b8004 	add	r8, fp, r4
    8620:	e6bf8078 	sxth	r8, r8
    8624:	e1a02006 	mov	r2, r6
    8628:	e1a01008 	mov	r1, r8
    862c:	e58d3010 	str	r3, [sp, #16]
    8630:	e1a00003 	mov	r0, r3
    8634:	ebffff04 	bl	824c <display_set_pixel>
    8638:	e04a7005 	sub	r7, sl, r5
    863c:	e6bf7077 	sxth	r7, r7
    8640:	e1a02006 	mov	r2, r6
    8644:	e1a01008 	mov	r1, r8
    8648:	e1a00007 	mov	r0, r7
    864c:	ebfffefe 	bl	824c <display_set_pixel>
    8650:	e04b8004 	sub	r8, fp, r4
    8654:	e6bf8078 	sxth	r8, r8
    8658:	e1a02006 	mov	r2, r6
    865c:	e1a01008 	mov	r1, r8
    8660:	e59d0010 	ldr	r0, [sp, #16]
    8664:	ebfffef8 	bl	824c <display_set_pixel>
    8668:	e1a02006 	mov	r2, r6
    866c:	e1a01008 	mov	r1, r8
    8670:	e1a00007 	mov	r0, r7
    8674:	ebfffef4 	bl	824c <display_set_pixel>
    8678:	e08a7004 	add	r7, sl, r4
    867c:	e6bf7077 	sxth	r7, r7
    8680:	e08b8005 	add	r8, fp, r5
    8684:	e6bf8078 	sxth	r8, r8
    8688:	e1a02006 	mov	r2, r6
    868c:	e1a01008 	mov	r1, r8
    8690:	e1a00007 	mov	r0, r7
    8694:	ebfffeec 	bl	824c <display_set_pixel>
    8698:	e04a4004 	sub	r4, sl, r4
    869c:	e6bf4074 	sxth	r4, r4
    86a0:	e1a02006 	mov	r2, r6
    86a4:	e1a01008 	mov	r1, r8
    86a8:	e1a00004 	mov	r0, r4
    86ac:	ebfffee6 	bl	824c <display_set_pixel>
    86b0:	e04b5005 	sub	r5, fp, r5
    86b4:	e6bf5075 	sxth	r5, r5
    86b8:	e1a02006 	mov	r2, r6
    86bc:	e1a01005 	mov	r1, r5
    86c0:	e1a00007 	mov	r0, r7
    86c4:	ebfffee0 	bl	824c <display_set_pixel>
    86c8:	e1a02006 	mov	r2, r6
    86cc:	e1a01005 	mov	r1, r5
    86d0:	e1a00004 	mov	r0, r4
    86d4:	ebfffedc 	bl	824c <display_set_pixel>
    86d8:	e59d3008 	ldr	r3, [sp, #8]
    86dc:	e59d2004 	ldr	r2, [sp, #4]
    86e0:	e1530002 	cmp	r3, r2
    86e4:	aa00000c 	bge	871c <display_draw_circle+0x1d4>
    86e8:	e3590000 	cmp	r9, #0, 0
    86ec:	baffffbc 	blt	85e4 <display_draw_circle+0x9c>
    86f0:	e59d3004 	ldr	r3, [sp, #4]
    86f4:	e2433001 	sub	r3, r3, #1, 0
    86f8:	e6bf3073 	sxth	r3, r3
    86fc:	e58d3004 	str	r3, [sp, #4]
    8700:	e59d3014 	ldr	r3, [sp, #20]
    8704:	e2833002 	add	r3, r3, #2, 0
    8708:	e6bf2073 	sxth	r2, r3
    870c:	e58d2014 	str	r2, [sp, #20]
    8710:	e6f99073 	uxtah	r9, r9, r3
    8714:	e6bf9079 	sxth	r9, r9
    8718:	eaffffb1 	b	85e4 <display_draw_circle+0x9c>
    871c:	e28dd01c 	add	sp, sp, #28, 0
    8720:	e8bd8ff0 	pop	{r4, r5, r6, r7, r8, r9, sl, fp, pc}

00008724 <display_fill_circle>:
    8724:	e92d4ff0 	push	{r4, r5, r6, r7, r8, r9, sl, fp, lr}
    8728:	e24dd024 	sub	sp, sp, #36, 0	; 0x24
    872c:	e58d001c 	str	r0, [sp, #28]
    8730:	e58d200c 	str	r2, [sp, #12]
    8734:	e1a0b003 	mov	fp, r3
    8738:	e6ffa071 	uxth	sl, r1
    873c:	e6ff5072 	uxth	r5, r2
    8740:	e04a1005 	sub	r1, sl, r5
    8744:	e08a3005 	add	r3, sl, r5
    8748:	e58db000 	str	fp, [sp]
    874c:	e6bf3073 	sxth	r3, r3
    8750:	e1a02000 	mov	r2, r0
    8754:	e6bf1071 	sxth	r1, r1
    8758:	ebfffeeb 	bl	830c <display_draw_line>
    875c:	e2654001 	rsb	r4, r5, #1, 0
    8760:	e6bf4074 	sxth	r4, r4
    8764:	e0655785 	rsb	r5, r5, r5, lsl #15
    8768:	e1a05085 	lsl	r5, r5, #1
    876c:	e6bf3075 	sxth	r3, r5
    8770:	e58d3018 	str	r3, [sp, #24]
    8774:	e3a03000 	mov	r3, #0, 0
    8778:	e58d3010 	str	r3, [sp, #16]
    877c:	e3a03001 	mov	r3, #1, 0
    8780:	e58d3014 	str	r3, [sp, #20]
    8784:	ea000030 	b	884c <display_fill_circle+0x128>
    8788:	e59d3010 	ldr	r3, [sp, #16]
    878c:	e2833001 	add	r3, r3, #1, 0
    8790:	e6ff6073 	uxth	r6, r3
    8794:	e6bf3073 	sxth	r3, r3
    8798:	e58d3010 	str	r3, [sp, #16]
    879c:	e59d3014 	ldr	r3, [sp, #20]
    87a0:	e2833002 	add	r3, r3, #2, 0
    87a4:	e6bf2073 	sxth	r2, r3
    87a8:	e58d2014 	str	r2, [sp, #20]
    87ac:	e6f44073 	uxtah	r4, r4, r3
    87b0:	e6bf4074 	sxth	r4, r4
    87b4:	e1dd51bc 	ldrh	r5, [sp, #28]
    87b8:	e0860005 	add	r0, r6, r5
    87bc:	e6bf0070 	sxth	r0, r0
    87c0:	e1dd70bc 	ldrh	r7, [sp, #12]
    87c4:	e04a8007 	sub	r8, sl, r7
    87c8:	e6bf8078 	sxth	r8, r8
    87cc:	e08a9007 	add	r9, sl, r7
    87d0:	e6bf9079 	sxth	r9, r9
    87d4:	e58db000 	str	fp, [sp]
    87d8:	e1a03009 	mov	r3, r9
    87dc:	e1a02000 	mov	r2, r0
    87e0:	e1a01008 	mov	r1, r8
    87e4:	ebfffec8 	bl	830c <display_draw_line>
    87e8:	e0450006 	sub	r0, r5, r6
    87ec:	e6bf0070 	sxth	r0, r0
    87f0:	e58db000 	str	fp, [sp]
    87f4:	e1a03009 	mov	r3, r9
    87f8:	e1a02000 	mov	r2, r0
    87fc:	e1a01008 	mov	r1, r8
    8800:	ebfffec1 	bl	830c <display_draw_line>
    8804:	e0850007 	add	r0, r5, r7
    8808:	e6bf0070 	sxth	r0, r0
    880c:	e04a8006 	sub	r8, sl, r6
    8810:	e6bf8078 	sxth	r8, r8
    8814:	e08a6006 	add	r6, sl, r6
    8818:	e6bf6076 	sxth	r6, r6
    881c:	e58db000 	str	fp, [sp]
    8820:	e1a03006 	mov	r3, r6
    8824:	e1a02000 	mov	r2, r0
    8828:	e1a01008 	mov	r1, r8
    882c:	ebfffeb6 	bl	830c <display_draw_line>
    8830:	e0455007 	sub	r5, r5, r7
    8834:	e6bf0075 	sxth	r0, r5
    8838:	e58db000 	str	fp, [sp]
    883c:	e1a03006 	mov	r3, r6
    8840:	e1a02000 	mov	r2, r0
    8844:	e1a01008 	mov	r1, r8
    8848:	ebfffeaf 	bl	830c <display_draw_line>
    884c:	e59d3010 	ldr	r3, [sp, #16]
    8850:	e59d200c 	ldr	r2, [sp, #12]
    8854:	e1530002 	cmp	r3, r2
    8858:	aa00000c 	bge	8890 <display_fill_circle+0x16c>
    885c:	e3540000 	cmp	r4, #0, 0
    8860:	baffffc8 	blt	8788 <display_fill_circle+0x64>
    8864:	e59d300c 	ldr	r3, [sp, #12]
    8868:	e2433001 	sub	r3, r3, #1, 0
    886c:	e6bf3073 	sxth	r3, r3
    8870:	e58d300c 	str	r3, [sp, #12]
    8874:	e59d3018 	ldr	r3, [sp, #24]
    8878:	e2833002 	add	r3, r3, #2, 0
    887c:	e6bf2073 	sxth	r2, r3
    8880:	e58d2018 	str	r2, [sp, #24]
    8884:	e6f44073 	uxtah	r4, r4, r3
    8888:	e6bf4074 	sxth	r4, r4
    888c:	eaffffbd 	b	8788 <display_fill_circle+0x64>
    8890:	e28dd024 	add	sp, sp, #36, 0	; 0x24
    8894:	e8bd8ff0 	pop	{r4, r5, r6, r7, r8, r9, sl, fp, pc}

00008898 <display_draw_char>:
    8898:	e92d4ff0 	push	{r4, r5, r6, r7, r8, r9, sl, fp, lr}
    889c:	e24dd014 	sub	sp, sp, #20, 0
    88a0:	e1a09000 	mov	r9, r0
    88a4:	e1a0a001 	mov	sl, r1
    88a8:	e58d200c 	str	r2, [sp, #12]
    88ac:	e1a08003 	mov	r8, r3
    88b0:	e5ddb038 	ldrb	fp, [sp, #56]	; 0x38
    88b4:	e5dd603c 	ldrb	r6, [sp, #60]	; 0x3c
    88b8:	e2423020 	sub	r3, r2, #32, 0
    88bc:	e6ef3073 	uxtb	r3, r3
    88c0:	e353005e 	cmp	r3, #94, 0	; 0x5e
    88c4:	83a0303f 	movhi	r3, #63, 0	; 0x3f
    88c8:	858d300c 	strhi	r3, [sp, #12]
    88cc:	e3a07000 	mov	r7, #0, 0
    88d0:	ea00002d 	b	898c <display_draw_char+0xf4>
    88d4:	e0209697 	mla	r0, r7, r6, r9
    88d8:	e021a694 	mla	r1, r4, r6, sl
    88dc:	e6bf2076 	sxth	r2, r6
    88e0:	e58d8000 	str	r8, [sp]
    88e4:	e1a03002 	mov	r3, r2
    88e8:	e6bf1071 	sxth	r1, r1
    88ec:	e6bf0070 	sxth	r0, r0
    88f0:	ebfffefc 	bl	84e8 <display_fill_rect>
    88f4:	e1a050a5 	lsr	r5, r5, #1
    88f8:	e2844001 	add	r4, r4, #1, 0
    88fc:	e6af4074 	sxtb	r4, r4
    8900:	e3540007 	cmp	r4, #7, 0
    8904:	ca00001e 	bgt	8984 <display_draw_char+0xec>
    8908:	e3150001 	tst	r5, #1, 0
    890c:	0a000008 	beq	8934 <display_draw_char+0x9c>
    8910:	e3560001 	cmp	r6, #1, 0
    8914:	1affffee 	bne	88d4 <display_draw_char+0x3c>
    8918:	e0870009 	add	r0, r7, r9
    891c:	e084100a 	add	r1, r4, sl
    8920:	e1a02008 	mov	r2, r8
    8924:	e6bf1071 	sxth	r1, r1
    8928:	e6bf0070 	sxth	r0, r0
    892c:	ebfffe46 	bl	824c <display_set_pixel>
    8930:	eaffffef 	b	88f4 <display_draw_char+0x5c>
    8934:	e15b0008 	cmp	fp, r8
    8938:	0affffed 	beq	88f4 <display_draw_char+0x5c>
    893c:	e3560001 	cmp	r6, #1, 0
    8940:	0a000008 	beq	8968 <display_draw_char+0xd0>
    8944:	e0209697 	mla	r0, r7, r6, r9
    8948:	e021a694 	mla	r1, r4, r6, sl
    894c:	e6bf2076 	sxth	r2, r6
    8950:	e58db000 	str	fp, [sp]
    8954:	e1a03002 	mov	r3, r2
    8958:	e6bf1071 	sxth	r1, r1
    895c:	e6bf0070 	sxth	r0, r0
    8960:	ebfffee0 	bl	84e8 <display_fill_rect>
    8964:	eaffffe2 	b	88f4 <display_draw_char+0x5c>
    8968:	e0870009 	add	r0, r7, r9
    896c:	e084100a 	add	r1, r4, sl
    8970:	e1a0200b 	mov	r2, fp
    8974:	e6bf1071 	sxth	r1, r1
    8978:	e6bf0070 	sxth	r0, r0
    897c:	ebfffe32 	bl	824c <display_set_pixel>
    8980:	eaffffdb 	b	88f4 <display_draw_char+0x5c>
    8984:	e2877001 	add	r7, r7, #1, 0
    8988:	e6af7077 	sxtb	r7, r7
    898c:	e3570004 	cmp	r7, #4, 0
    8990:	ca000007 	bgt	89b4 <display_draw_char+0x11c>
    8994:	e59d300c 	ldr	r3, [sp, #12]
    8998:	e2433020 	sub	r3, r3, #32, 0
    899c:	e0833103 	add	r3, r3, r3, lsl #2
    89a0:	e0873003 	add	r3, r7, r3
    89a4:	e59f2010 	ldr	r2, [pc, #16]	; 89bc <display_draw_char+0x124>
    89a8:	e7d25003 	ldrb	r5, [r2, r3]
    89ac:	e3a04000 	mov	r4, #0, 0
    89b0:	eaffffd2 	b	8900 <display_draw_char+0x68>
    89b4:	e28dd014 	add	sp, sp, #20, 0
    89b8:	e8bd8ff0 	pop	{r4, r5, r6, r7, r8, r9, sl, fp, pc}
    89bc:	00010020 	.word	0x00010020

000089c0 <display_write>:
    89c0:	e92d47f0 	push	{r4, r5, r6, r7, r8, r9, sl, lr}
    89c4:	e24dd008 	sub	sp, sp, #8, 0
    89c8:	e1a08000 	mov	r8, r0
    89cc:	e1a06001 	mov	r6, r1
    89d0:	e1a04002 	mov	r4, r2
    89d4:	e1a09003 	mov	r9, r3
    89d8:	e5dda028 	ldrb	sl, [sp, #40]	; 0x28
    89dc:	e5dd502c 	ldrb	r5, [sp, #44]	; 0x2c
    89e0:	e1a07000 	mov	r7, r0
    89e4:	ea000003 	b	89f8 <display_write+0x38>
    89e8:	e0866185 	add	r6, r6, r5, lsl #3
    89ec:	e6bf6076 	sxth	r6, r6
    89f0:	e1a07008 	mov	r7, r8
    89f4:	e2844001 	add	r4, r4, #1, 0
    89f8:	e5d42000 	ldrb	r2, [r4]
    89fc:	e3520000 	cmp	r2, #0, 0
    8a00:	0a000015 	beq	8a5c <display_write+0x9c>
    8a04:	e352000a 	cmp	r2, #10, 0
    8a08:	0afffff6 	beq	89e8 <display_write+0x28>
    8a0c:	e352000d 	cmp	r2, #13, 0
    8a10:	0afffff7 	beq	89f4 <display_write+0x34>
    8a14:	e58d5004 	str	r5, [sp, #4]
    8a18:	e58da000 	str	sl, [sp]
    8a1c:	e1a03009 	mov	r3, r9
    8a20:	e1a01006 	mov	r1, r6
    8a24:	e1a00007 	mov	r0, r7
    8a28:	ebffff9a 	bl	8898 <display_draw_char>
    8a2c:	e6ff1075 	uxth	r1, r5
    8a30:	e0853085 	add	r3, r5, r5, lsl #1
    8a34:	e0877083 	add	r7, r7, r3, lsl #1
    8a38:	e6bf7077 	sxth	r7, r7
    8a3c:	e0453105 	sub	r3, r5, r5, lsl #2
    8a40:	e1a03083 	lsl	r3, r3, #1
    8a44:	e2833080 	add	r3, r3, #128, 0	; 0x80
    8a48:	e1570003 	cmp	r7, r3
    8a4c:	c0866181 	addgt	r6, r6, r1, lsl #3
    8a50:	c6bf6076 	sxthgt	r6, r6
    8a54:	c1a07008 	movgt	r7, r8
    8a58:	eaffffe5 	b	89f4 <display_write+0x34>
    8a5c:	e28dd008 	add	sp, sp, #8, 0
    8a60:	e8bd87f0 	pop	{r4, r5, r6, r7, r8, r9, sl, pc}

00008a64 <display_invert>:
    8a64:	e92d4010 	push	{r4, lr}
    8a68:	e3500000 	cmp	r0, #0, 0
    8a6c:	0a000002 	beq	8a7c <display_invert+0x18>
    8a70:	e3a000a7 	mov	r0, #167, 0	; 0xa7
    8a74:	ebfffd8f 	bl	80b8 <display_command>
    8a78:	e8bd8010 	pop	{r4, pc}
    8a7c:	e3a000a6 	mov	r0, #166, 0	; 0xa6
    8a80:	ebfffd8c 	bl	80b8 <display_command>
    8a84:	e8bd8010 	pop	{r4, pc}

00008a88 <test_buttons>:
    8a88:	e92d4030 	push	{r4, r5, lr}
    8a8c:	e24dd014 	sub	sp, sp, #20, 0
    8a90:	ea00001a 	b	8b00 <test_buttons+0x78>
    8a94:	e3a04074 	mov	r4, #116, 0	; 0x74
    8a98:	ea00001d 	b	8b14 <test_buttons+0x8c>
    8a9c:	e3a00006 	mov	r0, #6, 0
    8aa0:	eb0019a0 	bl	f128 <gpio_read>
    8aa4:	e3500000 	cmp	r0, #0, 0
    8aa8:	03a04073 	moveq	r4, #115, 0	; 0x73
    8aac:	e5cd400c 	strb	r4, [sp, #12]
    8ab0:	e3a05000 	mov	r5, #0, 0
    8ab4:	e5cd500d 	strb	r5, [sp, #13]
    8ab8:	ebfffd89 	bl	80e4 <display_clear>
    8abc:	e3a04001 	mov	r4, #1, 0
    8ac0:	e58d4004 	str	r4, [sp, #4]
    8ac4:	e58d5000 	str	r5, [sp]
    8ac8:	e1a03004 	mov	r3, r4
    8acc:	e59f2074 	ldr	r2, [pc, #116]	; 8b48 <test_buttons+0xc0>
    8ad0:	e3a01014 	mov	r1, #20, 0
    8ad4:	e3a0000a 	mov	r0, #10, 0
    8ad8:	ebffffb8 	bl	89c0 <display_write>
    8adc:	e3a03002 	mov	r3, #2, 0
    8ae0:	e58d3004 	str	r3, [sp, #4]
    8ae4:	e58d5000 	str	r5, [sp]
    8ae8:	e1a03004 	mov	r3, r4
    8aec:	e28d200c 	add	r2, sp, #12, 0
    8af0:	e3a0102d 	mov	r1, #45, 0	; 0x2d
    8af4:	e3a0000a 	mov	r0, #10, 0
    8af8:	ebffffb0 	bl	89c0 <display_write>
    8afc:	ebfffd7f 	bl	8100 <display_update>
    8b00:	e3a00009 	mov	r0, #9, 0
    8b04:	eb001987 	bl	f128 <gpio_read>
    8b08:	e3500000 	cmp	r0, #0, 0
    8b0c:	0affffe0 	beq	8a94 <test_buttons+0xc>
    8b10:	e3a0406e 	mov	r4, #110, 0	; 0x6e
    8b14:	e3a00008 	mov	r0, #8, 0
    8b18:	eb001982 	bl	f128 <gpio_read>
    8b1c:	e3500000 	cmp	r0, #0, 0
    8b20:	03a04062 	moveq	r4, #98, 0	; 0x62
    8b24:	e3a00007 	mov	r0, #7, 0
    8b28:	eb00197e 	bl	f128 <gpio_read>
    8b2c:	e3500000 	cmp	r0, #0, 0
    8b30:	03a04072 	moveq	r4, #114, 0	; 0x72
    8b34:	e3a0000a 	mov	r0, #10, 0
    8b38:	eb00197a 	bl	f128 <gpio_read>
    8b3c:	e3500000 	cmp	r0, #0, 0
    8b40:	03a0406c 	moveq	r4, #108, 0	; 0x6c
    8b44:	eaffffd4 	b	8a9c <test_buttons+0x14>
    8b48:	0000fcf0 	.word	0x0000fcf0

00008b4c <create_file>:
    8b4c:	e92d4070 	push	{r4, r5, r6, lr}
    8b50:	e24dd010 	sub	sp, sp, #16, 0
    8b54:	e1a05000 	mov	r5, r0
    8b58:	e1a06001 	mov	r6, r1
    8b5c:	e1a0c00d 	mov	ip, sp
    8b60:	e88c000c 	stm	ip, {r2, r3}
    8b64:	e3a03064 	mov	r3, #100, 0	; 0x64
    8b68:	e5cd3008 	strb	r3, [sp, #8]
    8b6c:	e3a03065 	mov	r3, #101, 0	; 0x65
    8b70:	e5cd3009 	strb	r3, [sp, #9]
    8b74:	e3a0306d 	mov	r3, #109, 0	; 0x6d
    8b78:	e5cd300a 	strb	r3, [sp, #10]
    8b7c:	e3a0306f 	mov	r3, #111, 0	; 0x6f
    8b80:	e5cd300b 	strb	r3, [sp, #11]
    8b84:	e3a0305f 	mov	r3, #95, 0	; 0x5f
    8b88:	e5cd300c 	strb	r3, [sp, #12]
    8b8c:	e59fc0f0 	ldr	ip, [pc, #240]	; 8c84 <create_file+0x138>
    8b90:	e5dc2000 	ldrb	r2, [ip]
    8b94:	e5cd200d 	strb	r2, [sp, #13]
    8b98:	e3a03000 	mov	r3, #0, 0
    8b9c:	e5cd300e 	strb	r3, [sp, #14]
    8ba0:	e2822001 	add	r2, r2, #1, 0
    8ba4:	e5cc2000 	strb	r2, [ip]
    8ba8:	e28d2008 	add	r2, sp, #8, 0
    8bac:	eb00064a 	bl	a4dc <fat32_create>
    8bb0:	ea00001a 	b	8c20 <create_file+0xd4>
    8bb4:	e59f00cc 	ldr	r0, [pc, #204]	; 8c88 <create_file+0x13c>
    8bb8:	eb001a02 	bl	f3c8 <printk>
    8bbc:	e28dd010 	add	sp, sp, #16, 0
    8bc0:	e8bd8070 	pop	{r4, r5, r6, pc}
    8bc4:	e5942000 	ldr	r2, [r4]
    8bc8:	e5943008 	ldr	r3, [r4, #8]
    8bcc:	e3a0102a 	mov	r1, #42, 0	; 0x2a
    8bd0:	e7c21003 	strb	r1, [r2, r3]
    8bd4:	e1a03004 	mov	r3, r4
    8bd8:	e28d2008 	add	r2, sp, #8, 0
    8bdc:	e59d1000 	ldr	r1, [sp]
    8be0:	e1a00005 	mov	r0, r5
    8be4:	eb00078a 	bl	aa14 <fat32_write>
    8be8:	e59f009c 	ldr	r0, [pc, #156]	; 8c8c <create_file+0x140>
    8bec:	eb0019f5 	bl	f3c8 <printk>
    8bf0:	e3a00e19 	mov	r0, #400	; 0x190
    8bf4:	eb001b87 	bl	fa18 <delay_ms>
    8bf8:	ea000015 	b	8c54 <create_file+0x108>
    8bfc:	e3a00e19 	mov	r0, #400	; 0x190
    8c00:	eb001b84 	bl	fa18 <delay_ms>
    8c04:	ea000016 	b	8c64 <create_file+0x118>
    8c08:	e3a00e19 	mov	r0, #400	; 0x190
    8c0c:	eb001b81 	bl	fa18 <delay_ms>
    8c10:	e3a00007 	mov	r0, #7, 0
    8c14:	eb001943 	bl	f128 <gpio_read>
    8c18:	e3500000 	cmp	r0, #0, 0
    8c1c:	0a000015 	beq	8c78 <create_file+0x12c>
    8c20:	e3a00006 	mov	r0, #6, 0
    8c24:	eb00193f 	bl	f128 <gpio_read>
    8c28:	e3500000 	cmp	r0, #0, 0
    8c2c:	0affffe0 	beq	8bb4 <create_file+0x68>
    8c30:	e28d2008 	add	r2, sp, #8, 0
    8c34:	e1a01006 	mov	r1, r6
    8c38:	e1a00005 	mov	r0, r5
    8c3c:	eb000589 	bl	a268 <fat32_read>
    8c40:	e1a04000 	mov	r4, r0
    8c44:	e3a0000a 	mov	r0, #10, 0
    8c48:	eb001936 	bl	f128 <gpio_read>
    8c4c:	e3500000 	cmp	r0, #0, 0
    8c50:	0affffdb 	beq	8bc4 <create_file+0x78>
    8c54:	e3a00008 	mov	r0, #8, 0
    8c58:	eb001932 	bl	f128 <gpio_read>
    8c5c:	e3500000 	cmp	r0, #0, 0
    8c60:	0affffe5 	beq	8bfc <create_file+0xb0>
    8c64:	e3a00009 	mov	r0, #9, 0
    8c68:	eb00192e 	bl	f128 <gpio_read>
    8c6c:	e3500000 	cmp	r0, #0, 0
    8c70:	1affffe6 	bne	8c10 <create_file+0xc4>
    8c74:	eaffffe3 	b	8c08 <create_file+0xbc>
    8c78:	e3a00e19 	mov	r0, #400	; 0x190
    8c7c:	eb001b65 	bl	fa18 <delay_ms>
    8c80:	eaffffe6 	b	8c20 <create_file+0xd4>
    8c84:	000129a4 	.word	0x000129a4
    8c88:	0000fd00 	.word	0x0000fd00
    8c8c:	0000fd1c 	.word	0x0000fd1c

00008c90 <display_file>:
    8c90:	e92d4ff0 	push	{r4, r5, r6, r7, r8, r9, sl, fp, lr}
    8c94:	e28db020 	add	fp, sp, #32, 0
    8c98:	e24dd0ac 	sub	sp, sp, #172, 0	; 0xac
    8c9c:	e1a05000 	mov	r5, r0
    8ca0:	e1a06001 	mov	r6, r1
    8ca4:	e1a04002 	mov	r4, r2
    8ca8:	e1a0800d 	mov	r8, sp
    8cac:	e59f1364 	ldr	r1, [pc, #868]	; 9018 <display_file+0x388>
    8cb0:	e59f0364 	ldr	r0, [pc, #868]	; 901c <display_file+0x38c>
    8cb4:	eb0019c3 	bl	f3c8 <printk>
    8cb8:	e1a01004 	mov	r1, r4
    8cbc:	e59f035c 	ldr	r0, [pc, #860]	; 9020 <display_file+0x390>
    8cc0:	eb0019c0 	bl	f3c8 <printk>
    8cc4:	e3540000 	cmp	r4, #0, 0
    8cc8:	0a000003 	beq	8cdc <display_file+0x4c>
    8ccc:	e1a07004 	mov	r7, r4
    8cd0:	e5943024 	ldr	r3, [r4, #36]	; 0x24
    8cd4:	e3530000 	cmp	r3, #0, 0
    8cd8:	0a00000e 	beq	8d18 <display_file+0x88>
    8cdc:	ebfffd00 	bl	80e4 <display_clear>
    8ce0:	e3a03001 	mov	r3, #1, 0
    8ce4:	e58d3004 	str	r3, [sp, #4]
    8ce8:	e3a02000 	mov	r2, #0, 0
    8cec:	e58d2000 	str	r2, [sp]
    8cf0:	e59f232c 	ldr	r2, [pc, #812]	; 9024 <display_file+0x394>
    8cf4:	e3a01014 	mov	r1, #20, 0
    8cf8:	e3a0000a 	mov	r0, #10, 0
    8cfc:	ebffff2f 	bl	89c0 <display_write>
    8d00:	ebfffcfe 	bl	8100 <display_update>
    8d04:	e3a00ffa 	mov	r0, #1000	; 0x3e8
    8d08:	eb001b42 	bl	fa18 <delay_ms>
    8d0c:	e1a0d008 	mov	sp, r8
    8d10:	e24bd020 	sub	sp, fp, #32, 0
    8d14:	e8bd8ff0 	pop	{r4, r5, r6, r7, r8, r9, sl, fp, pc}
    8d18:	e59f12f8 	ldr	r1, [pc, #760]	; 9018 <display_file+0x388>
    8d1c:	e59f02f8 	ldr	r0, [pc, #760]	; 901c <display_file+0x38c>
    8d20:	eb0019a8 	bl	f3c8 <printk>
    8d24:	e1a01004 	mov	r1, r4
    8d28:	e59f02f8 	ldr	r0, [pc, #760]	; 9028 <display_file+0x398>
    8d2c:	eb0019a5 	bl	f3c8 <printk>
    8d30:	e1a02004 	mov	r2, r4
    8d34:	e1a01006 	mov	r1, r6
    8d38:	e1a00005 	mov	r0, r5
    8d3c:	eb000549 	bl	a268 <fat32_read>
    8d40:	e2505000 	subs	r5, r0, #0, 0
    8d44:	0a00000e 	beq	8d84 <display_file+0xf4>
    8d48:	e59f12c8 	ldr	r1, [pc, #712]	; 9018 <display_file+0x388>
    8d4c:	e59f02c8 	ldr	r0, [pc, #712]	; 901c <display_file+0x38c>
    8d50:	eb00199c 	bl	f3c8 <printk>
    8d54:	e1a01004 	mov	r1, r4
    8d58:	e59f02cc 	ldr	r0, [pc, #716]	; 902c <display_file+0x39c>
    8d5c:	eb001999 	bl	f3c8 <printk>
    8d60:	e5952008 	ldr	r2, [r5, #8]
    8d64:	e59f32c4 	ldr	r3, [pc, #708]	; 9030 <display_file+0x3a0>
    8d68:	e0831293 	umull	r1, r3, r3, r2
    8d6c:	e0426003 	sub	r6, r2, r3
    8d70:	e08360a6 	add	r6, r3, r6, lsr #1
    8d74:	e1a06226 	lsr	r6, r6, #4
    8d78:	e2866001 	add	r6, r6, #1, 0
    8d7c:	e3a04000 	mov	r4, #0, 0
    8d80:	ea000083 	b	8f94 <display_file+0x304>
    8d84:	ebfffcd6 	bl	80e4 <display_clear>
    8d88:	e3a03001 	mov	r3, #1, 0
    8d8c:	e58d3004 	str	r3, [sp, #4]
    8d90:	e3a02000 	mov	r2, #0, 0
    8d94:	e58d2000 	str	r2, [sp]
    8d98:	e59f2294 	ldr	r2, [pc, #660]	; 9034 <display_file+0x3a4>
    8d9c:	e3a01014 	mov	r1, #20, 0
    8da0:	e3a0000a 	mov	r0, #10, 0
    8da4:	ebffff05 	bl	89c0 <display_write>
    8da8:	ebfffcd4 	bl	8100 <display_update>
    8dac:	e3a00ffa 	mov	r0, #1000	; 0x3e8
    8db0:	eb001b18 	bl	fa18 <delay_ms>
    8db4:	eaffffd4 	b	8d0c <display_file+0x7c>
    8db8:	e2822001 	add	r2, r2, #1, 0
    8dbc:	e3a01000 	mov	r1, #0, 0
    8dc0:	e2833001 	add	r3, r3, #1, 0
    8dc4:	e1a0a003 	mov	sl, r3
    8dc8:	e1530000 	cmp	r3, r0
    8dcc:	2a00000b 	bcs	8e00 <display_file+0x170>
    8dd0:	e1540002 	cmp	r4, r2
    8dd4:	da000009 	ble	8e00 <display_file+0x170>
    8dd8:	e2811001 	add	r1, r1, #1, 0
    8ddc:	e7dca00a 	ldrb	sl, [ip, sl]
    8de0:	e35a000a 	cmp	sl, #10, 0
    8de4:	0afffff3 	beq	8db8 <display_file+0x128>
    8de8:	e3510014 	cmp	r1, #20, 0
    8dec:	dafffff3 	ble	8dc0 <display_file+0x130>
    8df0:	eafffff0 	b	8db8 <display_file+0x128>
    8df4:	e3a03000 	mov	r3, #0, 0
    8df8:	e1a02003 	mov	r2, r3
    8dfc:	eafffff0 	b	8dc4 <display_file+0x134>
    8e00:	e0822082 	add	r2, r2, r2, lsl #1
    8e04:	e0622182 	rsb	r2, r2, r2, lsl #3
    8e08:	e1520000 	cmp	r2, r0
    8e0c:	2a000030 	bcs	8ed4 <display_file+0x244>
    8e10:	e7dc3002 	ldrb	r3, [ip, r2]
    8e14:	ea000020 	b	8e9c <display_file+0x20c>
    8e18:	e353000a 	cmp	r3, #10, 0
    8e1c:	0a00002a 	beq	8ecc <display_file+0x23c>
    8e20:	e28e1001 	add	r1, lr, #1, 0
    8e24:	e24b0024 	sub	r0, fp, #36, 0	; 0x24
    8e28:	e080e00e 	add	lr, r0, lr
    8e2c:	e54e309c 	strb	r3, [lr, #-156]	; 0xffffff64
    8e30:	e281e001 	add	lr, r1, #1, 0
    8e34:	e24b3024 	sub	r3, fp, #36, 0	; 0x24
    8e38:	e0831001 	add	r1, r3, r1
    8e3c:	e3a0300a 	mov	r3, #10, 0
    8e40:	e541309c 	strb	r3, [r1, #-156]	; 0xffffff64
    8e44:	e2899001 	add	r9, r9, #1, 0
    8e48:	e3a01000 	mov	r1, #0, 0
    8e4c:	e3a00000 	mov	r0, #0, 0
    8e50:	e24b3024 	sub	r3, fp, #36, 0	; 0x24
    8e54:	e083300e 	add	r3, r3, lr
    8e58:	e543009c 	strb	r0, [r3, #-156]	; 0xffffff64
    8e5c:	e2822001 	add	r2, r2, #1, 0
    8e60:	e5950008 	ldr	r0, [r5, #8]
    8e64:	e1a03002 	mov	r3, r2
    8e68:	e1500002 	cmp	r0, r2
    8e6c:	9a000018 	bls	8ed4 <display_file+0x244>
    8e70:	e3590006 	cmp	r9, #6, 0
    8e74:	ca000016 	bgt	8ed4 <display_file+0x244>
    8e78:	e595c000 	ldr	ip, [r5]
    8e7c:	e7dc3003 	ldrb	r3, [ip, r3]
    8e80:	e3540000 	cmp	r4, #0, 0
    8e84:	d3a0a000 	movle	sl, #0, 0
    8e88:	c3a0a001 	movgt	sl, #1, 0
    8e8c:	e3520000 	cmp	r2, #0, 0
    8e90:	13a0a000 	movne	sl, #0, 0
    8e94:	e35a0000 	cmp	sl, #0, 0
    8e98:	1affffd5 	bne	8df4 <display_file+0x164>
    8e9c:	e353000d 	cmp	r3, #13, 0
    8ea0:	0affffed 	beq	8e5c <display_file+0x1cc>
    8ea4:	e353000a 	cmp	r3, #10, 0
    8ea8:	0affffda 	beq	8e18 <display_file+0x188>
    8eac:	e3510013 	cmp	r1, #19, 0
    8eb0:	caffffd8 	bgt	8e18 <display_file+0x188>
    8eb4:	e24b0024 	sub	r0, fp, #36, 0	; 0x24
    8eb8:	e080000e 	add	r0, r0, lr
    8ebc:	e540309c 	strb	r3, [r0, #-156]	; 0xffffff64
    8ec0:	e2811001 	add	r1, r1, #1, 0
    8ec4:	e28ee001 	add	lr, lr, #1, 0
    8ec8:	eaffffdf 	b	8e4c <display_file+0x1bc>
    8ecc:	e1a0100e 	mov	r1, lr
    8ed0:	eaffffd6 	b	8e30 <display_file+0x1a0>
    8ed4:	ebfffc82 	bl	80e4 <display_clear>
    8ed8:	e3a0a001 	mov	sl, #1, 0
    8edc:	e58da004 	str	sl, [sp, #4]
    8ee0:	e3a09000 	mov	r9, #0, 0
    8ee4:	e58d9000 	str	r9, [sp]
    8ee8:	e1a0300a 	mov	r3, sl
    8eec:	e1a02007 	mov	r2, r7
    8ef0:	e1a01009 	mov	r1, r9
    8ef4:	e1a00009 	mov	r0, r9
    8ef8:	ebfffeb0 	bl	89c0 <display_write>
    8efc:	e58da000 	str	sl, [sp]
    8f00:	e3a0300a 	mov	r3, #10, 0
    8f04:	e3a02080 	mov	r2, #128, 0	; 0x80
    8f08:	e1a01003 	mov	r1, r3
    8f0c:	e1a00009 	mov	r0, r9
    8f10:	ebfffcfd 	bl	830c <display_draw_line>
    8f14:	e58da004 	str	sl, [sp, #4]
    8f18:	e58d9000 	str	r9, [sp]
    8f1c:	e1a0300a 	mov	r3, sl
    8f20:	e24b20c0 	sub	r2, fp, #192, 0	; 0xc0
    8f24:	e3a0100c 	mov	r1, #12, 0
    8f28:	e1a00009 	mov	r0, r9
    8f2c:	ebfffea3 	bl	89c0 <display_write>
    8f30:	e1540009 	cmp	r4, r9
    8f34:	ca00001c 	bgt	8fac <display_file+0x31c>
    8f38:	e2843007 	add	r3, r4, #7, 0
    8f3c:	e1530006 	cmp	r3, r6
    8f40:	ba000021 	blt	8fcc <display_file+0x33c>
    8f44:	ebfffc6d 	bl	8100 <display_update>
    8f48:	e3a00064 	mov	r0, #100, 0	; 0x64
    8f4c:	eb001ab1 	bl	fa18 <delay_ms>
    8f50:	e3a00009 	mov	r0, #9, 0
    8f54:	eb001873 	bl	f128 <gpio_read>
    8f58:	e3500000 	cmp	r0, #0, 0
    8f5c:	1a000001 	bne	8f68 <display_file+0x2d8>
    8f60:	e3540000 	cmp	r4, #0, 0
    8f64:	ca000021 	bgt	8ff0 <display_file+0x360>
    8f68:	e3a00008 	mov	r0, #8, 0
    8f6c:	eb00186d 	bl	f128 <gpio_read>
    8f70:	e3500000 	cmp	r0, #0, 0
    8f74:	1a000002 	bne	8f84 <display_file+0x2f4>
    8f78:	e2843007 	add	r3, r4, #7, 0
    8f7c:	e1530006 	cmp	r3, r6
    8f80:	ba00001e 	blt	9000 <display_file+0x370>
    8f84:	e3a0000a 	mov	r0, #10, 0
    8f88:	eb001866 	bl	f128 <gpio_read>
    8f8c:	e3500000 	cmp	r0, #0, 0
    8f90:	0a00001e 	beq	9010 <display_file+0x380>
    8f94:	e3a0e000 	mov	lr, #0, 0
    8f98:	e54be0c0 	strb	lr, [fp, #-192]	; 0xffffff40
    8f9c:	e1a0200e 	mov	r2, lr
    8fa0:	e1a0900e 	mov	r9, lr
    8fa4:	e1a0100e 	mov	r1, lr
    8fa8:	eaffffac 	b	8e60 <display_file+0x1d0>
    8fac:	e1a0300a 	mov	r3, sl
    8fb0:	e58da004 	str	sl, [sp, #4]
    8fb4:	e1a01009 	mov	r1, r9
    8fb8:	e58d9000 	str	r9, [sp]
    8fbc:	e59f2074 	ldr	r2, [pc, #116]	; 9038 <display_file+0x3a8>
    8fc0:	e3a00078 	mov	r0, #120, 0	; 0x78
    8fc4:	ebfffe7d 	bl	89c0 <display_write>
    8fc8:	eaffffda 	b	8f38 <display_file+0x2a8>
    8fcc:	e3a03001 	mov	r3, #1, 0
    8fd0:	e58d3004 	str	r3, [sp, #4]
    8fd4:	e3a02000 	mov	r2, #0, 0
    8fd8:	e58d2000 	str	r2, [sp]
    8fdc:	e59f2058 	ldr	r2, [pc, #88]	; 903c <display_file+0x3ac>
    8fe0:	e3a01038 	mov	r1, #56, 0	; 0x38
    8fe4:	e3a00078 	mov	r0, #120, 0	; 0x78
    8fe8:	ebfffe74 	bl	89c0 <display_write>
    8fec:	eaffffd4 	b	8f44 <display_file+0x2b4>
    8ff0:	e2444001 	sub	r4, r4, #1, 0
    8ff4:	e3a000c8 	mov	r0, #200, 0	; 0xc8
    8ff8:	eb001a86 	bl	fa18 <delay_ms>
    8ffc:	eaffffd9 	b	8f68 <display_file+0x2d8>
    9000:	e2844001 	add	r4, r4, #1, 0
    9004:	e3a000c8 	mov	r0, #200, 0	; 0xc8
    9008:	eb001a82 	bl	fa18 <delay_ms>
    900c:	eaffffdc 	b	8f84 <display_file+0x2f4>
    9010:	e1a0d008 	mov	sp, r8
    9014:	eaffff3d 	b	8d10 <display_file+0x80>
    9018:	00010200 	.word	0x00010200
    901c:	0000fd3c 	.word	0x0000fd3c
    9020:	0000fd48 	.word	0x0000fd48
    9024:	0000fd64 	.word	0x0000fd64
    9028:	0000fd78 	.word	0x0000fd78
    902c:	0000fda4 	.word	0x0000fda4
    9030:	86186187 	.word	0x86186187
    9034:	0000fd90 	.word	0x0000fd90
    9038:	0000fdbc 	.word	0x0000fdbc
    903c:	0000fdc0 	.word	0x0000fdc0

00009040 <show_files>:
    9040:	e92d4ff0 	push	{r4, r5, r6, r7, r8, r9, sl, fp, lr}
    9044:	e28db020 	add	fp, sp, #32, 0
    9048:	e24dd074 	sub	sp, sp, #116, 0	; 0x74
    904c:	e1a0a000 	mov	sl, r0
    9050:	e1a02001 	mov	r2, r1
    9054:	e50b1088 	str	r1, [fp, #-136]	; 0xffffff78
    9058:	e50bd084 	str	sp, [fp, #-132]	; 0xffffff7c
    905c:	e1a01000 	mov	r1, r0
    9060:	e24b002c 	sub	r0, fp, #44, 0	; 0x2c
    9064:	eb0003eb 	bl	a018 <fat32_readdir>
    9068:	e51b9028 	ldr	r9, [fp, #-40]	; 0xffffffd8
    906c:	e3590000 	cmp	r9, #0, 0
    9070:	0a000008 	beq	9098 <show_files+0x58>
    9074:	e2496001 	sub	r6, r9, #1, 0
    9078:	e1a01006 	mov	r1, r6
    907c:	e3a00003 	mov	r0, #3, 0
    9080:	ebfffbf0 	bl	8048 <min>
    9084:	e1a05000 	mov	r5, r0
    9088:	e3a04000 	mov	r4, #0, 0
    908c:	e1a08004 	mov	r8, r4
    9090:	e50b6080 	str	r6, [fp, #-128]	; 0xffffff80
    9094:	ea0000a5 	b	9330 <show_files+0x2f0>
    9098:	ebfffc11 	bl	80e4 <display_clear>
    909c:	e3a03001 	mov	r3, #1, 0
    90a0:	e58d3004 	str	r3, [sp, #4]
    90a4:	e3a02000 	mov	r2, #0, 0
    90a8:	e58d2000 	str	r2, [sp]
    90ac:	e59f2308 	ldr	r2, [pc, #776]	; 93bc <show_files+0x37c>
    90b0:	e3a01014 	mov	r1, #20, 0
    90b4:	e3a0000a 	mov	r0, #10, 0
    90b8:	ebfffe40 	bl	89c0 <display_write>
    90bc:	ebfffc0f 	bl	8100 <display_update>
    90c0:	e3a00ffa 	mov	r0, #1000	; 0x3e8
    90c4:	eb001a53 	bl	fa18 <delay_ms>
    90c8:	e51bd084 	ldr	sp, [fp, #-132]	; 0xffffff7c
    90cc:	ea0000a3 	b	9360 <show_files+0x320>
    90d0:	e24b2024 	sub	r2, fp, #36, 0	; 0x24
    90d4:	e0822003 	add	r2, r2, r3
    90d8:	e3a0103e 	mov	r1, #62, 0	; 0x3e
    90dc:	e5421054 	strb	r1, [r2, #-84]	; 0xffffffac
    90e0:	e2833001 	add	r3, r3, #1, 0
    90e4:	ea00001d 	b	9160 <show_files+0x120>
    90e8:	e59c2024 	ldr	r2, [ip, #36]	; 0x24
    90ec:	e3520000 	cmp	r2, #0, 0
    90f0:	0a000001 	beq	90fc <show_files+0xbc>
    90f4:	e3530046 	cmp	r3, #70, 0	; 0x46
    90f8:	9a000032 	bls	91c8 <show_files+0x188>
    90fc:	e3530046 	cmp	r3, #70, 0	; 0x46
    9100:	8a000004 	bhi	9118 <show_files+0xd8>
    9104:	e24b2024 	sub	r2, fp, #36, 0	; 0x24
    9108:	e0822003 	add	r2, r2, r3
    910c:	e3a0100a 	mov	r1, #10, 0
    9110:	e5421054 	strb	r1, [r2, #-84]	; 0xffffffac
    9114:	e2833001 	add	r3, r3, #1, 0
    9118:	e3a01000 	mov	r1, #0, 0
    911c:	e24b2024 	sub	r2, fp, #36, 0	; 0x24
    9120:	e0822003 	add	r2, r2, r3
    9124:	e5421054 	strb	r1, [r2, #-84]	; 0xffffffac
    9128:	e28ee001 	add	lr, lr, #1, 0
    912c:	e15e0005 	cmp	lr, r5
    9130:	8a000026 	bhi	91d0 <show_files+0x190>
    9134:	e08ec10e 	add	ip, lr, lr, lsl #2
    9138:	e08e208c 	add	r2, lr, ip, lsl #1
    913c:	e51bc02c 	ldr	ip, [fp, #-44]	; 0xffffffd4
    9140:	e08cc102 	add	ip, ip, r2, lsl #2
    9144:	e154000e 	cmp	r4, lr
    9148:	0affffe0 	beq	90d0 <show_files+0x90>
    914c:	e24b2024 	sub	r2, fp, #36, 0	; 0x24
    9150:	e0822003 	add	r2, r2, r3
    9154:	e3a01020 	mov	r1, #32, 0
    9158:	e5421054 	strb	r1, [r2, #-84]	; 0xffffffac
    915c:	e2833001 	add	r3, r3, #1, 0
    9160:	e3a02000 	mov	r2, #0, 0
    9164:	e7dc1002 	ldrb	r1, [ip, r2]
    9168:	e3510000 	cmp	r1, #0, 0
    916c:	0affffdd 	beq	90e8 <show_files+0xa8>
    9170:	e3530046 	cmp	r3, #70, 0	; 0x46
    9174:	8affffdb 	bhi	90e8 <show_files+0xa8>
    9178:	e2822001 	add	r2, r2, #1, 0
    917c:	e24b0024 	sub	r0, fp, #36, 0	; 0x24
    9180:	e0800003 	add	r0, r0, r3
    9184:	e5401054 	strb	r1, [r0, #-84]	; 0xffffffac
    9188:	e2833001 	add	r3, r3, #1, 0
    918c:	eafffff4 	b	9164 <show_files+0x124>
    9190:	e2421001 	sub	r1, r2, #1, 0
    9194:	e24b0024 	sub	r0, fp, #36, 0	; 0x24
    9198:	e0800001 	add	r0, r0, r1
    919c:	e5500054 	ldrb	r0, [r0, #-84]	; 0xffffffac
    91a0:	e24bc024 	sub	ip, fp, #36, 0	; 0x24
    91a4:	e08c2002 	add	r2, ip, r2
    91a8:	e5420054 	strb	r0, [r2, #-84]	; 0xffffffac
    91ac:	e1a02001 	mov	r2, r1
    91b0:	e3520000 	cmp	r2, #0, 0
    91b4:	cafffff5 	bgt	9190 <show_files+0x150>
    91b8:	e3a0202f 	mov	r2, #47, 0	; 0x2f
    91bc:	e54b2078 	strb	r2, [fp, #-120]	; 0xffffff88
    91c0:	e2833001 	add	r3, r3, #1, 0
    91c4:	eaffffcc 	b	90fc <show_files+0xbc>
    91c8:	e1a02003 	mov	r2, r3
    91cc:	eafffff7 	b	91b0 <show_files+0x170>
    91d0:	e50b6080 	str	r6, [fp, #-128]	; 0xffffff80
    91d4:	ebfffbc2 	bl	80e4 <display_clear>
    91d8:	e3a07001 	mov	r7, #1, 0
    91dc:	e58d7004 	str	r7, [sp, #4]
    91e0:	e3a06000 	mov	r6, #0, 0
    91e4:	e58d6000 	str	r6, [sp]
    91e8:	e1a03007 	mov	r3, r7
    91ec:	e59f21cc 	ldr	r2, [pc, #460]	; 93c0 <show_files+0x380>
    91f0:	e1a01006 	mov	r1, r6
    91f4:	e3a0000a 	mov	r0, #10, 0
    91f8:	ebfffdf0 	bl	89c0 <display_write>
    91fc:	e58d7000 	str	r7, [sp]
    9200:	e3a0300a 	mov	r3, #10, 0
    9204:	e3a02080 	mov	r2, #128, 0	; 0x80
    9208:	e1a01003 	mov	r1, r3
    920c:	e1a00006 	mov	r0, r6
    9210:	ebfffc3d 	bl	830c <display_draw_line>
    9214:	e58d7004 	str	r7, [sp, #4]
    9218:	e58d6000 	str	r6, [sp]
    921c:	e1a03007 	mov	r3, r7
    9220:	e24b2078 	sub	r2, fp, #120, 0	; 0x78
    9224:	e3a0100c 	mov	r1, #12, 0
    9228:	e1a00006 	mov	r0, r6
    922c:	ebfffde3 	bl	89c0 <display_write>
    9230:	e58d7004 	str	r7, [sp, #4]
    9234:	e58d6000 	str	r6, [sp]
    9238:	e1a03007 	mov	r3, r7
    923c:	e59f2180 	ldr	r2, [pc, #384]	; 93c4 <show_files+0x384>
    9240:	e3a01038 	mov	r1, #56, 0	; 0x38
    9244:	e1a00006 	mov	r0, r6
    9248:	ebfffddc 	bl	89c0 <display_write>
    924c:	ebfffbab 	bl	8100 <display_update>
    9250:	e3a00064 	mov	r0, #100, 0	; 0x64
    9254:	eb0019ef 	bl	fa18 <delay_ms>
    9258:	e3a0000a 	mov	r0, #10, 0
    925c:	eb0017b1 	bl	f128 <gpio_read>
    9260:	e1500006 	cmp	r0, r6
    9264:	0a000037 	beq	9348 <show_files+0x308>
    9268:	e3a00008 	mov	r0, #8, 0
    926c:	eb0017ad 	bl	f128 <gpio_read>
    9270:	e3500000 	cmp	r0, #0, 0
    9274:	1a00000d 	bne	92b0 <show_files+0x270>
    9278:	e2493004 	sub	r3, r9, #4, 0
    927c:	e1530004 	cmp	r3, r4
    9280:	9a000008 	bls	92a8 <show_files+0x268>
    9284:	e2844001 	add	r4, r4, #1, 0
    9288:	e1550004 	cmp	r5, r4
    928c:	2a000005 	bcs	92a8 <show_files+0x268>
    9290:	e2886001 	add	r6, r8, #1, 0
    9294:	e51b1080 	ldr	r1, [fp, #-128]	; 0xffffff80
    9298:	e2880004 	add	r0, r8, #4, 0
    929c:	ebfffb69 	bl	8048 <min>
    92a0:	e1a05000 	mov	r5, r0
    92a4:	e1a08006 	mov	r8, r6
    92a8:	e3a000c8 	mov	r0, #200, 0	; 0xc8
    92ac:	eb0019d9 	bl	fa18 <delay_ms>
    92b0:	e3a00007 	mov	r0, #7, 0
    92b4:	eb00179b 	bl	f128 <gpio_read>
    92b8:	e3500000 	cmp	r0, #0, 0
    92bc:	1a000017 	bne	9320 <show_files+0x2e0>
    92c0:	e0843104 	add	r3, r4, r4, lsl #2
    92c4:	e0843083 	add	r3, r4, r3, lsl #1
    92c8:	e51b602c 	ldr	r6, [fp, #-44]	; 0xffffffd4
    92cc:	e0866103 	add	r6, r6, r3, lsl #2
    92d0:	e5963024 	ldr	r3, [r6, #36]	; 0x24
    92d4:	e3530000 	cmp	r3, #0, 0
    92d8:	0a000022 	beq	9368 <show_files+0x328>
    92dc:	ebfffb80 	bl	80e4 <display_clear>
    92e0:	e3a03001 	mov	r3, #1, 0
    92e4:	e58d3004 	str	r3, [sp, #4]
    92e8:	e3a02000 	mov	r2, #0, 0
    92ec:	e58d2000 	str	r2, [sp]
    92f0:	e59f20d0 	ldr	r2, [pc, #208]	; 93c8 <show_files+0x388>
    92f4:	e3a01014 	mov	r1, #20, 0
    92f8:	e3a0000a 	mov	r0, #10, 0
    92fc:	ebfffdaf 	bl	89c0 <display_write>
    9300:	ebfffb7e 	bl	8100 <display_update>
    9304:	e3a00f7d 	mov	r0, #500	; 0x1f4
    9308:	eb0019c2 	bl	fa18 <delay_ms>
    930c:	e1a01006 	mov	r1, r6
    9310:	e1a0000a 	mov	r0, sl
    9314:	ebffff49 	bl	9040 <show_files>
    9318:	e3a000c8 	mov	r0, #200, 0	; 0xc8
    931c:	eb0019bd 	bl	fa18 <delay_ms>
    9320:	e3a00009 	mov	r0, #9, 0
    9324:	eb00177f 	bl	f128 <gpio_read>
    9328:	e3500000 	cmp	r0, #0, 0
    932c:	0a000012 	beq	937c <show_files+0x33c>
    9330:	e3a03000 	mov	r3, #0, 0
    9334:	e54b3078 	strb	r3, [fp, #-120]	; 0xffffff88
    9338:	e1a0e008 	mov	lr, r8
    933c:	e51b2080 	ldr	r2, [fp, #-128]	; 0xffffff80
    9340:	e1a06002 	mov	r6, r2
    9344:	eaffff78 	b	912c <show_files+0xec>
    9348:	e59f107c 	ldr	r1, [pc, #124]	; 93cc <show_files+0x38c>
    934c:	e59f007c 	ldr	r0, [pc, #124]	; 93d0 <show_files+0x390>
    9350:	eb00181c 	bl	f3c8 <printk>
    9354:	e59f0078 	ldr	r0, [pc, #120]	; 93d4 <show_files+0x394>
    9358:	eb00181a 	bl	f3c8 <printk>
    935c:	e51bd084 	ldr	sp, [fp, #-132]	; 0xffffff7c
    9360:	e24bd020 	sub	sp, fp, #32, 0
    9364:	e8bd8ff0 	pop	{r4, r5, r6, r7, r8, r9, sl, fp, pc}
    9368:	e1a02006 	mov	r2, r6
    936c:	e51b1088 	ldr	r1, [fp, #-136]	; 0xffffff78
    9370:	e1a0000a 	mov	r0, sl
    9374:	ebfffe45 	bl	8c90 <display_file>
    9378:	eaffffe6 	b	9318 <show_files+0x2d8>
    937c:	e59f0054 	ldr	r0, [pc, #84]	; 93d8 <show_files+0x398>
    9380:	eb001810 	bl	f3c8 <printk>
    9384:	e3540000 	cmp	r4, #0, 0
    9388:	0a000008 	beq	93b0 <show_files+0x370>
    938c:	e2444001 	sub	r4, r4, #1, 0
    9390:	e1580004 	cmp	r8, r4
    9394:	9a000005 	bls	93b0 <show_files+0x370>
    9398:	e2486001 	sub	r6, r8, #1, 0
    939c:	e51b1080 	ldr	r1, [fp, #-128]	; 0xffffff80
    93a0:	e2880002 	add	r0, r8, #2, 0
    93a4:	ebfffb27 	bl	8048 <min>
    93a8:	e1a05000 	mov	r5, r0
    93ac:	e1a08006 	mov	r8, r6
    93b0:	e3a000c8 	mov	r0, #200, 0	; 0xc8
    93b4:	eb001997 	bl	fa18 <delay_ms>
    93b8:	eaffffdc 	b	9330 <show_files+0x2f0>
    93bc:	0000fdc4 	.word	0x0000fdc4
    93c0:	0000fdd4 	.word	0x0000fdd4
    93c4:	0000fde4 	.word	0x0000fde4
    93c8:	0000fe10 	.word	0x0000fe10
    93cc:	00010210 	.word	0x00010210
    93d0:	0000fd3c 	.word	0x0000fd3c
    93d4:	0000fdfc 	.word	0x0000fdfc
    93d8:	0000fe28 	.word	0x0000fe28

000093dc <notmain>:
    93dc:	e92d4ff0 	push	{r4, r5, r6, r7, r8, r9, sl, fp, lr}
    93e0:	e24dd06c 	sub	sp, sp, #108, 0	; 0x6c
    93e4:	e59f53c8 	ldr	r5, [pc, #968]	; 97b4 <notmain+0x3d8>
    93e8:	e59f43c8 	ldr	r4, [pc, #968]	; 97b8 <notmain+0x3dc>
    93ec:	e1a01005 	mov	r1, r5
    93f0:	e1a00004 	mov	r0, r4
    93f4:	eb0017f3 	bl	f3c8 <printk>
    93f8:	e59f03bc 	ldr	r0, [pc, #956]	; 97bc <notmain+0x3e0>
    93fc:	eb0017f1 	bl	f3c8 <printk>
    9400:	e1a01005 	mov	r1, r5
    9404:	e1a00004 	mov	r0, r4
    9408:	eb0017ee 	bl	f3c8 <printk>
    940c:	e3a0103c 	mov	r1, #60, 0	; 0x3c
    9410:	e59f03a8 	ldr	r0, [pc, #936]	; 97c0 <notmain+0x3e4>
    9414:	eb0017eb 	bl	f3c8 <printk>
    9418:	ebfffb4a 	bl	8148 <display_init>
    941c:	e1a01005 	mov	r1, r5
    9420:	e1a00004 	mov	r0, r4
    9424:	eb0017e7 	bl	f3c8 <printk>
    9428:	e59f0394 	ldr	r0, [pc, #916]	; 97c4 <notmain+0x3e8>
    942c:	eb0017e5 	bl	f3c8 <printk>
    9430:	ebfffb2b 	bl	80e4 <display_clear>
    9434:	ebfffb31 	bl	8100 <display_update>
    9438:	e1a01005 	mov	r1, r5
    943c:	e1a00004 	mov	r0, r4
    9440:	eb0017e0 	bl	f3c8 <printk>
    9444:	e59f037c 	ldr	r0, [pc, #892]	; 97c8 <notmain+0x3ec>
    9448:	eb0017de 	bl	f3c8 <printk>
    944c:	e1a01005 	mov	r1, r5
    9450:	e1a00004 	mov	r0, r4
    9454:	eb0017db 	bl	f3c8 <printk>
    9458:	e59f036c 	ldr	r0, [pc, #876]	; 97cc <notmain+0x3f0>
    945c:	eb0017d9 	bl	f3c8 <printk>
    9460:	e3a00006 	mov	r0, #6, 0
    9464:	eb00172b 	bl	f118 <gpio_set_input>
    9468:	e3a00007 	mov	r0, #7, 0
    946c:	eb001729 	bl	f118 <gpio_set_input>
    9470:	e3a00008 	mov	r0, #8, 0
    9474:	eb001727 	bl	f118 <gpio_set_input>
    9478:	e3a00009 	mov	r0, #9, 0
    947c:	eb001725 	bl	f118 <gpio_set_input>
    9480:	e3a0000a 	mov	r0, #10, 0
    9484:	eb001723 	bl	f118 <gpio_set_input>
    9488:	e1a01005 	mov	r1, r5
    948c:	e1a00004 	mov	r0, r4
    9490:	eb0017cc 	bl	f3c8 <printk>
    9494:	e59f0334 	ldr	r0, [pc, #820]	; 97d0 <notmain+0x3f4>
    9498:	eb0017ca 	bl	f3c8 <printk>
    949c:	e1a01005 	mov	r1, r5
    94a0:	e1a00004 	mov	r0, r4
    94a4:	eb0017c7 	bl	f3c8 <printk>
    94a8:	e59f0324 	ldr	r0, [pc, #804]	; 97d4 <notmain+0x3f8>
    94ac:	eb0017c5 	bl	f3c8 <printk>
    94b0:	e3a01302 	mov	r1, #134217728	; 0x8000000
    94b4:	e3a00601 	mov	r0, #1048576	; 0x100000
    94b8:	eb0013c3 	bl	e3cc <kmalloc_init_set_start>
    94bc:	eb0005e1 	bl	ac48 <pi_sd_init>
    94c0:	e1a01005 	mov	r1, r5
    94c4:	e1a00004 	mov	r0, r4
    94c8:	eb0017be 	bl	f3c8 <printk>
    94cc:	e59f0304 	ldr	r0, [pc, #772]	; 97d8 <notmain+0x3fc>
    94d0:	eb0017bc 	bl	f3c8 <printk>
    94d4:	eb0000ca 	bl	9804 <mbr_read>
    94d8:	e1a06000 	mov	r6, r0
    94dc:	e1a01005 	mov	r1, r5
    94e0:	e1a00004 	mov	r0, r4
    94e4:	eb0017b7 	bl	f3c8 <printk>
    94e8:	e59f02ec 	ldr	r0, [pc, #748]	; 97dc <notmain+0x400>
    94ec:	eb0017b5 	bl	f3c8 <printk>
    94f0:	e3a02010 	mov	r2, #16, 0
    94f4:	e2861f6f 	add	r1, r6, #444	; 0x1bc
    94f8:	e2811002 	add	r1, r1, #2, 0
    94fc:	e28d0058 	add	r0, sp, #88, 0	; 0x58
    9500:	eb001751 	bl	f24c <memcpy>
    9504:	e5dd305c 	ldrb	r3, [sp, #92]	; 0x5c
    9508:	e243300b 	sub	r3, r3, #11, 0
    950c:	e3530001 	cmp	r3, #1, 0
    9510:	8a000017 	bhi	9574 <notmain+0x198>
    9514:	e59f5298 	ldr	r5, [pc, #664]	; 97b4 <notmain+0x3d8>
    9518:	e59f4298 	ldr	r4, [pc, #664]	; 97b8 <notmain+0x3dc>
    951c:	e1a01005 	mov	r1, r5
    9520:	e1a00004 	mov	r0, r4
    9524:	eb0017a7 	bl	f3c8 <printk>
    9528:	e59f02b0 	ldr	r0, [pc, #688]	; 97e0 <notmain+0x404>
    952c:	eb0017a5 	bl	f3c8 <printk>
    9530:	e28d1058 	add	r1, sp, #88, 0	; 0x58
    9534:	e28d003c 	add	r0, sp, #60, 0	; 0x3c
    9538:	eb0001fe 	bl	9d38 <fat32_mk>
    953c:	e1a01005 	mov	r1, r5
    9540:	e1a00004 	mov	r0, r4
    9544:	eb00179f 	bl	f3c8 <printk>
    9548:	e59f0294 	ldr	r0, [pc, #660]	; 97e4 <notmain+0x408>
    954c:	eb00179d 	bl	f3c8 <printk>
    9550:	e28d103c 	add	r1, sp, #60, 0	; 0x3c
    9554:	e28d0010 	add	r0, sp, #16, 0
    9558:	eb00028b 	bl	9f8c <fat32_get_root>
    955c:	e3a07000 	mov	r7, #0, 0
    9560:	e3a0b001 	mov	fp, #1, 0
    9564:	e58db00c 	str	fp, [sp, #12]
    9568:	e3a0901e 	mov	r9, #30, 0
    956c:	e3a08040 	mov	r8, #64, 0	; 0x40
    9570:	ea000012 	b	95c0 <notmain+0x1e4>
    9574:	e59f326c 	ldr	r3, [pc, #620]	; 97e8 <notmain+0x40c>
    9578:	e58d3000 	str	r3, [sp]
    957c:	e3a03d06 	mov	r3, #384	; 0x180
    9580:	e1a02005 	mov	r2, r5
    9584:	e59f1260 	ldr	r1, [pc, #608]	; 97ec <notmain+0x410>
    9588:	e59f0260 	ldr	r0, [pc, #608]	; 97f0 <notmain+0x414>
    958c:	eb00178d 	bl	f3c8 <printk>
    9590:	eb0018bc 	bl	f888 <clean_reboot>
    9594:	e1a03006 	mov	r3, r6
    9598:	e58d6004 	str	r6, [sp, #4]
    959c:	e58da000 	str	sl, [sp]
    95a0:	e59f224c 	ldr	r2, [pc, #588]	; 97f4 <notmain+0x418>
    95a4:	e3a01030 	mov	r1, #48, 0	; 0x30
    95a8:	e3a0000a 	mov	r0, #10, 0
    95ac:	ebfffd03 	bl	89c0 <display_write>
    95b0:	ea000060 	b	9738 <notmain+0x35c>
    95b4:	e2877001 	add	r7, r7, #1, 0
    95b8:	e3a00032 	mov	r0, #50, 0	; 0x32
    95bc:	eb001915 	bl	fa18 <delay_ms>
    95c0:	e3a00006 	mov	r0, #6, 0
    95c4:	eb0016d7 	bl	f128 <gpio_read>
    95c8:	e3500000 	cmp	r0, #0, 0
    95cc:	0a000065 	beq	9768 <notmain+0x38c>
    95d0:	e3a00007 	mov	r0, #7, 0
    95d4:	eb0016d3 	bl	f128 <gpio_read>
    95d8:	e3500000 	cmp	r0, #0, 0
    95dc:	0a000061 	beq	9768 <notmain+0x38c>
    95e0:	e3a00008 	mov	r0, #8, 0
    95e4:	eb0016cf 	bl	f128 <gpio_read>
    95e8:	e3500000 	cmp	r0, #0, 0
    95ec:	0a00005d 	beq	9768 <notmain+0x38c>
    95f0:	e3a00009 	mov	r0, #9, 0
    95f4:	eb0016cb 	bl	f128 <gpio_read>
    95f8:	e3500000 	cmp	r0, #0, 0
    95fc:	0a000059 	beq	9768 <notmain+0x38c>
    9600:	e3a0000a 	mov	r0, #10, 0
    9604:	eb0016c7 	bl	f128 <gpio_read>
    9608:	e3500000 	cmp	r0, #0, 0
    960c:	0a000055 	beq	9768 <notmain+0x38c>
    9610:	ebfffab3 	bl	80e4 <display_clear>
    9614:	e3a06001 	mov	r6, #1, 0
    9618:	e58d6004 	str	r6, [sp, #4]
    961c:	e3a0a000 	mov	sl, #0, 0
    9620:	e58da000 	str	sl, [sp]
    9624:	e1a03006 	mov	r3, r6
    9628:	e59f21c8 	ldr	r2, [pc, #456]	; 97f8 <notmain+0x41c>
    962c:	e3a01002 	mov	r1, #2, 0
    9630:	e3a00008 	mov	r0, #8, 0
    9634:	ebfffce1 	bl	89c0 <display_write>
    9638:	e58d6000 	str	r6, [sp]
    963c:	e3a0300c 	mov	r3, #12, 0
    9640:	e3a02080 	mov	r2, #128, 0	; 0x80
    9644:	e1a01003 	mov	r1, r3
    9648:	e1a0000a 	mov	r0, sl
    964c:	ebfffb2e 	bl	830c <display_draw_line>
    9650:	e6ff4078 	uxth	r4, r8
    9654:	e2440007 	sub	r0, r4, #7, 0
    9658:	e6ff5079 	uxth	r5, r9
    965c:	e2451004 	sub	r1, r5, #4, 0
    9660:	e58d6000 	str	r6, [sp]
    9664:	e3a0300a 	mov	r3, #10, 0
    9668:	e3a0200e 	mov	r2, #14, 0
    966c:	e6bf1071 	sxth	r1, r1
    9670:	e6bf0070 	sxth	r0, r0
    9674:	ebfffb9b 	bl	84e8 <display_fill_rect>
    9678:	e2440005 	sub	r0, r4, #5, 0
    967c:	e2451006 	sub	r1, r5, #6, 0
    9680:	e58d6000 	str	r6, [sp]
    9684:	e3a03002 	mov	r3, #2, 0
    9688:	e3a0200a 	mov	r2, #10, 0
    968c:	e6bf1071 	sxth	r1, r1
    9690:	e6bf0070 	sxth	r0, r0
    9694:	ebfffb93 	bl	84e8 <display_fill_rect>
    9698:	e2440006 	sub	r0, r4, #6, 0
    969c:	e2451003 	sub	r1, r5, #3, 0
    96a0:	e58da000 	str	sl, [sp]
    96a4:	e3a03008 	mov	r3, #8, 0
    96a8:	e3a0200c 	mov	r2, #12, 0
    96ac:	e6bf1071 	sxth	r1, r1
    96b0:	e6bf0070 	sxth	r0, r0
    96b4:	ebfffb8b 	bl	84e8 <display_fill_rect>
    96b8:	e2444004 	sub	r4, r4, #4, 0
    96bc:	e6bf4074 	sxth	r4, r4
    96c0:	e2451002 	sub	r1, r5, #2, 0
    96c4:	e58d6000 	str	r6, [sp]
    96c8:	e3a03002 	mov	r3, #2, 0
    96cc:	e3a02008 	mov	r2, #8, 0
    96d0:	e6bf1071 	sxth	r1, r1
    96d4:	e1a00004 	mov	r0, r4
    96d8:	ebfffb82 	bl	84e8 <display_fill_rect>
    96dc:	e0851006 	add	r1, r5, r6
    96e0:	e58d6000 	str	r6, [sp]
    96e4:	e3a03002 	mov	r3, #2, 0
    96e8:	e3a02008 	mov	r2, #8, 0
    96ec:	e6bf1071 	sxth	r1, r1
    96f0:	e1a00004 	mov	r0, r4
    96f4:	ebfffb7b 	bl	84e8 <display_fill_rect>
    96f8:	e2851004 	add	r1, r5, #4, 0
    96fc:	e58d6000 	str	r6, [sp]
    9700:	e3a03002 	mov	r3, #2, 0
    9704:	e3a02008 	mov	r2, #8, 0
    9708:	e6bf1071 	sxth	r1, r1
    970c:	e1a00004 	mov	r0, r4
    9710:	ebfffb74 	bl	84e8 <display_fill_rect>
    9714:	e59f30e0 	ldr	r3, [pc, #224]	; 97fc <notmain+0x420>
    9718:	e0c32793 	smull	r2, r3, r3, r7
    971c:	e0832007 	add	r2, r3, r7
    9720:	e1a03fc7 	asr	r3, r7, #31
    9724:	e0633242 	rsb	r3, r3, r2, asr #4
    9728:	e0633203 	rsb	r3, r3, r3, lsl #4
    972c:	e0473613 	sub	r3, r7, r3, lsl r6
    9730:	e353000e 	cmp	r3, #14, 0
    9734:	daffff96 	ble	9594 <notmain+0x1b8>
    9738:	ebfffa70 	bl	8100 <display_update>
    973c:	e59d200c 	ldr	r2, [sp, #12]
    9740:	e0888002 	add	r8, r8, r2
    9744:	e089900b 	add	r9, r9, fp
    9748:	e248300b 	sub	r3, r8, #11, 0
    974c:	e353006a 	cmp	r3, #106, 0	; 0x6a
    9750:	82623000 	rsbhi	r3, r2, #0, 0
    9754:	858d300c 	strhi	r3, [sp, #12]
    9758:	e2493015 	sub	r3, r9, #21, 0
    975c:	e3530012 	cmp	r3, #18, 0
    9760:	826bb000 	rsbhi	fp, fp, #0, 0
    9764:	eaffff92 	b	95b4 <notmain+0x1d8>
    9768:	e3a000c8 	mov	r0, #200, 0	; 0xc8
    976c:	eb0018a9 	bl	fa18 <delay_ms>
    9770:	e28d1010 	add	r1, sp, #16, 0
    9774:	e28d003c 	add	r0, sp, #60, 0	; 0x3c
    9778:	ebfffe30 	bl	9040 <show_files>
    977c:	ebfffa58 	bl	80e4 <display_clear>
    9780:	e3a03001 	mov	r3, #1, 0
    9784:	e58d3004 	str	r3, [sp, #4]
    9788:	e3a02000 	mov	r2, #0, 0
    978c:	e58d2000 	str	r2, [sp]
    9790:	e59f2068 	ldr	r2, [pc, #104]	; 9800 <notmain+0x424>
    9794:	e3a01014 	mov	r1, #20, 0
    9798:	e3a0000a 	mov	r0, #10, 0
    979c:	ebfffc87 	bl	89c0 <display_write>
    97a0:	ebfffa56 	bl	8100 <display_update>
    97a4:	e3a00e7d 	mov	r0, #2000	; 0x7d0
    97a8:	eb00189a 	bl	fa18 <delay_ms>
    97ac:	e28dd06c 	add	sp, sp, #108, 0	; 0x6c
    97b0:	e8bd8ff0 	pop	{r4, r5, r6, r7, r8, r9, sl, fp, pc}
    97b4:	0001021c 	.word	0x0001021c
    97b8:	0000fd3c 	.word	0x0000fd3c
    97bc:	0000fe44 	.word	0x0000fe44
    97c0:	0000fe70 	.word	0x0000fe70
    97c4:	0000fe9c 	.word	0x0000fe9c
    97c8:	0000feb4 	.word	0x0000feb4
    97cc:	0000fec8 	.word	0x0000fec8
    97d0:	0000fee0 	.word	0x0000fee0
    97d4:	0000fef8 	.word	0x0000fef8
    97d8:	0000ff14 	.word	0x0000ff14
    97dc:	0000ff28 	.word	0x0000ff28
    97e0:	0000ffb4 	.word	0x0000ffb4
    97e4:	0000ffc8 	.word	0x0000ffc8
    97e8:	0000ff8c 	.word	0x0000ff8c
    97ec:	0000ff48 	.word	0x0000ff48
    97f0:	0000ff5c 	.word	0x0000ff5c
    97f4:	0000fff8 	.word	0x0000fff8
    97f8:	0000ffe4 	.word	0x0000ffe4
    97fc:	88888889 	.word	0x88888889
    9800:	0001000c 	.word	0x0001000c

00009804 <mbr_read>:
    9804:	e92d4010 	push	{r4, lr}
    9808:	e3a01001 	mov	r1, #1, 0
    980c:	e3a00000 	mov	r0, #0, 0
    9810:	eb000570 	bl	add8 <pi_sec_read>
    9814:	e1a04000 	mov	r4, r0
    9818:	eb000769 	bl	b5c4 <mbr_check>
    981c:	e1a00004 	mov	r0, r4
    9820:	e8bd8010 	pop	{r4, pc}

00009824 <min>:
    9824:	e1500001 	cmp	r0, r1
    9828:	312fff1e 	bxcc	lr
    982c:	e1a00001 	mov	r0, r1
    9830:	e12fff1e 	bx	lr

00009834 <cluster_to_lba>:
    9834:	e92d4030 	push	{r4, r5, lr}
    9838:	e24dd00c 	sub	sp, sp, #12, 0
    983c:	e3510001 	cmp	r1, #1, 0
    9840:	9a00000e 	bls	9880 <cluster_to_lba+0x4c>
    9844:	e1a04001 	mov	r4, r1
    9848:	e5903008 	ldr	r3, [r0, #8]
    984c:	e2415002 	sub	r5, r1, #2, 0
    9850:	e590200c 	ldr	r2, [r0, #12]
    9854:	e0253592 	mla	r5, r2, r5, r3
    9858:	e59f1040 	ldr	r1, [pc, #64]	; 98a0 <cluster_to_lba+0x6c>
    985c:	e59f0040 	ldr	r0, [pc, #64]	; 98a4 <cluster_to_lba+0x70>
    9860:	eb0016d8 	bl	f3c8 <printk>
    9864:	e1a02005 	mov	r2, r5
    9868:	e1a01004 	mov	r1, r4
    986c:	e59f0034 	ldr	r0, [pc, #52]	; 98a8 <cluster_to_lba+0x74>
    9870:	eb0016d4 	bl	f3c8 <printk>
    9874:	e1a00005 	mov	r0, r5
    9878:	e28dd00c 	add	sp, sp, #12, 0
    987c:	e8bd8030 	pop	{r4, r5, pc}
    9880:	e59f3024 	ldr	r3, [pc, #36]	; 98ac <cluster_to_lba+0x78>
    9884:	e58d3000 	str	r3, [sp]
    9888:	e3a0305b 	mov	r3, #91, 0	; 0x5b
    988c:	e59f200c 	ldr	r2, [pc, #12]	; 98a0 <cluster_to_lba+0x6c>
    9890:	e59f1018 	ldr	r1, [pc, #24]	; 98b0 <cluster_to_lba+0x7c>
    9894:	e59f0018 	ldr	r0, [pc, #24]	; 98b4 <cluster_to_lba+0x80>
    9898:	eb0016ca 	bl	f3c8 <printk>
    989c:	eb0017f9 	bl	f888 <clean_reboot>
    98a0:	00010760 	.word	0x00010760
    98a4:	0000fd3c 	.word	0x0000fd3c
    98a8:	00010240 	.word	0x00010240
    98ac:	0001022c 	.word	0x0001022c
    98b0:	00010224 	.word	0x00010224
    98b4:	0000ff5c 	.word	0x0000ff5c

000098b8 <get_cluster_chain_length>:
    98b8:	e92d4070 	push	{r4, r5, r6, lr}
    98bc:	e2514000 	subs	r4, r1, #0, 0
    98c0:	0a000009 	beq	98ec <get_cluster_chain_length+0x34>
    98c4:	e1a06000 	mov	r6, r0
    98c8:	e3a05000 	mov	r5, #0, 0
    98cc:	e1a00004 	mov	r0, r4
    98d0:	eb0009eb 	bl	c084 <fat32_fat_entry_type>
    98d4:	e370028f 	cmn	r0, #-268435448	; 0xf0000008
    98d8:	0a000004 	beq	98f0 <get_cluster_chain_length+0x38>
    98dc:	e5963014 	ldr	r3, [r6, #20]
    98e0:	e7934104 	ldr	r4, [r3, r4, lsl #2]
    98e4:	e2855001 	add	r5, r5, #1, 0
    98e8:	eafffff7 	b	98cc <get_cluster_chain_length+0x14>
    98ec:	e1a05004 	mov	r5, r4
    98f0:	e1a00005 	mov	r0, r5
    98f4:	e8bd8070 	pop	{r4, r5, r6, pc}

000098f8 <find_free_cluster>:
    98f8:	e92d41f0 	push	{r4, r5, r6, r7, r8, lr}
    98fc:	e1a05000 	mov	r5, r0
    9900:	e1a08001 	mov	r8, r1
    9904:	e3510002 	cmp	r1, #2, 0
    9908:	93a08003 	movls	r8, #3, 0
    990c:	e5957018 	ldr	r7, [r5, #24]
    9910:	e1a04008 	mov	r4, r8
    9914:	e1a06004 	mov	r6, r4
    9918:	e1540007 	cmp	r4, r7
    991c:	2a000006 	bcs	993c <find_free_cluster+0x44>
    9920:	e5953014 	ldr	r3, [r5, #20]
    9924:	e7930104 	ldr	r0, [r3, r4, lsl #2]
    9928:	eb0009d5 	bl	c084 <fat32_fat_entry_type>
    992c:	e3500000 	cmp	r0, #0, 0
    9930:	0a00000e 	beq	9970 <find_free_cluster+0x78>
    9934:	e2844001 	add	r4, r4, #1, 0
    9938:	eafffff5 	b	9914 <find_free_cluster+0x1c>
    993c:	e59f4034 	ldr	r4, [pc, #52]	; 9978 <find_free_cluster+0x80>
    9940:	e1a01004 	mov	r1, r4
    9944:	e59f0030 	ldr	r0, [pc, #48]	; 997c <find_free_cluster+0x84>
    9948:	eb00169e 	bl	f3c8 <printk>
    994c:	e1a01008 	mov	r1, r8
    9950:	e59f0028 	ldr	r0, [pc, #40]	; 9980 <find_free_cluster+0x88>
    9954:	eb00169b 	bl	f3c8 <printk>
    9958:	e3a03f55 	mov	r3, #340	; 0x154
    995c:	e1a02004 	mov	r2, r4
    9960:	e59f101c 	ldr	r1, [pc, #28]	; 9984 <find_free_cluster+0x8c>
    9964:	e59f001c 	ldr	r0, [pc, #28]	; 9988 <find_free_cluster+0x90>
    9968:	eb001696 	bl	f3c8 <printk>
    996c:	eb0017c5 	bl	f888 <clean_reboot>
    9970:	e1a00006 	mov	r0, r6
    9974:	e8bd81f0 	pop	{r4, r5, r6, r7, r8, pc}
    9978:	00010770 	.word	0x00010770
    997c:	0000fd3c 	.word	0x0000fd3c
    9980:	00010258 	.word	0x00010258
    9984:	00010224 	.word	0x00010224
    9988:	00010280 	.word	0x00010280

0000998c <read_cluster_chain>:
    998c:	e92d41f0 	push	{r4, r5, r6, r7, r8, lr}
    9990:	e1a04000 	mov	r4, r0
    9994:	e1a07002 	mov	r7, r2
    9998:	e3a03000 	mov	r3, #0, 0
    999c:	e5c23000 	strb	r3, [r2]
    99a0:	e2516000 	subs	r6, r1, #0, 0
    99a4:	08bd81f0 	popeq	{r4, r5, r6, r7, r8, pc}
    99a8:	e1a00006 	mov	r0, r6
    99ac:	eb0009b4 	bl	c084 <fat32_fat_entry_type>
    99b0:	e370028f 	cmn	r0, #-268435448	; 0xf0000008
    99b4:	08bd81f0 	popeq	{r4, r5, r6, r7, r8, pc}
    99b8:	e1a01006 	mov	r1, r6
    99bc:	e1a00004 	mov	r0, r4
    99c0:	ebffff9b 	bl	9834 <cluster_to_lba>
    99c4:	e594100c 	ldr	r1, [r4, #12]
    99c8:	eb000502 	bl	add8 <pi_sec_read>
    99cc:	e1a01000 	mov	r1, r0
    99d0:	e594200c 	ldr	r2, [r4, #12]
    99d4:	e59f5034 	ldr	r5, [pc, #52]	; 9a10 <read_cluster_chain+0x84>
    99d8:	e5d5300b 	ldrb	r3, [r5, #11]
    99dc:	e5d5000c 	ldrb	r0, [r5, #12]
    99e0:	e1833400 	orr	r3, r3, r0, lsl #8
    99e4:	e0020293 	mul	r2, r3, r2
    99e8:	e1a00007 	mov	r0, r7
    99ec:	eb001616 	bl	f24c <memcpy>
    99f0:	e594200c 	ldr	r2, [r4, #12]
    99f4:	e5d5300b 	ldrb	r3, [r5, #11]
    99f8:	e5d5100c 	ldrb	r1, [r5, #12]
    99fc:	e1833401 	orr	r3, r3, r1, lsl #8
    9a00:	e0277293 	mla	r7, r3, r2, r7
    9a04:	e5943014 	ldr	r3, [r4, #20]
    9a08:	e7936106 	ldr	r6, [r3, r6, lsl #2]
    9a0c:	eaffffe5 	b	99a8 <read_cluster_chain+0x1c>
    9a10:	00013548 	.word	0x00013548

00009a14 <get_dirents>:
    9a14:	e92d41f0 	push	{r4, r5, r6, r7, r8, lr}
    9a18:	e1a07000 	mov	r7, r0
    9a1c:	e1a08001 	mov	r8, r1
    9a20:	e1a06002 	mov	r6, r2
    9a24:	ebffffa3 	bl	98b8 <get_cluster_chain_length>
    9a28:	e59f3040 	ldr	r3, [pc, #64]	; 9a70 <get_dirents+0x5c>
    9a2c:	e5d3400d 	ldrb	r4, [r3, #13]
    9a30:	e0000490 	mul	r0, r0, r4
    9a34:	e5d3400b 	ldrb	r4, [r3, #11]
    9a38:	e5d3300c 	ldrb	r3, [r3, #12]
    9a3c:	e1844403 	orr	r4, r4, r3, lsl #8
    9a40:	e0040094 	mul	r4, r4, r0
    9a44:	e1a00004 	mov	r0, r4
    9a48:	eb0012d8 	bl	e5b0 <kmalloc>
    9a4c:	e1a05000 	mov	r5, r0
    9a50:	e1a02000 	mov	r2, r0
    9a54:	e1a01008 	mov	r1, r8
    9a58:	e1a00007 	mov	r0, r7
    9a5c:	ebffffca 	bl	998c <read_cluster_chain>
    9a60:	e1a042a4 	lsr	r4, r4, #5
    9a64:	e5864000 	str	r4, [r6]
    9a68:	e1a00005 	mov	r0, r5
    9a6c:	e8bd81f0 	pop	{r4, r5, r6, r7, r8, pc}
    9a70:	00013548 	.word	0x00013548

00009a74 <dirent_convert>:
    9a74:	e92d4030 	push	{r4, r5, lr}
    9a78:	e24dd034 	sub	sp, sp, #52, 0	; 0x34
    9a7c:	e1a05000 	mov	r5, r0
    9a80:	e1a04001 	mov	r4, r1
    9a84:	e3a0202c 	mov	r2, #44, 0	; 0x2c
    9a88:	e3a01000 	mov	r1, #0, 0
    9a8c:	e28d0004 	add	r0, sp, #4, 0
    9a90:	eb001624 	bl	f328 <memset>
    9a94:	e5d43014 	ldrb	r3, [r4, #20]
    9a98:	e5d42015 	ldrb	r2, [r4, #21]
    9a9c:	e1832402 	orr	r2, r3, r2, lsl #8
    9aa0:	e5d4301a 	ldrb	r3, [r4, #26]
    9aa4:	e5d4101b 	ldrb	r1, [r4, #27]
    9aa8:	e1833401 	orr	r3, r3, r1, lsl #8
    9aac:	e1833802 	orr	r3, r3, r2, lsl #16
    9ab0:	e58d3024 	str	r3, [sp, #36]	; 0x24
    9ab4:	e5d4300b 	ldrb	r3, [r4, #11]
    9ab8:	e3530010 	cmp	r3, #16, 0
    9abc:	13a03000 	movne	r3, #0, 0
    9ac0:	03a03001 	moveq	r3, #1, 0
    9ac4:	e58d3028 	str	r3, [sp, #40]	; 0x28
    9ac8:	e5d4301c 	ldrb	r3, [r4, #28]
    9acc:	e5d4201d 	ldrb	r2, [r4, #29]
    9ad0:	e1833402 	orr	r3, r3, r2, lsl #8
    9ad4:	e5d4201e 	ldrb	r2, [r4, #30]
    9ad8:	e1833802 	orr	r3, r3, r2, lsl #16
    9adc:	e5d4201f 	ldrb	r2, [r4, #31]
    9ae0:	e1833c02 	orr	r3, r3, r2, lsl #24
    9ae4:	e58d302c 	str	r3, [sp, #44]	; 0x2c
    9ae8:	e3a0200b 	mov	r2, #11, 0
    9aec:	e1a01004 	mov	r1, r4
    9af0:	e28d0014 	add	r0, sp, #20, 0
    9af4:	eb0015d4 	bl	f24c <memcpy>
    9af8:	e28d1004 	add	r1, sp, #4, 0
    9afc:	e1a00004 	mov	r0, r4
    9b00:	eb000a0a 	bl	c330 <fat32_dirent_name>
    9b04:	e1a0e005 	mov	lr, r5
    9b08:	e28dc004 	add	ip, sp, #4, 0
    9b0c:	e8bc000f 	ldm	ip!, {r0, r1, r2, r3}
    9b10:	e8ae000f 	stmia	lr!, {r0, r1, r2, r3}
    9b14:	e8bc000f 	ldm	ip!, {r0, r1, r2, r3}
    9b18:	e8ae000f 	stmia	lr!, {r0, r1, r2, r3}
    9b1c:	e89c0007 	ldm	ip, {r0, r1, r2}
    9b20:	e88e0007 	stm	lr, {r0, r1, r2}
    9b24:	e1a00005 	mov	r0, r5
    9b28:	e28dd034 	add	sp, sp, #52, 0	; 0x34
    9b2c:	e8bd8030 	pop	{r4, r5, pc}

00009b30 <find_dirent_with_name>:
    9b30:	e92d40f0 	push	{r4, r5, r6, r7, lr}
    9b34:	e24dd014 	sub	sp, sp, #20, 0
    9b38:	e1a07000 	mov	r7, r0
    9b3c:	e1a05001 	mov	r5, r1
    9b40:	e1a06002 	mov	r6, r2
    9b44:	e3a04000 	mov	r4, #0, 0
    9b48:	e1540005 	cmp	r4, r5
    9b4c:	aa000009 	bge	9b78 <find_dirent_with_name+0x48>
    9b50:	e1a0100d 	mov	r1, sp
    9b54:	e0870284 	add	r0, r7, r4, lsl #5
    9b58:	eb0009f4 	bl	c330 <fat32_dirent_name>
    9b5c:	e1a01006 	mov	r1, r6
    9b60:	e1a0000d 	mov	r0, sp
    9b64:	eb00172d 	bl	f820 <strcmp>
    9b68:	e3500000 	cmp	r0, #0, 0
    9b6c:	0a000002 	beq	9b7c <find_dirent_with_name+0x4c>
    9b70:	e2844001 	add	r4, r4, #1, 0
    9b74:	eafffff3 	b	9b48 <find_dirent_with_name+0x18>
    9b78:	e3e04000 	mvn	r4, #0, 0
    9b7c:	e1a00004 	mov	r0, r4
    9b80:	e28dd014 	add	sp, sp, #20, 0
    9b84:	e8bd80f0 	pop	{r4, r5, r6, r7, pc}

00009b88 <write_fat_to_disk>:
    9b88:	e92d4010 	push	{r4, lr}
    9b8c:	e1a04000 	mov	r4, r0
    9b90:	e59f103c 	ldr	r1, [pc, #60]	; 9bd4 <write_fat_to_disk+0x4c>
    9b94:	e59f003c 	ldr	r0, [pc, #60]	; 9bd8 <write_fat_to_disk+0x50>
    9b98:	eb00160a 	bl	f3c8 <printk>
    9b9c:	e59f0038 	ldr	r0, [pc, #56]	; 9bdc <write_fat_to_disk+0x54>
    9ba0:	eb001608 	bl	f3c8 <printk>
    9ba4:	e59f1034 	ldr	r1, [pc, #52]	; 9be0 <write_fat_to_disk+0x58>
    9ba8:	e5d13024 	ldrb	r3, [r1, #36]	; 0x24
    9bac:	e5d12025 	ldrb	r2, [r1, #37]	; 0x25
    9bb0:	e1833402 	orr	r3, r3, r2, lsl #8
    9bb4:	e5d12026 	ldrb	r2, [r1, #38]	; 0x26
    9bb8:	e1833802 	orr	r3, r3, r2, lsl #16
    9bbc:	e5d12027 	ldrb	r2, [r1, #39]	; 0x27
    9bc0:	e1832c02 	orr	r2, r3, r2, lsl #24
    9bc4:	e5941004 	ldr	r1, [r4, #4]
    9bc8:	e5940014 	ldr	r0, [r4, #20]
    9bcc:	eb0004a8 	bl	ae74 <pi_sd_write>
    9bd0:	e8bd8010 	pop	{r4, pc}
    9bd4:	00010784 	.word	0x00010784
    9bd8:	0000fd3c 	.word	0x0000fd3c
    9bdc:	000102b0 	.word	0x000102b0
    9be0:	00013548 	.word	0x00013548

00009be4 <write_cluster_chain>:
    9be4:	e92d47f0 	push	{r4, r5, r6, r7, r8, r9, sl, lr}
    9be8:	e2538000 	subs	r8, r3, #0, 0
    9bec:	0a00000b 	beq	9c20 <write_cluster_chain+0x3c>
    9bf0:	e1a04000 	mov	r4, r0
    9bf4:	e1a06001 	mov	r6, r1
    9bf8:	e1a09002 	mov	r9, r2
    9bfc:	e59f1120 	ldr	r1, [pc, #288]	; 9d24 <write_cluster_chain+0x140>
    9c00:	e59f0120 	ldr	r0, [pc, #288]	; 9d28 <write_cluster_chain+0x144>
    9c04:	eb0015ef 	bl	f3c8 <printk>
    9c08:	e1a02006 	mov	r2, r6
    9c0c:	e1a01008 	mov	r1, r8
    9c10:	e59f0114 	ldr	r0, [pc, #276]	; 9d2c <write_cluster_chain+0x148>
    9c14:	eb0015eb 	bl	f3c8 <printk>
    9c18:	e3a05000 	mov	r5, #0, 0
    9c1c:	ea000011 	b	9c68 <write_cluster_chain+0x84>
    9c20:	e59f10fc 	ldr	r1, [pc, #252]	; 9d24 <write_cluster_chain+0x140>
    9c24:	e59f00fc 	ldr	r0, [pc, #252]	; 9d28 <write_cluster_chain+0x144>
    9c28:	eb0015e6 	bl	f3c8 <printk>
    9c2c:	e59f00fc 	ldr	r0, [pc, #252]	; 9d30 <write_cluster_chain+0x14c>
    9c30:	eb0015e4 	bl	f3c8 <printk>
    9c34:	e8bd87f0 	pop	{r4, r5, r6, r7, r8, r9, sl, pc}
    9c38:	e1a01006 	mov	r1, r6
    9c3c:	e1a00004 	mov	r0, r4
    9c40:	ebffff2c 	bl	98f8 <find_free_cluster>
    9c44:	e1a07000 	mov	r7, r0
    9c48:	e5943014 	ldr	r3, [r4, #20]
    9c4c:	e7830106 	str	r0, [r3, r6, lsl #2]
    9c50:	e5943014 	ldr	r3, [r4, #20]
    9c54:	e3e0227f 	mvn	r2, #-268435449	; 0xf0000007
    9c58:	e7832100 	str	r2, [r3, r0, lsl #2]
    9c5c:	e1a00004 	mov	r0, r4
    9c60:	ebffffc8 	bl	9b88 <write_fat_to_disk>
    9c64:	e1a06007 	mov	r6, r7
    9c68:	e1550008 	cmp	r5, r8
    9c6c:	2a000017 	bcs	9cd0 <write_cluster_chain+0xec>
    9c70:	e59f30bc 	ldr	r3, [pc, #188]	; 9d34 <write_cluster_chain+0x150>
    9c74:	e5d3100b 	ldrb	r1, [r3, #11]
    9c78:	e5d3300c 	ldrb	r3, [r3, #12]
    9c7c:	e1811403 	orr	r1, r1, r3, lsl #8
    9c80:	e594300c 	ldr	r3, [r4, #12]
    9c84:	e0010193 	mul	r1, r3, r1
    9c88:	e0480005 	sub	r0, r8, r5
    9c8c:	ebfffee4 	bl	9824 <min>
    9c90:	e1a07000 	mov	r7, r0
    9c94:	e1a01006 	mov	r1, r6
    9c98:	e1a00004 	mov	r0, r4
    9c9c:	ebfffee4 	bl	9834 <cluster_to_lba>
    9ca0:	e1a01000 	mov	r1, r0
    9ca4:	e594200c 	ldr	r2, [r4, #12]
    9ca8:	e0890005 	add	r0, r9, r5
    9cac:	eb000470 	bl	ae74 <pi_sd_write>
    9cb0:	e0855007 	add	r5, r5, r7
    9cb4:	e1a00006 	mov	r0, r6
    9cb8:	eb0008f1 	bl	c084 <fat32_fat_entry_type>
    9cbc:	e370028f 	cmn	r0, #-268435448	; 0xf0000008
    9cc0:	0affffdc 	beq	9c38 <write_cluster_chain+0x54>
    9cc4:	e5943014 	ldr	r3, [r4, #20]
    9cc8:	e7936106 	ldr	r6, [r3, r6, lsl #2]
    9ccc:	eaffffe5 	b	9c68 <write_cluster_chain+0x84>
    9cd0:	e1a05006 	mov	r5, r6
    9cd4:	e1a00005 	mov	r0, r5
    9cd8:	eb0008e9 	bl	c084 <fat32_fat_entry_type>
    9cdc:	e370028f 	cmn	r0, #-268435448	; 0xf0000008
    9ce0:	0a000009 	beq	9d0c <write_cluster_chain+0x128>
    9ce4:	e1a00005 	mov	r0, r5
    9ce8:	eb0008e5 	bl	c084 <fat32_fat_entry_type>
    9cec:	e3500000 	cmp	r0, #0, 0
    9cf0:	0a000005 	beq	9d0c <write_cluster_chain+0x128>
    9cf4:	e5943014 	ldr	r3, [r4, #20]
    9cf8:	e1a02105 	lsl	r2, r5, #2
    9cfc:	e7935105 	ldr	r5, [r3, r5, lsl #2]
    9d00:	e3a01000 	mov	r1, #0, 0
    9d04:	e7831002 	str	r1, [r3, r2]
    9d08:	eafffff1 	b	9cd4 <write_cluster_chain+0xf0>
    9d0c:	e5943014 	ldr	r3, [r4, #20]
    9d10:	e3e0227f 	mvn	r2, #-268435449	; 0xf0000007
    9d14:	e7832106 	str	r2, [r3, r6, lsl #2]
    9d18:	e1a00004 	mov	r0, r4
    9d1c:	ebffff99 	bl	9b88 <write_fat_to_disk>
    9d20:	e8bd87f0 	pop	{r4, r5, r6, r7, r8, r9, sl, pc}
    9d24:	00010798 	.word	0x00010798
    9d28:	0000fd3c 	.word	0x0000fd3c
    9d2c:	000102f4 	.word	0x000102f4
    9d30:	000102c0 	.word	0x000102c0
    9d34:	00013548 	.word	0x00013548

00009d38 <fat32_mk>:
    9d38:	e92d47f0 	push	{r4, r5, r6, r7, r8, r9, sl, lr}
    9d3c:	e24dd008 	sub	sp, sp, #8, 0
    9d40:	e59f320c 	ldr	r3, [pc, #524]	; 9f54 <fat32_mk+0x21c>
    9d44:	e5933000 	ldr	r3, [r3]
    9d48:	e3530000 	cmp	r3, #0, 0
    9d4c:	1a000070 	bne	9f14 <fat32_mk+0x1dc>
    9d50:	e1a06000 	mov	r6, r0
    9d54:	e1a05001 	mov	r5, r1
    9d58:	e5d13008 	ldrb	r3, [r1, #8]
    9d5c:	e5d10009 	ldrb	r0, [r1, #9]
    9d60:	e1833400 	orr	r3, r3, r0, lsl #8
    9d64:	e5d1000a 	ldrb	r0, [r1, #10]
    9d68:	e1833800 	orr	r3, r3, r0, lsl #16
    9d6c:	e5d1000b 	ldrb	r0, [r1, #11]
    9d70:	e3a01001 	mov	r1, #1, 0
    9d74:	e1830c00 	orr	r0, r3, r0, lsl #24
    9d78:	eb000416 	bl	add8 <pi_sec_read>
    9d7c:	e1a04000 	mov	r4, r0
    9d80:	e59f71d0 	ldr	r7, [pc, #464]	; 9f58 <fat32_mk+0x220>
    9d84:	e3a02c02 	mov	r2, #512	; 0x200
    9d88:	e1a01000 	mov	r1, r0
    9d8c:	e1a00007 	mov	r0, r7
    9d90:	eb00152d 	bl	f24c <memcpy>
    9d94:	e1a00004 	mov	r0, r4
    9d98:	eb0006eb 	bl	b94c <fat32_volume_id_check>
    9d9c:	e5d73030 	ldrb	r3, [r7, #48]	; 0x30
    9da0:	e5d72031 	ldrb	r2, [r7, #49]	; 0x31
    9da4:	e1833402 	orr	r3, r3, r2, lsl #8
    9da8:	e3530001 	cmp	r3, #1, 0
    9dac:	1a000060 	bne	9f34 <fat32_mk+0x1fc>
    9db0:	e5d50008 	ldrb	r0, [r5, #8]
    9db4:	e5d53009 	ldrb	r3, [r5, #9]
    9db8:	e1800403 	orr	r0, r0, r3, lsl #8
    9dbc:	e5d5300a 	ldrb	r3, [r5, #10]
    9dc0:	e1800803 	orr	r0, r0, r3, lsl #16
    9dc4:	e5d5300b 	ldrb	r3, [r5, #11]
    9dc8:	e1800c03 	orr	r0, r0, r3, lsl #24
    9dcc:	e3a01001 	mov	r1, #1, 0
    9dd0:	e0800001 	add	r0, r0, r1
    9dd4:	eb0003ff 	bl	add8 <pi_sec_read>
    9dd8:	e1a07000 	mov	r7, r0
    9ddc:	eb000851 	bl	bf28 <fat32_fsinfo_check>
    9de0:	e1a01007 	mov	r1, r7
    9de4:	e59f0170 	ldr	r0, [pc, #368]	; 9f5c <fat32_mk+0x224>
    9de8:	eb000833 	bl	bebc <fat32_fsinfo_print>
    9dec:	e5d58008 	ldrb	r8, [r5, #8]
    9df0:	e5d53009 	ldrb	r3, [r5, #9]
    9df4:	e1888403 	orr	r8, r8, r3, lsl #8
    9df8:	e5d5300a 	ldrb	r3, [r5, #10]
    9dfc:	e1888803 	orr	r8, r8, r3, lsl #16
    9e00:	e5d5300b 	ldrb	r3, [r5, #11]
    9e04:	e1888c03 	orr	r8, r8, r3, lsl #24
    9e08:	e5d4700e 	ldrb	r7, [r4, #14]
    9e0c:	e5d4300f 	ldrb	r3, [r4, #15]
    9e10:	e1877403 	orr	r7, r7, r3, lsl #8
    9e14:	e0877008 	add	r7, r7, r8
    9e18:	e5d49010 	ldrb	r9, [r4, #16]
    9e1c:	e5d41024 	ldrb	r1, [r4, #36]	; 0x24
    9e20:	e5d43025 	ldrb	r3, [r4, #37]	; 0x25
    9e24:	e1811403 	orr	r1, r1, r3, lsl #8
    9e28:	e5d43026 	ldrb	r3, [r4, #38]	; 0x26
    9e2c:	e1811803 	orr	r1, r1, r3, lsl #16
    9e30:	e5d43027 	ldrb	r3, [r4, #39]	; 0x27
    9e34:	e1811c03 	orr	r1, r1, r3, lsl #24
    9e38:	e0297991 	mla	r9, r1, r9, r7
    9e3c:	e5d4a00d 	ldrb	sl, [r4, #13]
    9e40:	e5d4502c 	ldrb	r5, [r4, #44]	; 0x2c
    9e44:	e5d4302d 	ldrb	r3, [r4, #45]	; 0x2d
    9e48:	e1855403 	orr	r5, r5, r3, lsl #8
    9e4c:	e5d4302e 	ldrb	r3, [r4, #46]	; 0x2e
    9e50:	e1855803 	orr	r5, r5, r3, lsl #16
    9e54:	e5d4302f 	ldrb	r3, [r4, #47]	; 0x2f
    9e58:	e1855c03 	orr	r5, r5, r3, lsl #24
    9e5c:	e5d4300b 	ldrb	r3, [r4, #11]
    9e60:	e5d4400c 	ldrb	r4, [r4, #12]
    9e64:	e1834404 	orr	r4, r3, r4, lsl #8
    9e68:	e0040194 	mul	r4, r4, r1
    9e6c:	e1a04124 	lsr	r4, r4, #2
    9e70:	e1a00007 	mov	r0, r7
    9e74:	eb0003d7 	bl	add8 <pi_sec_read>
    9e78:	e5868000 	str	r8, [r6]
    9e7c:	e5867004 	str	r7, [r6, #4]
    9e80:	e5869008 	str	r9, [r6, #8]
    9e84:	e586a00c 	str	sl, [r6, #12]
    9e88:	e5865010 	str	r5, [r6, #16]
    9e8c:	e5860014 	str	r0, [r6, #20]
    9e90:	e5864018 	str	r4, [r6, #24]
    9e94:	e59f80c4 	ldr	r8, [pc, #196]	; 9f60 <fat32_mk+0x228>
    9e98:	e59f40c4 	ldr	r4, [pc, #196]	; 9f64 <fat32_mk+0x22c>
    9e9c:	e1a01008 	mov	r1, r8
    9ea0:	e1a00004 	mov	r0, r4
    9ea4:	eb001547 	bl	f3c8 <printk>
    9ea8:	e1a01007 	mov	r1, r7
    9eac:	e59f00b4 	ldr	r0, [pc, #180]	; 9f68 <fat32_mk+0x230>
    9eb0:	eb001544 	bl	f3c8 <printk>
    9eb4:	e1a01008 	mov	r1, r8
    9eb8:	e1a00004 	mov	r0, r4
    9ebc:	eb001541 	bl	f3c8 <printk>
    9ec0:	e1a01009 	mov	r1, r9
    9ec4:	e59f00a0 	ldr	r0, [pc, #160]	; 9f6c <fat32_mk+0x234>
    9ec8:	eb00153e 	bl	f3c8 <printk>
    9ecc:	e1a01008 	mov	r1, r8
    9ed0:	e1a00004 	mov	r0, r4
    9ed4:	eb00153b 	bl	f3c8 <printk>
    9ed8:	e1a0100a 	mov	r1, sl
    9edc:	e59f008c 	ldr	r0, [pc, #140]	; 9f70 <fat32_mk+0x238>
    9ee0:	eb001538 	bl	f3c8 <printk>
    9ee4:	e1a01008 	mov	r1, r8
    9ee8:	e1a00004 	mov	r0, r4
    9eec:	eb001535 	bl	f3c8 <printk>
    9ef0:	e1a01005 	mov	r1, r5
    9ef4:	e59f0078 	ldr	r0, [pc, #120]	; 9f74 <fat32_mk+0x23c>
    9ef8:	eb001532 	bl	f3c8 <printk>
    9efc:	e59f3050 	ldr	r3, [pc, #80]	; 9f54 <fat32_mk+0x21c>
    9f00:	e3a02001 	mov	r2, #1, 0
    9f04:	e5832000 	str	r2, [r3]
    9f08:	e1a00006 	mov	r0, r6
    9f0c:	e28dd008 	add	sp, sp, #8, 0
    9f10:	e8bd87f0 	pop	{r4, r5, r6, r7, r8, r9, sl, pc}
    9f14:	e59f305c 	ldr	r3, [pc, #92]	; 9f78 <fat32_mk+0x240>
    9f18:	e58d3000 	str	r3, [sp]
    9f1c:	e3a03010 	mov	r3, #16, 0
    9f20:	e59f2038 	ldr	r2, [pc, #56]	; 9f60 <fat32_mk+0x228>
    9f24:	e59f1050 	ldr	r1, [pc, #80]	; 9f7c <fat32_mk+0x244>
    9f28:	e59f0050 	ldr	r0, [pc, #80]	; 9f80 <fat32_mk+0x248>
    9f2c:	eb001525 	bl	f3c8 <printk>
    9f30:	eb001654 	bl	f888 <clean_reboot>
    9f34:	e59f3048 	ldr	r3, [pc, #72]	; 9f84 <fat32_mk+0x24c>
    9f38:	e58d3000 	str	r3, [sp]
    9f3c:	e3a0301a 	mov	r3, #26, 0
    9f40:	e59f2018 	ldr	r2, [pc, #24]	; 9f60 <fat32_mk+0x228>
    9f44:	e59f1030 	ldr	r1, [pc, #48]	; 9f7c <fat32_mk+0x244>
    9f48:	e59f0038 	ldr	r0, [pc, #56]	; 9f88 <fat32_mk+0x250>
    9f4c:	eb00151d 	bl	f3c8 <printk>
    9f50:	eb00164c 	bl	f888 <clean_reboot>
    9f54:	0001321c 	.word	0x0001321c
    9f58:	00013548 	.word	0x00013548
    9f5c:	00010390 	.word	0x00010390
    9f60:	000107ac 	.word	0x000107ac
    9f64:	0000fd3c 	.word	0x0000fd3c
    9f68:	000103ac 	.word	0x000103ac
    9f6c:	000103a4 	.word	0x000103a4
    9f70:	000103bc 	.word	0x000103bc
    9f74:	000103d8 	.word	0x000103d8
    9f78:	00010368 	.word	0x00010368
    9f7c:	00010224 	.word	0x00010224
    9f80:	00010314 	.word	0x00010314
    9f84:	00010370 	.word	0x00010370
    9f88:	0000ff5c 	.word	0x0000ff5c

00009f8c <fat32_get_root>:
    9f8c:	e59f3070 	ldr	r3, [pc, #112]	; a004 <fat32_get_root+0x78>
    9f90:	e5933000 	ldr	r3, [r3]
    9f94:	e3530000 	cmp	r3, #0, 0
    9f98:	0a00000f 	beq	9fdc <fat32_get_root+0x50>
    9f9c:	e5911010 	ldr	r1, [r1, #16]
    9fa0:	e3a03000 	mov	r3, #0, 0
    9fa4:	e1a02000 	mov	r2, r0
    9fa8:	e4823004 	str	r3, [r2], #4
    9fac:	e5803004 	str	r3, [r0, #4]
    9fb0:	e5823004 	str	r3, [r2, #4]
    9fb4:	e5823008 	str	r3, [r2, #8]
    9fb8:	e5803010 	str	r3, [r0, #16]
    9fbc:	e5803014 	str	r3, [r0, #20]
    9fc0:	e5803018 	str	r3, [r0, #24]
    9fc4:	e580301c 	str	r3, [r0, #28]
    9fc8:	e5801020 	str	r1, [r0, #32]
    9fcc:	e3a02001 	mov	r2, #1, 0
    9fd0:	e5802024 	str	r2, [r0, #36]	; 0x24
    9fd4:	e5803028 	str	r3, [r0, #40]	; 0x28
    9fd8:	e12fff1e 	bx	lr
    9fdc:	e52de004 	push	{lr}		; (str lr, [sp, #-4]!)
    9fe0:	e24dd00c 	sub	sp, sp, #12, 0
    9fe4:	e59f301c 	ldr	r3, [pc, #28]	; a008 <fat32_get_root+0x7c>
    9fe8:	e58d3000 	str	r3, [sp]
    9fec:	e3a03067 	mov	r3, #103, 0	; 0x67
    9ff0:	e59f2014 	ldr	r2, [pc, #20]	; a00c <fat32_get_root+0x80>
    9ff4:	e59f1014 	ldr	r1, [pc, #20]	; a010 <fat32_get_root+0x84>
    9ff8:	e59f0014 	ldr	r0, [pc, #20]	; a014 <fat32_get_root+0x88>
    9ffc:	eb0014f1 	bl	f3c8 <printk>
    a000:	eb001620 	bl	f888 <clean_reboot>
    a004:	0001321c 	.word	0x0001321c
    a008:	0001043c 	.word	0x0001043c
    a00c:	000107b8 	.word	0x000107b8
    a010:	00010224 	.word	0x00010224
    a014:	000103f8 	.word	0x000103f8

0000a018 <fat32_readdir>:
    a018:	e92d47f0 	push	{r4, r5, r6, r7, r8, r9, sl, lr}
    a01c:	e24dd040 	sub	sp, sp, #64, 0	; 0x40
    a020:	e1a03002 	mov	r3, r2
    a024:	e59f211c 	ldr	r2, [pc, #284]	; a148 <fat32_readdir+0x130>
    a028:	e5922000 	ldr	r2, [r2]
    a02c:	e3520000 	cmp	r2, #0, 0
    a030:	0a000011 	beq	a07c <fat32_readdir+0x64>
    a034:	e1a09000 	mov	r9, r0
    a038:	e1a00001 	mov	r0, r1
    a03c:	e5932024 	ldr	r2, [r3, #36]	; 0x24
    a040:	e3520000 	cmp	r2, #0, 0
    a044:	0a000014 	beq	a09c <fat32_readdir+0x84>
    a048:	e28d203c 	add	r2, sp, #60, 0	; 0x3c
    a04c:	e5931020 	ldr	r1, [r3, #32]
    a050:	ebfffe6f 	bl	9a14 <get_dirents>
    a054:	e1a07000 	mov	r7, r0
    a058:	e59d003c 	ldr	r0, [sp, #60]	; 0x3c
    a05c:	e0803100 	add	r3, r0, r0, lsl #2
    a060:	e0800083 	add	r0, r0, r3, lsl #1
    a064:	e1a00100 	lsl	r0, r0, #2
    a068:	eb001150 	bl	e5b0 <kmalloc>
    a06c:	e1a08000 	mov	r8, r0
    a070:	e3a05000 	mov	r5, #0, 0
    a074:	e1a06005 	mov	r6, r5
    a078:	ea000010 	b	a0c0 <fat32_readdir+0xa8>
    a07c:	e59f30c8 	ldr	r3, [pc, #200]	; a14c <fat32_readdir+0x134>
    a080:	e58d3000 	str	r3, [sp]
    a084:	e3a030d3 	mov	r3, #211, 0	; 0xd3
    a088:	e59f20c0 	ldr	r2, [pc, #192]	; a150 <fat32_readdir+0x138>
    a08c:	e59f10c0 	ldr	r1, [pc, #192]	; a154 <fat32_readdir+0x13c>
    a090:	e59f00c0 	ldr	r0, [pc, #192]	; a158 <fat32_readdir+0x140>
    a094:	eb0014cb 	bl	f3c8 <printk>
    a098:	eb0015fa 	bl	f888 <clean_reboot>
    a09c:	e59f30b8 	ldr	r3, [pc, #184]	; a15c <fat32_readdir+0x144>
    a0a0:	e58d3000 	str	r3, [sp]
    a0a4:	e3a030d4 	mov	r3, #212, 0	; 0xd4
    a0a8:	e59f20a0 	ldr	r2, [pc, #160]	; a150 <fat32_readdir+0x138>
    a0ac:	e59f10a0 	ldr	r1, [pc, #160]	; a154 <fat32_readdir+0x13c>
    a0b0:	e59f00a8 	ldr	r0, [pc, #168]	; a160 <fat32_readdir+0x148>
    a0b4:	eb0014c3 	bl	f3c8 <printk>
    a0b8:	eb0015f2 	bl	f888 <clean_reboot>
    a0bc:	e2855001 	add	r5, r5, #1, 0
    a0c0:	e59d303c 	ldr	r3, [sp, #60]	; 0x3c
    a0c4:	e1550003 	cmp	r5, r3
    a0c8:	2a000019 	bcs	a134 <fat32_readdir+0x11c>
    a0cc:	e087a285 	add	sl, r7, r5, lsl #5
    a0d0:	e1a0000a 	mov	r0, sl
    a0d4:	eb000814 	bl	c12c <fat32_dirent_free>
    a0d8:	e3500000 	cmp	r0, #0, 0
    a0dc:	1afffff6 	bne	a0bc <fat32_readdir+0xa4>
    a0e0:	e5da300b 	ldrb	r3, [sl, #11]
    a0e4:	e353000f 	cmp	r3, #15, 0
    a0e8:	0afffff3 	beq	a0bc <fat32_readdir+0xa4>
    a0ec:	e3130008 	tst	r3, #8, 0
    a0f0:	1afffff1 	bne	a0bc <fat32_readdir+0xa4>
    a0f4:	e086c106 	add	ip, r6, r6, lsl #2
    a0f8:	e086c08c 	add	ip, r6, ip, lsl #1
    a0fc:	e088410c 	add	r4, r8, ip, lsl #2
    a100:	e1a0100a 	mov	r1, sl
    a104:	e28d0008 	add	r0, sp, #8, 0
    a108:	ebfffe59 	bl	9a74 <dirent_convert>
    a10c:	e1a0c004 	mov	ip, r4
    a110:	e28de008 	add	lr, sp, #8, 0
    a114:	e8be000f 	ldm	lr!, {r0, r1, r2, r3}
    a118:	e8ac000f 	stmia	ip!, {r0, r1, r2, r3}
    a11c:	e8be000f 	ldm	lr!, {r0, r1, r2, r3}
    a120:	e8ac000f 	stmia	ip!, {r0, r1, r2, r3}
    a124:	e89e0007 	ldm	lr, {r0, r1, r2}
    a128:	e88c0007 	stm	ip, {r0, r1, r2}
    a12c:	e2866001 	add	r6, r6, #1, 0
    a130:	eaffffe1 	b	a0bc <fat32_readdir+0xa4>
    a134:	e5898000 	str	r8, [r9]
    a138:	e5896004 	str	r6, [r9, #4]
    a13c:	e1a00009 	mov	r0, r9
    a140:	e28dd040 	add	sp, sp, #64, 0	; 0x40
    a144:	e8bd87f0 	pop	{r4, r5, r6, r7, r8, r9, sl, pc}
    a148:	0001321c 	.word	0x0001321c
    a14c:	0001043c 	.word	0x0001043c
    a150:	000107c8 	.word	0x000107c8
    a154:	00010224 	.word	0x00010224
    a158:	000103f8 	.word	0x000103f8
    a15c:	0001048c 	.word	0x0001048c
    a160:	00010444 	.word	0x00010444

0000a164 <fat32_stat>:
    a164:	e92d4070 	push	{r4, r5, r6, lr}
    a168:	e24dd040 	sub	sp, sp, #64, 0	; 0x40
    a16c:	e59f30d4 	ldr	r3, [pc, #212]	; a248 <fat32_stat+0xe4>
    a170:	e5933000 	ldr	r3, [r3]
    a174:	e3530000 	cmp	r3, #0, 0
    a178:	0a000020 	beq	a200 <fat32_stat+0x9c>
    a17c:	e1a04002 	mov	r4, r2
    a180:	e5913024 	ldr	r3, [r1, #36]	; 0x24
    a184:	e3530000 	cmp	r3, #0, 0
    a188:	0a000024 	beq	a220 <fat32_stat+0xbc>
    a18c:	e3a03000 	mov	r3, #0, 0
    a190:	e58d303c 	str	r3, [sp, #60]	; 0x3c
    a194:	e28d203c 	add	r2, sp, #60, 0	; 0x3c
    a198:	e5911020 	ldr	r1, [r1, #32]
    a19c:	ebfffe1c 	bl	9a14 <get_dirents>
    a1a0:	e1a06000 	mov	r6, r0
    a1a4:	e1a02004 	mov	r2, r4
    a1a8:	e59d103c 	ldr	r1, [sp, #60]	; 0x3c
    a1ac:	ebfffe5f 	bl	9b30 <find_dirent_with_name>
    a1b0:	e1a04000 	mov	r4, r0
    a1b4:	e3700001 	cmn	r0, #1, 0
    a1b8:	0a000020 	beq	a240 <fat32_stat+0xdc>
    a1bc:	e3a0002c 	mov	r0, #44, 0	; 0x2c
    a1c0:	eb0010fa 	bl	e5b0 <kmalloc>
    a1c4:	e1a05000 	mov	r5, r0
    a1c8:	e0861284 	add	r1, r6, r4, lsl #5
    a1cc:	e28d0008 	add	r0, sp, #8, 0
    a1d0:	ebfffe27 	bl	9a74 <dirent_convert>
    a1d4:	e1a0e005 	mov	lr, r5
    a1d8:	e28dc008 	add	ip, sp, #8, 0
    a1dc:	e8bc000f 	ldm	ip!, {r0, r1, r2, r3}
    a1e0:	e8ae000f 	stmia	lr!, {r0, r1, r2, r3}
    a1e4:	e8bc000f 	ldm	ip!, {r0, r1, r2, r3}
    a1e8:	e8ae000f 	stmia	lr!, {r0, r1, r2, r3}
    a1ec:	e89c0007 	ldm	ip, {r0, r1, r2}
    a1f0:	e88e0007 	stm	lr, {r0, r1, r2}
    a1f4:	e1a00005 	mov	r0, r5
    a1f8:	e28dd040 	add	sp, sp, #64, 0	; 0x40
    a1fc:	e8bd8070 	pop	{r4, r5, r6, pc}
    a200:	e59f3044 	ldr	r3, [pc, #68]	; a24c <fat32_stat+0xe8>
    a204:	e58d3000 	str	r3, [sp]
    a208:	e59f3040 	ldr	r3, [pc, #64]	; a250 <fat32_stat+0xec>
    a20c:	e59f2040 	ldr	r2, [pc, #64]	; a254 <fat32_stat+0xf0>
    a210:	e59f1040 	ldr	r1, [pc, #64]	; a258 <fat32_stat+0xf4>
    a214:	e59f0040 	ldr	r0, [pc, #64]	; a25c <fat32_stat+0xf8>
    a218:	eb00146a 	bl	f3c8 <printk>
    a21c:	eb001599 	bl	f888 <clean_reboot>
    a220:	e59f3038 	ldr	r3, [pc, #56]	; a260 <fat32_stat+0xfc>
    a224:	e58d3000 	str	r3, [sp]
    a228:	e3a03f41 	mov	r3, #260	; 0x104
    a22c:	e59f2020 	ldr	r2, [pc, #32]	; a254 <fat32_stat+0xf0>
    a230:	e59f1020 	ldr	r1, [pc, #32]	; a258 <fat32_stat+0xf4>
    a234:	e59f0028 	ldr	r0, [pc, #40]	; a264 <fat32_stat+0x100>
    a238:	eb001462 	bl	f3c8 <printk>
    a23c:	eb001591 	bl	f888 <clean_reboot>
    a240:	e3a05000 	mov	r5, #0, 0
    a244:	eaffffea 	b	a1f4 <fat32_stat+0x90>
    a248:	0001321c 	.word	0x0001321c
    a24c:	0001043c 	.word	0x0001043c
    a250:	00000103 	.word	0x00000103
    a254:	000107d8 	.word	0x000107d8
    a258:	00010224 	.word	0x00010224
    a25c:	000103f8 	.word	0x000103f8
    a260:	000104f0 	.word	0x000104f0
    a264:	000104a0 	.word	0x000104a0

0000a268 <fat32_read>:
    a268:	e92d40f0 	push	{r4, r5, r6, r7, lr}
    a26c:	e24dd00c 	sub	sp, sp, #12, 0
    a270:	e59f30f4 	ldr	r3, [pc, #244]	; a36c <fat32_read+0x104>
    a274:	e5933000 	ldr	r3, [r3]
    a278:	e3530000 	cmp	r3, #0, 0
    a27c:	0a00001c 	beq	a2f4 <fat32_read+0x8c>
    a280:	e1a04000 	mov	r4, r0
    a284:	e5913024 	ldr	r3, [r1, #36]	; 0x24
    a288:	e3530000 	cmp	r3, #0, 0
    a28c:	0a000020 	beq	a314 <fat32_read+0xac>
    a290:	ebffffb3 	bl	a164 <fat32_stat>
    a294:	e1a05000 	mov	r5, r0
    a298:	e5901020 	ldr	r1, [r0, #32]
    a29c:	e1a00004 	mov	r0, r4
    a2a0:	ebfffd84 	bl	98b8 <get_cluster_chain_length>
    a2a4:	e1a06000 	mov	r6, r0
    a2a8:	e5953028 	ldr	r3, [r5, #40]	; 0x28
    a2ac:	e3530000 	cmp	r3, #0, 0
    a2b0:	1a00001f 	bne	a334 <fat32_read+0xcc>
    a2b4:	e3a07000 	mov	r7, #0, 0
    a2b8:	e3a0000c 	mov	r0, #12, 0
    a2bc:	eb0010bb 	bl	e5b0 <kmalloc>
    a2c0:	e594200c 	ldr	r2, [r4, #12]
    a2c4:	e0020296 	mul	r2, r6, r2
    a2c8:	e59f10a0 	ldr	r1, [pc, #160]	; a370 <fat32_read+0x108>
    a2cc:	e5d1600b 	ldrb	r6, [r1, #11]
    a2d0:	e5d1100c 	ldrb	r1, [r1, #12]
    a2d4:	e1866401 	orr	r6, r6, r1, lsl #8
    a2d8:	e0060296 	mul	r6, r6, r2
    a2dc:	e5952028 	ldr	r2, [r5, #40]	; 0x28
    a2e0:	e5807000 	str	r7, [r0]
    a2e4:	e5806004 	str	r6, [r0, #4]
    a2e8:	e5802008 	str	r2, [r0, #8]
    a2ec:	e28dd00c 	add	sp, sp, #12, 0
    a2f0:	e8bd80f0 	pop	{r4, r5, r6, r7, pc}
    a2f4:	e59f3078 	ldr	r3, [pc, #120]	; a374 <fat32_read+0x10c>
    a2f8:	e58d3000 	str	r3, [sp]
    a2fc:	e59f3074 	ldr	r3, [pc, #116]	; a378 <fat32_read+0x110>
    a300:	e59f2074 	ldr	r2, [pc, #116]	; a37c <fat32_read+0x114>
    a304:	e59f1074 	ldr	r1, [pc, #116]	; a380 <fat32_read+0x118>
    a308:	e59f0074 	ldr	r0, [pc, #116]	; a384 <fat32_read+0x11c>
    a30c:	eb00142d 	bl	f3c8 <printk>
    a310:	eb00155c 	bl	f888 <clean_reboot>
    a314:	e59f306c 	ldr	r3, [pc, #108]	; a388 <fat32_read+0x120>
    a318:	e58d3000 	str	r3, [sp]
    a31c:	e59f3068 	ldr	r3, [pc, #104]	; a38c <fat32_read+0x124>
    a320:	e59f2054 	ldr	r2, [pc, #84]	; a37c <fat32_read+0x114>
    a324:	e59f1054 	ldr	r1, [pc, #84]	; a380 <fat32_read+0x118>
    a328:	e59f0060 	ldr	r0, [pc, #96]	; a390 <fat32_read+0x128>
    a32c:	eb001425 	bl	f3c8 <printk>
    a330:	eb001554 	bl	f888 <clean_reboot>
    a334:	e594300c 	ldr	r3, [r4, #12]
    a338:	e0030390 	mul	r3, r0, r3
    a33c:	e59f202c 	ldr	r2, [pc, #44]	; a370 <fat32_read+0x108>
    a340:	e5d2000b 	ldrb	r0, [r2, #11]
    a344:	e5d2200c 	ldrb	r2, [r2, #12]
    a348:	e1800402 	orr	r0, r0, r2, lsl #8
    a34c:	e0000390 	mul	r0, r0, r3
    a350:	eb001096 	bl	e5b0 <kmalloc>
    a354:	e1a07000 	mov	r7, r0
    a358:	e1a02000 	mov	r2, r0
    a35c:	e5951020 	ldr	r1, [r5, #32]
    a360:	e1a00004 	mov	r0, r4
    a364:	ebfffd88 	bl	998c <read_cluster_chain>
    a368:	eaffffd2 	b	a2b8 <fat32_read+0x50>
    a36c:	0001321c 	.word	0x0001321c
    a370:	00013548 	.word	0x00013548
    a374:	0001043c 	.word	0x0001043c
    a378:	0000011d 	.word	0x0000011d
    a37c:	000107e4 	.word	0x000107e4
    a380:	00010224 	.word	0x00010224
    a384:	000103f8 	.word	0x000103f8
    a388:	000104f0 	.word	0x000104f0
    a38c:	0000011e 	.word	0x0000011e
    a390:	00010504 	.word	0x00010504

0000a394 <fat32_rename>:
    a394:	e92d41f0 	push	{r4, r5, r6, r7, r8, lr}
    a398:	e24dd010 	sub	sp, sp, #16, 0
    a39c:	e1a04003 	mov	r4, r3
    a3a0:	e59f3104 	ldr	r3, [pc, #260]	; a4ac <fat32_rename+0x118>
    a3a4:	e5933000 	ldr	r3, [r3]
    a3a8:	e3530000 	cmp	r3, #0, 0
    a3ac:	0a00002a 	beq	a45c <fat32_rename+0xc8>
    a3b0:	e1a05000 	mov	r5, r0
    a3b4:	e1a06001 	mov	r6, r1
    a3b8:	e1a07002 	mov	r7, r2
    a3bc:	e1a00004 	mov	r0, r4
    a3c0:	eb0007e1 	bl	c34c <fat32_is_valid_name>
    a3c4:	e3500000 	cmp	r0, #0, 0
    a3c8:	0a000021 	beq	a454 <fat32_rename+0xc0>
    a3cc:	e59f10dc 	ldr	r1, [pc, #220]	; a4b0 <fat32_rename+0x11c>
    a3d0:	e59f00dc 	ldr	r0, [pc, #220]	; a4b4 <fat32_rename+0x120>
    a3d4:	eb0013fb 	bl	f3c8 <printk>
    a3d8:	e1a02004 	mov	r2, r4
    a3dc:	e1a01007 	mov	r1, r7
    a3e0:	e59f00d0 	ldr	r0, [pc, #208]	; a4b8 <fat32_rename+0x124>
    a3e4:	eb0013f7 	bl	f3c8 <printk>
    a3e8:	e28d200c 	add	r2, sp, #12, 0
    a3ec:	e5961020 	ldr	r1, [r6, #32]
    a3f0:	e1a00005 	mov	r0, r5
    a3f4:	ebfffd86 	bl	9a14 <get_dirents>
    a3f8:	e1a08000 	mov	r8, r0
    a3fc:	e1a02007 	mov	r2, r7
    a400:	e59d100c 	ldr	r1, [sp, #12]
    a404:	ebfffdc9 	bl	9b30 <find_dirent_with_name>
    a408:	e1a07000 	mov	r7, r0
    a40c:	e3700001 	cmn	r0, #1, 0
    a410:	0a000019 	beq	a47c <fat32_rename+0xe8>
    a414:	e1a02004 	mov	r2, r4
    a418:	e59d100c 	ldr	r1, [sp, #12]
    a41c:	e1a00008 	mov	r0, r8
    a420:	ebfffdc2 	bl	9b30 <find_dirent_with_name>
    a424:	e3700001 	cmn	r0, #1, 0
    a428:	1a000019 	bne	a494 <fat32_rename+0x100>
    a42c:	e1a01004 	mov	r1, r4
    a430:	e0880287 	add	r0, r8, r7, lsl #5
    a434:	eb000808 	bl	c45c <fat32_dirent_set_name>
    a438:	e59d300c 	ldr	r3, [sp, #12]
    a43c:	e1a03283 	lsl	r3, r3, #5
    a440:	e1a02008 	mov	r2, r8
    a444:	e5961020 	ldr	r1, [r6, #32]
    a448:	e1a00005 	mov	r0, r5
    a44c:	ebfffde4 	bl	9be4 <write_cluster_chain>
    a450:	e3a00001 	mov	r0, #1, 0
    a454:	e28dd010 	add	sp, sp, #16, 0
    a458:	e8bd81f0 	pop	{r4, r5, r6, r7, r8, pc}
    a45c:	e59f3058 	ldr	r3, [pc, #88]	; a4bc <fat32_rename+0x128>
    a460:	e58d3000 	str	r3, [sp]
    a464:	e59f3054 	ldr	r3, [pc, #84]	; a4c0 <fat32_rename+0x12c>
    a468:	e59f2040 	ldr	r2, [pc, #64]	; a4b0 <fat32_rename+0x11c>
    a46c:	e59f1050 	ldr	r1, [pc, #80]	; a4c4 <fat32_rename+0x130>
    a470:	e59f0050 	ldr	r0, [pc, #80]	; a4c8 <fat32_rename+0x134>
    a474:	eb0013d3 	bl	f3c8 <printk>
    a478:	eb001502 	bl	f888 <clean_reboot>
    a47c:	e59f3048 	ldr	r3, [pc, #72]	; a4cc <fat32_rename+0x138>
    a480:	e59f2028 	ldr	r2, [pc, #40]	; a4b0 <fat32_rename+0x11c>
    a484:	e59f1038 	ldr	r1, [pc, #56]	; a4c4 <fat32_rename+0x130>
    a488:	e59f0040 	ldr	r0, [pc, #64]	; a4d0 <fat32_rename+0x13c>
    a48c:	eb0013cd 	bl	f3c8 <printk>
    a490:	eb0014fc 	bl	f888 <clean_reboot>
    a494:	e59f3038 	ldr	r3, [pc, #56]	; a4d4 <fat32_rename+0x140>
    a498:	e59f2010 	ldr	r2, [pc, #16]	; a4b0 <fat32_rename+0x11c>
    a49c:	e59f1020 	ldr	r1, [pc, #32]	; a4c4 <fat32_rename+0x130>
    a4a0:	e59f0030 	ldr	r0, [pc, #48]	; a4d8 <fat32_rename+0x144>
    a4a4:	eb0013c7 	bl	f3c8 <printk>
    a4a8:	eb0014f6 	bl	f888 <clean_reboot>
    a4ac:	0001321c 	.word	0x0001321c
    a4b0:	000107f0 	.word	0x000107f0
    a4b4:	0000fd3c 	.word	0x0000fd3c
    a4b8:	00010554 	.word	0x00010554
    a4bc:	0001043c 	.word	0x0001043c
    a4c0:	000001b9 	.word	0x000001b9
    a4c4:	00010224 	.word	0x00010224
    a4c8:	000103f8 	.word	0x000103f8
    a4cc:	000001c2 	.word	0x000001c2
    a4d0:	00010568 	.word	0x00010568
    a4d4:	000001c6 	.word	0x000001c6
    a4d8:	00010590 	.word	0x00010590

0000a4dc <fat32_create>:
    a4dc:	e92d4ff0 	push	{r4, r5, r6, r7, r8, r9, sl, fp, lr}
    a4e0:	e24dd044 	sub	sp, sp, #68, 0	; 0x44
    a4e4:	e1a0b003 	mov	fp, r3
    a4e8:	e59f31c0 	ldr	r3, [pc, #448]	; a6b0 <fat32_create+0x1d4>
    a4ec:	e5933000 	ldr	r3, [r3]
    a4f0:	e3530000 	cmp	r3, #0, 0
    a4f4:	0a000027 	beq	a598 <fat32_create+0xbc>
    a4f8:	e1a09000 	mov	r9, r0
    a4fc:	e1a08001 	mov	r8, r1
    a500:	e1a07002 	mov	r7, r2
    a504:	e59f11a8 	ldr	r1, [pc, #424]	; a6b4 <fat32_create+0x1d8>
    a508:	e59f01a8 	ldr	r0, [pc, #424]	; a6b8 <fat32_create+0x1dc>
    a50c:	eb0013ad 	bl	f3c8 <printk>
    a510:	e1a01007 	mov	r1, r7
    a514:	e59f01a0 	ldr	r0, [pc, #416]	; a6bc <fat32_create+0x1e0>
    a518:	eb0013aa 	bl	f3c8 <printk>
    a51c:	e1a00007 	mov	r0, r7
    a520:	eb000789 	bl	c34c <fat32_is_valid_name>
    a524:	e3500000 	cmp	r0, #0, 0
    a528:	0a00005e 	beq	a6a8 <fat32_create+0x1cc>
    a52c:	e5983024 	ldr	r3, [r8, #36]	; 0x24
    a530:	e3530000 	cmp	r3, #0, 0
    a534:	0a00001f 	beq	a5b8 <fat32_create+0xdc>
    a538:	e3a03000 	mov	r3, #0, 0
    a53c:	e58d303c 	str	r3, [sp, #60]	; 0x3c
    a540:	e28d203c 	add	r2, sp, #60, 0	; 0x3c
    a544:	e5981020 	ldr	r1, [r8, #32]
    a548:	e1a00009 	mov	r0, r9
    a54c:	ebfffd30 	bl	9a14 <get_dirents>
    a550:	e1a06000 	mov	r6, r0
    a554:	e1a02007 	mov	r2, r7
    a558:	e59d103c 	ldr	r1, [sp, #60]	; 0x3c
    a55c:	ebfffd73 	bl	9b30 <find_dirent_with_name>
    a560:	e1a0a000 	mov	sl, r0
    a564:	e3700001 	cmn	r0, #1, 0
    a568:	1a000016 	bne	a5c8 <fat32_create+0xec>
    a56c:	e3a04000 	mov	r4, #0, 0
    a570:	e59d303c 	ldr	r3, [sp, #60]	; 0x3c
    a574:	e1540003 	cmp	r4, r3
    a578:	2a000027 	bcs	a61c <fat32_create+0x140>
    a57c:	e0865284 	add	r5, r6, r4, lsl #5
    a580:	e1a00005 	mov	r0, r5
    a584:	eb0006e8 	bl	c12c <fat32_dirent_free>
    a588:	e3500000 	cmp	r0, #0, 0
    a58c:	1a000011 	bne	a5d8 <fat32_create+0xfc>
    a590:	e2844001 	add	r4, r4, #1, 0
    a594:	eafffff5 	b	a570 <fat32_create+0x94>
    a598:	e59f3120 	ldr	r3, [pc, #288]	; a6c0 <fat32_create+0x1e4>
    a59c:	e58d3000 	str	r3, [sp]
    a5a0:	e3a03f76 	mov	r3, #472	; 0x1d8
    a5a4:	e59f2108 	ldr	r2, [pc, #264]	; a6b4 <fat32_create+0x1d8>
    a5a8:	e59f1114 	ldr	r1, [pc, #276]	; a6c4 <fat32_create+0x1e8>
    a5ac:	e59f0114 	ldr	r0, [pc, #276]	; a6c8 <fat32_create+0x1ec>
    a5b0:	eb001384 	bl	f3c8 <printk>
    a5b4:	eb0014b3 	bl	f888 <clean_reboot>
    a5b8:	e59f010c 	ldr	r0, [pc, #268]	; a6cc <fat32_create+0x1f0>
    a5bc:	eb001381 	bl	f3c8 <printk>
    a5c0:	e3a04000 	mov	r4, #0, 0
    a5c4:	ea00002c 	b	a67c <fat32_create+0x1a0>
    a5c8:	e59f0100 	ldr	r0, [pc, #256]	; a6d0 <fat32_create+0x1f4>
    a5cc:	eb00137d 	bl	f3c8 <printk>
    a5d0:	e3a04000 	mov	r4, #0, 0
    a5d4:	ea000028 	b	a67c <fat32_create+0x1a0>
    a5d8:	e1a01007 	mov	r1, r7
    a5dc:	e1a00005 	mov	r0, r5
    a5e0:	eb00079d 	bl	c45c <fat32_dirent_set_name>
    a5e4:	e35b0000 	cmp	fp, #0, 0
    a5e8:	0a000026 	beq	a688 <fat32_create+0x1ac>
    a5ec:	e3a03010 	mov	r3, #16, 0
    a5f0:	e5c5300b 	strb	r3, [r5, #11]
    a5f4:	e3a03000 	mov	r3, #0, 0
    a5f8:	e5c5301c 	strb	r3, [r5, #28]
    a5fc:	e5c5301d 	strb	r3, [r5, #29]
    a600:	e5c5301e 	strb	r3, [r5, #30]
    a604:	e5c5301f 	strb	r3, [r5, #31]
    a608:	e5c53014 	strb	r3, [r5, #20]
    a60c:	e5c53015 	strb	r3, [r5, #21]
    a610:	e5c5301a 	strb	r3, [r5, #26]
    a614:	e5c5301b 	strb	r3, [r5, #27]
    a618:	e1a0a004 	mov	sl, r4
    a61c:	e37a0001 	cmn	sl, #1, 0
    a620:	0a00001a 	beq	a690 <fat32_create+0x1b4>
    a624:	e1a00009 	mov	r0, r9
    a628:	ebfffd56 	bl	9b88 <write_fat_to_disk>
    a62c:	e59d303c 	ldr	r3, [sp, #60]	; 0x3c
    a630:	e1a03283 	lsl	r3, r3, #5
    a634:	e1a02006 	mov	r2, r6
    a638:	e5981020 	ldr	r1, [r8, #32]
    a63c:	e1a00009 	mov	r0, r9
    a640:	ebfffd67 	bl	9be4 <write_cluster_chain>
    a644:	e3a0002c 	mov	r0, #44, 0	; 0x2c
    a648:	eb000fd8 	bl	e5b0 <kmalloc>
    a64c:	e1a04000 	mov	r4, r0
    a650:	e086128a 	add	r1, r6, sl, lsl #5
    a654:	e28d0008 	add	r0, sp, #8, 0
    a658:	ebfffd05 	bl	9a74 <dirent_convert>
    a65c:	e1a0e004 	mov	lr, r4
    a660:	e28dc008 	add	ip, sp, #8, 0
    a664:	e8bc000f 	ldm	ip!, {r0, r1, r2, r3}
    a668:	e8ae000f 	stmia	lr!, {r0, r1, r2, r3}
    a66c:	e8bc000f 	ldm	ip!, {r0, r1, r2, r3}
    a670:	e8ae000f 	stmia	lr!, {r0, r1, r2, r3}
    a674:	e89c0007 	ldm	ip, {r0, r1, r2}
    a678:	e88e0007 	stm	lr, {r0, r1, r2}
    a67c:	e1a00004 	mov	r0, r4
    a680:	e28dd044 	add	sp, sp, #68, 0	; 0x44
    a684:	e8bd8ff0 	pop	{r4, r5, r6, r7, r8, r9, sl, fp, pc}
    a688:	e3a03020 	mov	r3, #32, 0
    a68c:	eaffffd7 	b	a5f0 <fat32_create+0x114>
    a690:	e59f303c 	ldr	r3, [pc, #60]	; a6d4 <fat32_create+0x1f8>
    a694:	e59f2018 	ldr	r2, [pc, #24]	; a6b4 <fat32_create+0x1d8>
    a698:	e59f1024 	ldr	r1, [pc, #36]	; a6c4 <fat32_create+0x1e8>
    a69c:	e59f0034 	ldr	r0, [pc, #52]	; a6d8 <fat32_create+0x1fc>
    a6a0:	eb001348 	bl	f3c8 <printk>
    a6a4:	eb001477 	bl	f888 <clean_reboot>
    a6a8:	e3a04000 	mov	r4, #0, 0
    a6ac:	eafffff2 	b	a67c <fat32_create+0x1a0>
    a6b0:	0001321c 	.word	0x0001321c
    a6b4:	00010800 	.word	0x00010800
    a6b8:	0000fd3c 	.word	0x0000fd3c
    a6bc:	000105c4 	.word	0x000105c4
    a6c0:	0001043c 	.word	0x0001043c
    a6c4:	00010224 	.word	0x00010224
    a6c8:	000103f8 	.word	0x000103f8
    a6cc:	000105d4 	.word	0x000105d4
    a6d0:	000105f8 	.word	0x000105f8
    a6d4:	000001fe 	.word	0x000001fe
    a6d8:	0001061c 	.word	0x0001061c

0000a6dc <fat32_delete>:
    a6dc:	e92d41f0 	push	{r4, r5, r6, r7, r8, lr}
    a6e0:	e24dd010 	sub	sp, sp, #16, 0
    a6e4:	e59f31a8 	ldr	r3, [pc, #424]	; a894 <fat32_delete+0x1b8>
    a6e8:	e5933000 	ldr	r3, [r3]
    a6ec:	e3530000 	cmp	r3, #0, 0
    a6f0:	0a00000e 	beq	a730 <fat32_delete+0x54>
    a6f4:	e1a05000 	mov	r5, r0
    a6f8:	e1a06001 	mov	r6, r1
    a6fc:	e1a04002 	mov	r4, r2
    a700:	e59f1190 	ldr	r1, [pc, #400]	; a898 <fat32_delete+0x1bc>
    a704:	e59f0190 	ldr	r0, [pc, #400]	; a89c <fat32_delete+0x1c0>
    a708:	eb00132e 	bl	f3c8 <printk>
    a70c:	e1a01004 	mov	r1, r4
    a710:	e59f0188 	ldr	r0, [pc, #392]	; a8a0 <fat32_delete+0x1c4>
    a714:	eb00132b 	bl	f3c8 <printk>
    a718:	e1a00004 	mov	r0, r4
    a71c:	eb00070a 	bl	c34c <fat32_is_valid_name>
    a720:	e3500000 	cmp	r0, #0, 0
    a724:	1a000009 	bne	a750 <fat32_delete+0x74>
    a728:	e28dd010 	add	sp, sp, #16, 0
    a72c:	e8bd81f0 	pop	{r4, r5, r6, r7, r8, pc}
    a730:	e59f316c 	ldr	r3, [pc, #364]	; a8a4 <fat32_delete+0x1c8>
    a734:	e58d3000 	str	r3, [sp]
    a738:	e59f3168 	ldr	r3, [pc, #360]	; a8a8 <fat32_delete+0x1cc>
    a73c:	e59f2154 	ldr	r2, [pc, #340]	; a898 <fat32_delete+0x1bc>
    a740:	e59f1164 	ldr	r1, [pc, #356]	; a8ac <fat32_delete+0x1d0>
    a744:	e59f0164 	ldr	r0, [pc, #356]	; a8b0 <fat32_delete+0x1d4>
    a748:	eb00131e 	bl	f3c8 <printk>
    a74c:	eb00144d 	bl	f888 <clean_reboot>
    a750:	e28d200c 	add	r2, sp, #12, 0
    a754:	e5961020 	ldr	r1, [r6, #32]
    a758:	e1a00005 	mov	r0, r5
    a75c:	ebfffcac 	bl	9a14 <get_dirents>
    a760:	e1a07000 	mov	r7, r0
    a764:	e1a02004 	mov	r2, r4
    a768:	e59d100c 	ldr	r1, [sp, #12]
    a76c:	ebfffcef 	bl	9b30 <find_dirent_with_name>
    a770:	e1a04000 	mov	r4, r0
    a774:	e3700001 	cmn	r0, #1, 0
    a778:	0a000016 	beq	a7d8 <fat32_delete+0xfc>
    a77c:	e59f1114 	ldr	r1, [pc, #276]	; a898 <fat32_delete+0x1bc>
    a780:	e59f0114 	ldr	r0, [pc, #276]	; a89c <fat32_delete+0x1c0>
    a784:	eb00130f 	bl	f3c8 <printk>
    a788:	e1a01004 	mov	r1, r4
    a78c:	e59f0120 	ldr	r0, [pc, #288]	; a8b4 <fat32_delete+0x1d8>
    a790:	eb00130c 	bl	f3c8 <printk>
    a794:	e0873284 	add	r3, r7, r4, lsl #5
    a798:	e3e0201a 	mvn	r2, #26, 0
    a79c:	e7c72284 	strb	r2, [r7, r4, lsl #5]
    a7a0:	e5d3401a 	ldrb	r4, [r3, #26]
    a7a4:	e5d3201b 	ldrb	r2, [r3, #27]
    a7a8:	e1844402 	orr	r4, r4, r2, lsl #8
    a7ac:	e5d32014 	ldrb	r2, [r3, #20]
    a7b0:	e5d33015 	ldrb	r3, [r3, #21]
    a7b4:	e1823403 	orr	r3, r2, r3, lsl #8
    a7b8:	e1844803 	orr	r4, r4, r3, lsl #16
    a7bc:	e59d300c 	ldr	r3, [sp, #12]
    a7c0:	e1a03283 	lsl	r3, r3, #5
    a7c4:	e1a02007 	mov	r2, r7
    a7c8:	e5961020 	ldr	r1, [r6, #32]
    a7cc:	e1a00005 	mov	r0, r5
    a7d0:	ebfffd03 	bl	9be4 <write_cluster_chain>
    a7d4:	ea00001a 	b	a844 <fat32_delete+0x168>
    a7d8:	e59f10b8 	ldr	r1, [pc, #184]	; a898 <fat32_delete+0x1bc>
    a7dc:	e59f00b8 	ldr	r0, [pc, #184]	; a89c <fat32_delete+0x1c0>
    a7e0:	eb0012f8 	bl	f3c8 <printk>
    a7e4:	e59f00cc 	ldr	r0, [pc, #204]	; a8b8 <fat32_delete+0x1dc>
    a7e8:	eb0012f6 	bl	f3c8 <printk>
    a7ec:	e3a00001 	mov	r0, #1, 0
    a7f0:	eaffffcc 	b	a728 <fat32_delete+0x4c>
    a7f4:	e59f709c 	ldr	r7, [pc, #156]	; a898 <fat32_delete+0x1bc>
    a7f8:	e59f609c 	ldr	r6, [pc, #156]	; a89c <fat32_delete+0x1c0>
    a7fc:	e1a01007 	mov	r1, r7
    a800:	e1a00006 	mov	r0, r6
    a804:	eb0012ef 	bl	f3c8 <printk>
    a808:	e1a01004 	mov	r1, r4
    a80c:	e59f00a8 	ldr	r0, [pc, #168]	; a8bc <fat32_delete+0x1e0>
    a810:	eb0012ec 	bl	f3c8 <printk>
    a814:	e5953014 	ldr	r3, [r5, #20]
    a818:	e1a08104 	lsl	r8, r4, #2
    a81c:	e7934104 	ldr	r4, [r3, r4, lsl #2]
    a820:	e1a01007 	mov	r1, r7
    a824:	e1a00006 	mov	r0, r6
    a828:	eb0012e6 	bl	f3c8 <printk>
    a82c:	e1a01004 	mov	r1, r4
    a830:	e59f0088 	ldr	r0, [pc, #136]	; a8c0 <fat32_delete+0x1e4>
    a834:	eb0012e3 	bl	f3c8 <printk>
    a838:	e5953014 	ldr	r3, [r5, #20]
    a83c:	e3a02000 	mov	r2, #0, 0
    a840:	e7832008 	str	r2, [r3, r8]
    a844:	e1a00004 	mov	r0, r4
    a848:	eb00060d 	bl	c084 <fat32_fat_entry_type>
    a84c:	e3500000 	cmp	r0, #0, 0
    a850:	0a000003 	beq	a864 <fat32_delete+0x188>
    a854:	e1a00004 	mov	r0, r4
    a858:	eb000609 	bl	c084 <fat32_fat_entry_type>
    a85c:	e370028f 	cmn	r0, #-268435448	; 0xf0000008
    a860:	1affffe3 	bne	a7f4 <fat32_delete+0x118>
    a864:	e5953014 	ldr	r3, [r5, #20]
    a868:	e3a02000 	mov	r2, #0, 0
    a86c:	e7832104 	str	r2, [r3, r4, lsl #2]
    a870:	e59f1020 	ldr	r1, [pc, #32]	; a898 <fat32_delete+0x1bc>
    a874:	e59f0020 	ldr	r0, [pc, #32]	; a89c <fat32_delete+0x1c0>
    a878:	eb0012d2 	bl	f3c8 <printk>
    a87c:	e59f0040 	ldr	r0, [pc, #64]	; a8c4 <fat32_delete+0x1e8>
    a880:	eb0012d0 	bl	f3c8 <printk>
    a884:	e1a00005 	mov	r0, r5
    a888:	ebfffcbe 	bl	9b88 <write_fat_to_disk>
    a88c:	e3a00001 	mov	r0, #1, 0
    a890:	eaffffa4 	b	a728 <fat32_delete+0x4c>
    a894:	0001321c 	.word	0x0001321c
    a898:	00010810 	.word	0x00010810
    a89c:	0000fd3c 	.word	0x0000fd3c
    a8a0:	00010644 	.word	0x00010644
    a8a4:	0001043c 	.word	0x0001043c
    a8a8:	00000216 	.word	0x00000216
    a8ac:	00010224 	.word	0x00010224
    a8b0:	000103f8 	.word	0x000103f8
    a8b4:	00010670 	.word	0x00010670
    a8b8:	00010654 	.word	0x00010654
    a8bc:	0001068c 	.word	0x0001068c
    a8c0:	000106a0 	.word	0x000106a0
    a8c4:	000106bc 	.word	0x000106bc

0000a8c8 <fat32_truncate>:
    a8c8:	e92d43f0 	push	{r4, r5, r6, r7, r8, r9, lr}
    a8cc:	e24dd014 	sub	sp, sp, #20, 0
    a8d0:	e1a07003 	mov	r7, r3
    a8d4:	e59f3118 	ldr	r3, [pc, #280]	; a9f4 <fat32_truncate+0x12c>
    a8d8:	e5933000 	ldr	r3, [r3]
    a8dc:	e3530000 	cmp	r3, #0, 0
    a8e0:	0a000034 	beq	a9b8 <fat32_truncate+0xf0>
    a8e4:	e1a06000 	mov	r6, r0
    a8e8:	e1a08001 	mov	r8, r1
    a8ec:	e1a05002 	mov	r5, r2
    a8f0:	e59f1100 	ldr	r1, [pc, #256]	; a9f8 <fat32_truncate+0x130>
    a8f4:	e59f0100 	ldr	r0, [pc, #256]	; a9fc <fat32_truncate+0x134>
    a8f8:	eb0012b2 	bl	f3c8 <printk>
    a8fc:	e1a01005 	mov	r1, r5
    a900:	e59f00f8 	ldr	r0, [pc, #248]	; aa00 <fat32_truncate+0x138>
    a904:	eb0012af 	bl	f3c8 <printk>
    a908:	e28d200c 	add	r2, sp, #12, 0
    a90c:	e5981020 	ldr	r1, [r8, #32]
    a910:	e1a00006 	mov	r0, r6
    a914:	ebfffc3e 	bl	9a14 <get_dirents>
    a918:	e1a09000 	mov	r9, r0
    a91c:	e1a02005 	mov	r2, r5
    a920:	e59d100c 	ldr	r1, [sp, #12]
    a924:	ebfffc81 	bl	9b30 <find_dirent_with_name>
    a928:	e3700001 	cmn	r0, #1, 0
    a92c:	0a000029 	beq	a9d8 <fat32_truncate+0x110>
    a930:	e0894280 	add	r4, r9, r0, lsl #5
    a934:	e5c4701c 	strb	r7, [r4, #28]
    a938:	e1a03427 	lsr	r3, r7, #8
    a93c:	e5c4301d 	strb	r3, [r4, #29]
    a940:	e1a03827 	lsr	r3, r7, #16
    a944:	e5c4301e 	strb	r3, [r4, #30]
    a948:	e1a03c27 	lsr	r3, r7, #24
    a94c:	e5c4301f 	strb	r3, [r4, #31]
    a950:	e1a02005 	mov	r2, r5
    a954:	e1a01008 	mov	r1, r8
    a958:	e1a00006 	mov	r0, r6
    a95c:	ebfffe41 	bl	a268 <fat32_read>
    a960:	e5d4c01a 	ldrb	ip, [r4, #26]
    a964:	e5d4101b 	ldrb	r1, [r4, #27]
    a968:	e18cc401 	orr	ip, ip, r1, lsl #8
    a96c:	e5d41014 	ldrb	r1, [r4, #20]
    a970:	e5d43015 	ldrb	r3, [r4, #21]
    a974:	e1811403 	orr	r1, r1, r3, lsl #8
    a978:	e1a03007 	mov	r3, r7
    a97c:	e5902000 	ldr	r2, [r0]
    a980:	e18c1801 	orr	r1, ip, r1, lsl #16
    a984:	e1a00006 	mov	r0, r6
    a988:	ebfffc95 	bl	9be4 <write_cluster_chain>
    a98c:	e59d300c 	ldr	r3, [sp, #12]
    a990:	e1a03283 	lsl	r3, r3, #5
    a994:	e1a02009 	mov	r2, r9
    a998:	e5981020 	ldr	r1, [r8, #32]
    a99c:	e1a00006 	mov	r0, r6
    a9a0:	ebfffc8f 	bl	9be4 <write_cluster_chain>
    a9a4:	e1a00006 	mov	r0, r6
    a9a8:	ebfffc76 	bl	9b88 <write_fat_to_disk>
    a9ac:	e3a00001 	mov	r0, #1, 0
    a9b0:	e28dd014 	add	sp, sp, #20, 0
    a9b4:	e8bd83f0 	pop	{r4, r5, r6, r7, r8, r9, pc}
    a9b8:	e59f3044 	ldr	r3, [pc, #68]	; aa04 <fat32_truncate+0x13c>
    a9bc:	e58d3000 	str	r3, [sp]
    a9c0:	e3a03f8f 	mov	r3, #572	; 0x23c
    a9c4:	e59f202c 	ldr	r2, [pc, #44]	; a9f8 <fat32_truncate+0x130>
    a9c8:	e59f1038 	ldr	r1, [pc, #56]	; aa08 <fat32_truncate+0x140>
    a9cc:	e59f0038 	ldr	r0, [pc, #56]	; aa0c <fat32_truncate+0x144>
    a9d0:	eb00127c 	bl	f3c8 <printk>
    a9d4:	eb0013ab 	bl	f888 <clean_reboot>
    a9d8:	e59f1018 	ldr	r1, [pc, #24]	; a9f8 <fat32_truncate+0x130>
    a9dc:	e59f0018 	ldr	r0, [pc, #24]	; a9fc <fat32_truncate+0x134>
    a9e0:	eb001278 	bl	f3c8 <printk>
    a9e4:	e59f0024 	ldr	r0, [pc, #36]	; aa10 <fat32_truncate+0x148>
    a9e8:	eb001276 	bl	f3c8 <printk>
    a9ec:	e3a00000 	mov	r0, #0, 0
    a9f0:	eaffffee 	b	a9b0 <fat32_truncate+0xe8>
    a9f4:	0001321c 	.word	0x0001321c
    a9f8:	00010820 	.word	0x00010820
    a9fc:	0000fd3c 	.word	0x0000fd3c
    aa00:	000106e0 	.word	0x000106e0
    aa04:	0001043c 	.word	0x0001043c
    aa08:	00010224 	.word	0x00010224
    aa0c:	000103f8 	.word	0x000103f8
    aa10:	000106f0 	.word	0x000106f0

0000aa14 <fat32_write>:
    aa14:	e92d41f0 	push	{r4, r5, r6, r7, r8, lr}
    aa18:	e24dd010 	sub	sp, sp, #16, 0
    aa1c:	e1a07003 	mov	r7, r3
    aa20:	e59f318c 	ldr	r3, [pc, #396]	; abb4 <fat32_write+0x1a0>
    aa24:	e5933000 	ldr	r3, [r3]
    aa28:	e3530000 	cmp	r3, #0, 0
    aa2c:	0a000035 	beq	ab08 <fat32_write+0xf4>
    aa30:	e1a05000 	mov	r5, r0
    aa34:	e1a06001 	mov	r6, r1
    aa38:	e1a04002 	mov	r4, r2
    aa3c:	e5913024 	ldr	r3, [r1, #36]	; 0x24
    aa40:	e3530000 	cmp	r3, #0, 0
    aa44:	0a000037 	beq	ab28 <fat32_write+0x114>
    aa48:	e28d200c 	add	r2, sp, #12, 0
    aa4c:	e5911020 	ldr	r1, [r1, #32]
    aa50:	ebfffbef 	bl	9a14 <get_dirents>
    aa54:	e1a08000 	mov	r8, r0
    aa58:	e1a02004 	mov	r2, r4
    aa5c:	e59d100c 	ldr	r1, [sp, #12]
    aa60:	ebfffc32 	bl	9b30 <find_dirent_with_name>
    aa64:	e3700001 	cmn	r0, #1, 0
    aa68:	0a000036 	beq	ab48 <fat32_write+0x134>
    aa6c:	e0884280 	add	r4, r8, r0, lsl #5
    aa70:	e5972008 	ldr	r2, [r7, #8]
    aa74:	e5c4201c 	strb	r2, [r4, #28]
    aa78:	e1a03422 	lsr	r3, r2, #8
    aa7c:	e5c4301d 	strb	r3, [r4, #29]
    aa80:	e1a03822 	lsr	r3, r2, #16
    aa84:	e5c4301e 	strb	r3, [r4, #30]
    aa88:	e1a02c22 	lsr	r2, r2, #24
    aa8c:	e5c4201f 	strb	r2, [r4, #31]
    aa90:	e5d4301a 	ldrb	r3, [r4, #26]
    aa94:	e5d4201b 	ldrb	r2, [r4, #27]
    aa98:	e1933402 	orrs	r3, r3, r2, lsl #8
    aa9c:	1a000003 	bne	aab0 <fat32_write+0x9c>
    aaa0:	e5d43014 	ldrb	r3, [r4, #20]
    aaa4:	e5d42015 	ldrb	r2, [r4, #21]
    aaa8:	e1933402 	orrs	r3, r3, r2, lsl #8
    aaac:	0a00002c 	beq	ab64 <fat32_write+0x150>
    aab0:	e5d4001a 	ldrb	r0, [r4, #26]
    aab4:	e5d4101b 	ldrb	r1, [r4, #27]
    aab8:	e1800401 	orr	r0, r0, r1, lsl #8
    aabc:	e5d41014 	ldrb	r1, [r4, #20]
    aac0:	e5d43015 	ldrb	r3, [r4, #21]
    aac4:	e1811403 	orr	r1, r1, r3, lsl #8
    aac8:	e5973008 	ldr	r3, [r7, #8]
    aacc:	e5972000 	ldr	r2, [r7]
    aad0:	e1801801 	orr	r1, r0, r1, lsl #16
    aad4:	e1a00005 	mov	r0, r5
    aad8:	ebfffc41 	bl	9be4 <write_cluster_chain>
    aadc:	e59d300c 	ldr	r3, [sp, #12]
    aae0:	e1a03283 	lsl	r3, r3, #5
    aae4:	e1a02008 	mov	r2, r8
    aae8:	e5961020 	ldr	r1, [r6, #32]
    aaec:	e1a00005 	mov	r0, r5
    aaf0:	ebfffc3b 	bl	9be4 <write_cluster_chain>
    aaf4:	e1a00005 	mov	r0, r5
    aaf8:	ebfffc22 	bl	9b88 <write_fat_to_disk>
    aafc:	e3a00001 	mov	r0, #1, 0
    ab00:	e28dd010 	add	sp, sp, #16, 0
    ab04:	e8bd81f0 	pop	{r4, r5, r6, r7, r8, pc}
    ab08:	e59f30a8 	ldr	r3, [pc, #168]	; abb8 <fat32_write+0x1a4>
    ab0c:	e58d3000 	str	r3, [sp]
    ab10:	e59f30a4 	ldr	r3, [pc, #164]	; abbc <fat32_write+0x1a8>
    ab14:	e59f20a4 	ldr	r2, [pc, #164]	; abc0 <fat32_write+0x1ac>
    ab18:	e59f10a4 	ldr	r1, [pc, #164]	; abc4 <fat32_write+0x1b0>
    ab1c:	e59f00a4 	ldr	r0, [pc, #164]	; abc8 <fat32_write+0x1b4>
    ab20:	eb001228 	bl	f3c8 <printk>
    ab24:	eb001357 	bl	f888 <clean_reboot>
    ab28:	e59f309c 	ldr	r3, [pc, #156]	; abcc <fat32_write+0x1b8>
    ab2c:	e58d3000 	str	r3, [sp]
    ab30:	e59f3098 	ldr	r3, [pc, #152]	; abd0 <fat32_write+0x1bc>
    ab34:	e59f2084 	ldr	r2, [pc, #132]	; abc0 <fat32_write+0x1ac>
    ab38:	e59f1084 	ldr	r1, [pc, #132]	; abc4 <fat32_write+0x1b0>
    ab3c:	e59f0090 	ldr	r0, [pc, #144]	; abd4 <fat32_write+0x1c0>
    ab40:	eb001220 	bl	f3c8 <printk>
    ab44:	eb00134f 	bl	f888 <clean_reboot>
    ab48:	e59f1070 	ldr	r1, [pc, #112]	; abc0 <fat32_write+0x1ac>
    ab4c:	e59f0084 	ldr	r0, [pc, #132]	; abd8 <fat32_write+0x1c4>
    ab50:	eb00121c 	bl	f3c8 <printk>
    ab54:	e59f0080 	ldr	r0, [pc, #128]	; abdc <fat32_write+0x1c8>
    ab58:	eb00121a 	bl	f3c8 <printk>
    ab5c:	e3a00000 	mov	r0, #0, 0
    ab60:	eaffffe6 	b	ab00 <fat32_write+0xec>
    ab64:	e59f1054 	ldr	r1, [pc, #84]	; abc0 <fat32_write+0x1ac>
    ab68:	e59f0068 	ldr	r0, [pc, #104]	; abd8 <fat32_write+0x1c4>
    ab6c:	eb001215 	bl	f3c8 <printk>
    ab70:	e59f0068 	ldr	r0, [pc, #104]	; abe0 <fat32_write+0x1cc>
    ab74:	eb001213 	bl	f3c8 <printk>
    ab78:	e3a01000 	mov	r1, #0, 0
    ab7c:	e1a00005 	mov	r0, r5
    ab80:	ebfffb5c 	bl	98f8 <find_free_cluster>
    ab84:	e6ff3070 	uxth	r3, r0
    ab88:	e5c4001a 	strb	r0, [r4, #26]
    ab8c:	e1a03423 	lsr	r3, r3, #8
    ab90:	e5c4301b 	strb	r3, [r4, #27]
    ab94:	e1a03820 	lsr	r3, r0, #16
    ab98:	e5c43014 	strb	r3, [r4, #20]
    ab9c:	e1a03423 	lsr	r3, r3, #8
    aba0:	e5c43015 	strb	r3, [r4, #21]
    aba4:	e5953014 	ldr	r3, [r5, #20]
    aba8:	e3e0227f 	mvn	r2, #-268435449	; 0xf0000007
    abac:	e7832100 	str	r2, [r3, r0, lsl #2]
    abb0:	eaffffbe 	b	aab0 <fat32_write+0x9c>
    abb4:	0001321c 	.word	0x0001321c
    abb8:	0001043c 	.word	0x0001043c
    abbc:	00000256 	.word	0x00000256
    abc0:	00010830 	.word	0x00010830
    abc4:	00010224 	.word	0x00010224
    abc8:	000103f8 	.word	0x000103f8
    abcc:	000104f0 	.word	0x000104f0
    abd0:	00000257 	.word	0x00000257
    abd4:	00010504 	.word	0x00010504
    abd8:	0000fd3c 	.word	0x0000fd3c
    abdc:	0001071c 	.word	0x0001071c
    abe0:	0001073c 	.word	0x0001073c

0000abe4 <fat32_flush>:
    abe4:	e59f3038 	ldr	r3, [pc, #56]	; ac24 <fat32_flush+0x40>
    abe8:	e5933000 	ldr	r3, [r3]
    abec:	e3530000 	cmp	r3, #0, 0
    abf0:	0a000001 	beq	abfc <fat32_flush+0x18>
    abf4:	e3a00000 	mov	r0, #0, 0
    abf8:	e12fff1e 	bx	lr
    abfc:	e52de004 	push	{lr}		; (str lr, [sp, #-4]!)
    ac00:	e24dd00c 	sub	sp, sp, #12, 0
    ac04:	e59f301c 	ldr	r3, [pc, #28]	; ac28 <fat32_flush+0x44>
    ac08:	e58d3000 	str	r3, [sp]
    ac0c:	e3a03f9e 	mov	r3, #632	; 0x278
    ac10:	e59f2014 	ldr	r2, [pc, #20]	; ac2c <fat32_flush+0x48>
    ac14:	e59f1014 	ldr	r1, [pc, #20]	; ac30 <fat32_flush+0x4c>
    ac18:	e59f0014 	ldr	r0, [pc, #20]	; ac34 <fat32_flush+0x50>
    ac1c:	eb0011e9 	bl	f3c8 <printk>
    ac20:	eb001318 	bl	f888 <clean_reboot>
    ac24:	0001321c 	.word	0x0001321c
    ac28:	0001043c 	.word	0x0001043c
    ac2c:	0001083c 	.word	0x0001083c
    ac30:	00010224 	.word	0x00010224
    ac34:	000103f8 	.word	0x000103f8

0000ac38 <pi_sd_trace>:
    ac38:	e59f3004 	ldr	r3, [pc, #4]	; ac44 <pi_sd_trace+0xc>
    ac3c:	e5830000 	str	r0, [r3]
    ac40:	e12fff1e 	bx	lr
    ac44:	00013220 	.word	0x00013220

0000ac48 <pi_sd_init>:
    ac48:	e92d4010 	push	{r4, lr}
    ac4c:	eb000d95 	bl	e2a8 <emmc_init>
    ac50:	e3500000 	cmp	r0, #0, 0
    ac54:	0a000003 	beq	ac68 <pi_sd_init+0x20>
    ac58:	e3a00001 	mov	r0, #1, 0
    ac5c:	e59f301c 	ldr	r3, [pc, #28]	; ac80 <pi_sd_init+0x38>
    ac60:	e5830004 	str	r0, [r3, #4]
    ac64:	e8bd8010 	pop	{r4, pc}
    ac68:	e3a0301d 	mov	r3, #29, 0
    ac6c:	e59f2010 	ldr	r2, [pc, #16]	; ac84 <pi_sd_init+0x3c>
    ac70:	e59f1010 	ldr	r1, [pc, #16]	; ac88 <pi_sd_init+0x40>
    ac74:	e59f0010 	ldr	r0, [pc, #16]	; ac8c <pi_sd_init+0x44>
    ac78:	eb0011d2 	bl	f3c8 <printk>
    ac7c:	eb001301 	bl	f888 <clean_reboot>
    ac80:	00013220 	.word	0x00013220
    ac84:	000109a0 	.word	0x000109a0
    ac88:	00010848 	.word	0x00010848
    ac8c:	00010850 	.word	0x00010850

0000ac90 <pi_sd_read>:
    ac90:	e92d4070 	push	{r4, r5, r6, lr}
    ac94:	e24dd008 	sub	sp, sp, #8, 0
    ac98:	e59f3118 	ldr	r3, [pc, #280]	; adb8 <pi_sd_read+0x128>
    ac9c:	e5933004 	ldr	r3, [r3, #4]
    aca0:	e3530000 	cmp	r3, #0, 0
    aca4:	0a00000f 	beq	ace8 <pi_sd_read+0x58>
    aca8:	e1a06000 	mov	r6, r0
    acac:	e1a05001 	mov	r5, r1
    acb0:	e1a04482 	lsl	r4, r2, #9
    acb4:	e1a02004 	mov	r2, r4
    acb8:	e1a01000 	mov	r1, r0
    acbc:	e1a00005 	mov	r0, r5
    acc0:	eb000d32 	bl	e190 <emmc_read>
    acc4:	e1500004 	cmp	r0, r4
    acc8:	1a00000e 	bne	ad08 <pi_sd_read+0x78>
    accc:	e59f30e4 	ldr	r3, [pc, #228]	; adb8 <pi_sd_read+0x128>
    acd0:	e5933000 	ldr	r3, [r3]
    acd4:	e3530000 	cmp	r3, #0, 0
    acd8:	1a000011 	bne	ad24 <pi_sd_read+0x94>
    acdc:	e3a00001 	mov	r0, #1, 0
    ace0:	e28dd008 	add	sp, sp, #8, 0
    ace4:	e8bd8070 	pop	{r4, r5, r6, pc}
    ace8:	e59f30cc 	ldr	r3, [pc, #204]	; adbc <pi_sd_read+0x12c>
    acec:	e58d3000 	str	r3, [sp]
    acf0:	e3a03023 	mov	r3, #35, 0	; 0x23
    acf4:	e59f20c4 	ldr	r2, [pc, #196]	; adc0 <pi_sd_read+0x130>
    acf8:	e59f10c4 	ldr	r1, [pc, #196]	; adc4 <pi_sd_read+0x134>
    acfc:	e59f00c4 	ldr	r0, [pc, #196]	; adc8 <pi_sd_read+0x138>
    ad00:	eb0011b0 	bl	f3c8 <printk>
    ad04:	eb0012df 	bl	f888 <clean_reboot>
    ad08:	e58d0000 	str	r0, [sp]
    ad0c:	e3a03026 	mov	r3, #38, 0	; 0x26
    ad10:	e59f20a8 	ldr	r2, [pc, #168]	; adc0 <pi_sd_read+0x130>
    ad14:	e59f10a8 	ldr	r1, [pc, #168]	; adc4 <pi_sd_read+0x134>
    ad18:	e59f00ac 	ldr	r0, [pc, #172]	; adcc <pi_sd_read+0x13c>
    ad1c:	eb0011a9 	bl	f3c8 <printk>
    ad20:	eb0012d8 	bl	f888 <clean_reboot>
    ad24:	e59f1094 	ldr	r1, [pc, #148]	; adc0 <pi_sd_read+0x130>
    ad28:	e59f00a0 	ldr	r0, [pc, #160]	; add0 <pi_sd_read+0x140>
    ad2c:	eb0011a5 	bl	f3c8 <printk>
    ad30:	e16f3f16 	clz	r3, r6
    ad34:	e1a032a3 	lsr	r3, r3, #5
    ad38:	e3540000 	cmp	r4, #0, 0
    ad3c:	03a03001 	moveq	r3, #1, 0
    ad40:	e3530000 	cmp	r3, #0, 0
    ad44:	1a000019 	bne	adb0 <pi_sd_read+0x120>
    ad48:	e1a03124 	lsr	r3, r4, #2
    ad4c:	e3530000 	cmp	r3, #0, 0
    ad50:	0a00000c 	beq	ad88 <pi_sd_read+0xf8>
    ad54:	e5d61001 	ldrb	r1, [r6, #1]
    ad58:	e5d62000 	ldrb	r2, [r6]
    ad5c:	e1822401 	orr	r2, r2, r1, lsl #8
    ad60:	e0822004 	add	r2, r2, r4
    ad64:	e5d61003 	ldrb	r1, [r6, #3]
    ad68:	e5d64002 	ldrb	r4, [r6, #2]
    ad6c:	e1844401 	orr	r4, r4, r1, lsl #8
    ad70:	e0224584 	eor	r4, r2, r4, lsl #11
    ad74:	e0244802 	eor	r4, r4, r2, lsl #16
    ad78:	e2866004 	add	r6, r6, #4, 0
    ad7c:	e08445a4 	add	r4, r4, r4, lsr #11
    ad80:	e2433001 	sub	r3, r3, #1, 0
    ad84:	eafffff0 	b	ad4c <pi_sd_read+0xbc>
    ad88:	e0242184 	eor	r2, r4, r4, lsl #3
    ad8c:	e08222a2 	add	r2, r2, r2, lsr #5
    ad90:	e0222202 	eor	r2, r2, r2, lsl #4
    ad94:	e08228a2 	add	r2, r2, r2, lsr #17
    ad98:	e0222c82 	eor	r2, r2, r2, lsl #25
    ad9c:	e0822322 	add	r2, r2, r2, lsr #6
    ada0:	e1a01005 	mov	r1, r5
    ada4:	e59f0028 	ldr	r0, [pc, #40]	; add4 <pi_sd_read+0x144>
    ada8:	eb001186 	bl	f3c8 <printk>
    adac:	eaffffca 	b	acdc <pi_sd_read+0x4c>
    adb0:	e3a02000 	mov	r2, #0, 0
    adb4:	eafffff9 	b	ada0 <pi_sd_read+0x110>
    adb8:	00013220 	.word	0x00013220
    adbc:	0001043c 	.word	0x0001043c
    adc0:	000109ac 	.word	0x000109ac
    adc4:	00010848 	.word	0x00010848
    adc8:	00010870 	.word	0x00010870
    adcc:	000108b8 	.word	0x000108b8
    add0:	0000fd3c 	.word	0x0000fd3c
    add4:	000108f4 	.word	0x000108f4

0000add8 <pi_sec_read>:
    add8:	e92d4070 	push	{r4, r5, r6, lr}
    addc:	e24dd008 	sub	sp, sp, #8, 0
    ade0:	e59f3074 	ldr	r3, [pc, #116]	; ae5c <pi_sec_read+0x84>
    ade4:	e5933004 	ldr	r3, [r3, #4]
    ade8:	e3530000 	cmp	r3, #0, 0
    adec:	0a00000c 	beq	ae24 <pi_sec_read+0x4c>
    adf0:	e1a05000 	mov	r5, r0
    adf4:	e1a04001 	mov	r4, r1
    adf8:	e1a00481 	lsl	r0, r1, #9
    adfc:	eb000deb 	bl	e5b0 <kmalloc>
    ae00:	e1a06000 	mov	r6, r0
    ae04:	e1a02004 	mov	r2, r4
    ae08:	e1a01005 	mov	r1, r5
    ae0c:	ebffff9f 	bl	ac90 <pi_sd_read>
    ae10:	e3500000 	cmp	r0, #0, 0
    ae14:	0a00000a 	beq	ae44 <pi_sec_read+0x6c>
    ae18:	e1a00006 	mov	r0, r6
    ae1c:	e28dd008 	add	sp, sp, #8, 0
    ae20:	e8bd8070 	pop	{r4, r5, r6, pc}
    ae24:	e59f3034 	ldr	r3, [pc, #52]	; ae60 <pi_sec_read+0x88>
    ae28:	e58d3000 	str	r3, [sp]
    ae2c:	e3a03030 	mov	r3, #48, 0	; 0x30
    ae30:	e59f202c 	ldr	r2, [pc, #44]	; ae64 <pi_sec_read+0x8c>
    ae34:	e59f102c 	ldr	r1, [pc, #44]	; ae68 <pi_sec_read+0x90>
    ae38:	e59f002c 	ldr	r0, [pc, #44]	; ae6c <pi_sec_read+0x94>
    ae3c:	eb001161 	bl	f3c8 <printk>
    ae40:	eb001290 	bl	f888 <clean_reboot>
    ae44:	e3a03034 	mov	r3, #52, 0	; 0x34
    ae48:	e59f2014 	ldr	r2, [pc, #20]	; ae64 <pi_sec_read+0x8c>
    ae4c:	e59f1014 	ldr	r1, [pc, #20]	; ae68 <pi_sec_read+0x90>
    ae50:	e59f0018 	ldr	r0, [pc, #24]	; ae70 <pi_sec_read+0x98>
    ae54:	eb00115b 	bl	f3c8 <printk>
    ae58:	eb00128a 	bl	f888 <clean_reboot>
    ae5c:	00013220 	.word	0x00013220
    ae60:	0001043c 	.word	0x0001043c
    ae64:	000109b8 	.word	0x000109b8
    ae68:	00010848 	.word	0x00010848
    ae6c:	00010870 	.word	0x00010870
    ae70:	00010914 	.word	0x00010914

0000ae74 <pi_sd_write>:
    ae74:	e92d4070 	push	{r4, r5, r6, lr}
    ae78:	e24dd008 	sub	sp, sp, #8, 0
    ae7c:	e59f30b0 	ldr	r3, [pc, #176]	; af34 <pi_sd_write+0xc0>
    ae80:	e5933004 	ldr	r3, [r3, #4]
    ae84:	e3530000 	cmp	r3, #0, 0
    ae88:	0a00000f 	beq	aecc <pi_sd_write+0x58>
    ae8c:	e1a06000 	mov	r6, r0
    ae90:	e1a05001 	mov	r5, r1
    ae94:	e1a04482 	lsl	r4, r2, #9
    ae98:	e1a02004 	mov	r2, r4
    ae9c:	e1a01000 	mov	r1, r0
    aea0:	e1a00005 	mov	r0, r5
    aea4:	eb000cdd 	bl	e220 <emmc_write>
    aea8:	e1500004 	cmp	r0, r4
    aeac:	1a00000e 	bne	aeec <pi_sd_write+0x78>
    aeb0:	e59f307c 	ldr	r3, [pc, #124]	; af34 <pi_sd_write+0xc0>
    aeb4:	e5933000 	ldr	r3, [r3]
    aeb8:	e3530000 	cmp	r3, #0, 0
    aebc:	1a000011 	bne	af08 <pi_sd_write+0x94>
    aec0:	e3a00001 	mov	r0, #1, 0
    aec4:	e28dd008 	add	sp, sp, #8, 0
    aec8:	e8bd8070 	pop	{r4, r5, r6, pc}
    aecc:	e59f3064 	ldr	r3, [pc, #100]	; af38 <pi_sd_write+0xc4>
    aed0:	e58d3000 	str	r3, [sp]
    aed4:	e3a0303b 	mov	r3, #59, 0	; 0x3b
    aed8:	e59f205c 	ldr	r2, [pc, #92]	; af3c <pi_sd_write+0xc8>
    aedc:	e59f105c 	ldr	r1, [pc, #92]	; af40 <pi_sd_write+0xcc>
    aee0:	e59f005c 	ldr	r0, [pc, #92]	; af44 <pi_sd_write+0xd0>
    aee4:	eb001137 	bl	f3c8 <printk>
    aee8:	eb001266 	bl	f888 <clean_reboot>
    aeec:	e58d0000 	str	r0, [sp]
    aef0:	e3a0303e 	mov	r3, #62, 0	; 0x3e
    aef4:	e59f2040 	ldr	r2, [pc, #64]	; af3c <pi_sd_write+0xc8>
    aef8:	e59f1040 	ldr	r1, [pc, #64]	; af40 <pi_sd_write+0xcc>
    aefc:	e59f0044 	ldr	r0, [pc, #68]	; af48 <pi_sd_write+0xd4>
    af00:	eb001130 	bl	f3c8 <printk>
    af04:	eb00125f 	bl	f888 <clean_reboot>
    af08:	e59f102c 	ldr	r1, [pc, #44]	; af3c <pi_sd_write+0xc8>
    af0c:	e59f0038 	ldr	r0, [pc, #56]	; af4c <pi_sd_write+0xd8>
    af10:	eb00112c 	bl	f3c8 <printk>
    af14:	e1a01004 	mov	r1, r4
    af18:	e1a00006 	mov	r0, r6
    af1c:	eb00109b 	bl	f190 <our_crc32>
    af20:	e1a02000 	mov	r2, r0
    af24:	e1a01005 	mov	r1, r5
    af28:	e59f0020 	ldr	r0, [pc, #32]	; af50 <pi_sd_write+0xdc>
    af2c:	eb001125 	bl	f3c8 <printk>
    af30:	eaffffe2 	b	aec0 <pi_sd_write+0x4c>
    af34:	00013220 	.word	0x00013220
    af38:	0001043c 	.word	0x0001043c
    af3c:	000109c4 	.word	0x000109c4
    af40:	00010848 	.word	0x00010848
    af44:	00010870 	.word	0x00010870
    af48:	00010944 	.word	0x00010944
    af4c:	0000fd3c 	.word	0x0000fd3c
    af50:	00010980 	.word	0x00010980

0000af54 <mbr_get_partition>:
    af54:	e92d4010 	push	{r4, lr}
    af58:	e24dd018 	sub	sp, sp, #24, 0
    af5c:	e3520003 	cmp	r2, #3, 0
    af60:	8a00000e 	bhi	afa0 <mbr_get_partition+0x4c>
    af64:	e1a04000 	mov	r4, r0
    af68:	e1a03002 	mov	r3, r2
    af6c:	e2811f6f 	add	r1, r1, #444	; 0x1bc
    af70:	e2811002 	add	r1, r1, #2, 0
    af74:	e3a02010 	mov	r2, #16, 0
    af78:	e0811203 	add	r1, r1, r3, lsl #4
    af7c:	e28d0008 	add	r0, sp, #8, 0
    af80:	eb0010b1 	bl	f24c <memcpy>
    af84:	e3a02010 	mov	r2, #16, 0
    af88:	e28d1008 	add	r1, sp, #8, 0
    af8c:	e1a00004 	mov	r0, r4
    af90:	eb0010ad 	bl	f24c <memcpy>
    af94:	e1a00004 	mov	r0, r4
    af98:	e28dd018 	add	sp, sp, #24, 0
    af9c:	e8bd8010 	pop	{r4, pc}
    afa0:	e59f3018 	ldr	r3, [pc, #24]	; afc0 <mbr_get_partition+0x6c>
    afa4:	e58d3000 	str	r3, [sp]
    afa8:	e3a0301c 	mov	r3, #28, 0
    afac:	e59f2010 	ldr	r2, [pc, #16]	; afc4 <mbr_get_partition+0x70>
    afb0:	e59f1010 	ldr	r1, [pc, #16]	; afc8 <mbr_get_partition+0x74>
    afb4:	e59f0010 	ldr	r0, [pc, #16]	; afcc <mbr_get_partition+0x78>
    afb8:	eb001102 	bl	f3c8 <printk>
    afbc:	eb001231 	bl	f888 <clean_reboot>
    afc0:	000109e0 	.word	0x000109e0
    afc4:	00010e04 	.word	0x00010e04
    afc8:	000109d0 	.word	0x000109d0
    afcc:	0000ff5c 	.word	0x0000ff5c

0000afd0 <mbr_part_str>:
    afd0:	e35000fc 	cmp	r0, #252, 0	; 0xfc
    afd4:	979ff100 	ldrls	pc, [pc, r0, lsl #2]
    afd8:	ea000140 	b	b4e0 <mbr_part_str+0x510>
    afdc:	0000b504 	.word	0x0000b504
    afe0:	0000b50c 	.word	0x0000b50c
    afe4:	0000b4e0 	.word	0x0000b4e0
    afe8:	0000b4e0 	.word	0x0000b4e0
    afec:	0000b3d0 	.word	0x0000b3d0
    aff0:	0000b3d8 	.word	0x0000b3d8
    aff4:	0000b3e0 	.word	0x0000b3e0
    aff8:	0000b3e8 	.word	0x0000b3e8
    affc:	0000b4e0 	.word	0x0000b4e0
    b000:	0000b4e0 	.word	0x0000b4e0
    b004:	0000b4e0 	.word	0x0000b4e0
    b008:	0000b3f0 	.word	0x0000b3f0
    b00c:	0000b3f8 	.word	0x0000b3f8
    b010:	0000b4e0 	.word	0x0000b4e0
    b014:	0000b400 	.word	0x0000b400
    b018:	0000b408 	.word	0x0000b408
    b01c:	0000b4e0 	.word	0x0000b4e0
    b020:	0000b410 	.word	0x0000b410
    b024:	0000b4e0 	.word	0x0000b4e0
    b028:	0000b4e0 	.word	0x0000b4e0
    b02c:	0000b418 	.word	0x0000b418
    b030:	0000b4e0 	.word	0x0000b4e0
    b034:	0000b420 	.word	0x0000b420
    b038:	0000b4e0 	.word	0x0000b4e0
    b03c:	0000b4e0 	.word	0x0000b4e0
    b040:	0000b4e0 	.word	0x0000b4e0
    b044:	0000b4e0 	.word	0x0000b4e0
    b048:	0000b428 	.word	0x0000b428
    b04c:	0000b430 	.word	0x0000b430
    b050:	0000b4e0 	.word	0x0000b4e0
    b054:	0000b438 	.word	0x0000b438
    b058:	0000b4e0 	.word	0x0000b4e0
    b05c:	0000b4e0 	.word	0x0000b4e0
    b060:	0000b4e0 	.word	0x0000b4e0
    b064:	0000b4e0 	.word	0x0000b4e0
    b068:	0000b4e0 	.word	0x0000b4e0
    b06c:	0000b4e0 	.word	0x0000b4e0
    b070:	0000b4e0 	.word	0x0000b4e0
    b074:	0000b4e0 	.word	0x0000b4e0
    b078:	0000b4e0 	.word	0x0000b4e0
    b07c:	0000b4e0 	.word	0x0000b4e0
    b080:	0000b4e0 	.word	0x0000b4e0
    b084:	0000b4e0 	.word	0x0000b4e0
    b088:	0000b4e0 	.word	0x0000b4e0
    b08c:	0000b4e0 	.word	0x0000b4e0
    b090:	0000b4e0 	.word	0x0000b4e0
    b094:	0000b4e0 	.word	0x0000b4e0
    b098:	0000b4e0 	.word	0x0000b4e0
    b09c:	0000b4e0 	.word	0x0000b4e0
    b0a0:	0000b4e0 	.word	0x0000b4e0
    b0a4:	0000b4e0 	.word	0x0000b4e0
    b0a8:	0000b4e0 	.word	0x0000b4e0
    b0ac:	0000b4e0 	.word	0x0000b4e0
    b0b0:	0000b4e0 	.word	0x0000b4e0
    b0b4:	0000b4e0 	.word	0x0000b4e0
    b0b8:	0000b4e0 	.word	0x0000b4e0
    b0bc:	0000b4e0 	.word	0x0000b4e0
    b0c0:	0000b4e0 	.word	0x0000b4e0
    b0c4:	0000b4e0 	.word	0x0000b4e0
    b0c8:	0000b4e0 	.word	0x0000b4e0
    b0cc:	0000b4e0 	.word	0x0000b4e0
    b0d0:	0000b4e0 	.word	0x0000b4e0
    b0d4:	0000b4e0 	.word	0x0000b4e0
    b0d8:	0000b4e0 	.word	0x0000b4e0
    b0dc:	0000b4e0 	.word	0x0000b4e0
    b0e0:	0000b4e0 	.word	0x0000b4e0
    b0e4:	0000b440 	.word	0x0000b440
    b0e8:	0000b4e0 	.word	0x0000b4e0
    b0ec:	0000b4e0 	.word	0x0000b4e0
    b0f0:	0000b4e0 	.word	0x0000b4e0
    b0f4:	0000b4e0 	.word	0x0000b4e0
    b0f8:	0000b4e0 	.word	0x0000b4e0
    b0fc:	0000b4e0 	.word	0x0000b4e0
    b100:	0000b4e0 	.word	0x0000b4e0
    b104:	0000b4e0 	.word	0x0000b4e0
    b108:	0000b4e0 	.word	0x0000b4e0
    b10c:	0000b4e0 	.word	0x0000b4e0
    b110:	0000b4e0 	.word	0x0000b4e0
    b114:	0000b4e0 	.word	0x0000b4e0
    b118:	0000b4e0 	.word	0x0000b4e0
    b11c:	0000b4e0 	.word	0x0000b4e0
    b120:	0000b4e0 	.word	0x0000b4e0
    b124:	0000b4e0 	.word	0x0000b4e0
    b128:	0000b4e0 	.word	0x0000b4e0
    b12c:	0000b4e0 	.word	0x0000b4e0
    b130:	0000b4e0 	.word	0x0000b4e0
    b134:	0000b4e0 	.word	0x0000b4e0
    b138:	0000b4e0 	.word	0x0000b4e0
    b13c:	0000b4e0 	.word	0x0000b4e0
    b140:	0000b4e0 	.word	0x0000b4e0
    b144:	0000b4e0 	.word	0x0000b4e0
    b148:	0000b4e0 	.word	0x0000b4e0
    b14c:	0000b4e0 	.word	0x0000b4e0
    b150:	0000b4e0 	.word	0x0000b4e0
    b154:	0000b4e0 	.word	0x0000b4e0
    b158:	0000b4e0 	.word	0x0000b4e0
    b15c:	0000b4e0 	.word	0x0000b4e0
    b160:	0000b4e0 	.word	0x0000b4e0
    b164:	0000b4e0 	.word	0x0000b4e0
    b168:	0000b4e0 	.word	0x0000b4e0
    b16c:	0000b4e0 	.word	0x0000b4e0
    b170:	0000b4e0 	.word	0x0000b4e0
    b174:	0000b4e0 	.word	0x0000b4e0
    b178:	0000b4e0 	.word	0x0000b4e0
    b17c:	0000b4e0 	.word	0x0000b4e0
    b180:	0000b4e0 	.word	0x0000b4e0
    b184:	0000b4e0 	.word	0x0000b4e0
    b188:	0000b4e0 	.word	0x0000b4e0
    b18c:	0000b4e0 	.word	0x0000b4e0
    b190:	0000b4e0 	.word	0x0000b4e0
    b194:	0000b4e0 	.word	0x0000b4e0
    b198:	0000b4e0 	.word	0x0000b4e0
    b19c:	0000b4e0 	.word	0x0000b4e0
    b1a0:	0000b4e0 	.word	0x0000b4e0
    b1a4:	0000b4e0 	.word	0x0000b4e0
    b1a8:	0000b4e0 	.word	0x0000b4e0
    b1ac:	0000b4e0 	.word	0x0000b4e0
    b1b0:	0000b4e0 	.word	0x0000b4e0
    b1b4:	0000b4e0 	.word	0x0000b4e0
    b1b8:	0000b4e0 	.word	0x0000b4e0
    b1bc:	0000b4e0 	.word	0x0000b4e0
    b1c0:	0000b4e0 	.word	0x0000b4e0
    b1c4:	0000b4e0 	.word	0x0000b4e0
    b1c8:	0000b4e0 	.word	0x0000b4e0
    b1cc:	0000b4e0 	.word	0x0000b4e0
    b1d0:	0000b4e0 	.word	0x0000b4e0
    b1d4:	0000b4e0 	.word	0x0000b4e0
    b1d8:	0000b4e0 	.word	0x0000b4e0
    b1dc:	0000b4e0 	.word	0x0000b4e0
    b1e0:	0000b4e0 	.word	0x0000b4e0
    b1e4:	0000b448 	.word	0x0000b448
    b1e8:	0000b450 	.word	0x0000b450
    b1ec:	0000b458 	.word	0x0000b458
    b1f0:	0000b460 	.word	0x0000b460
    b1f4:	0000b468 	.word	0x0000b468
    b1f8:	0000b470 	.word	0x0000b470
    b1fc:	0000b4e0 	.word	0x0000b4e0
    b200:	0000b4e0 	.word	0x0000b4e0
    b204:	0000b4e0 	.word	0x0000b4e0
    b208:	0000b4e0 	.word	0x0000b4e0
    b20c:	0000b4e0 	.word	0x0000b4e0
    b210:	0000b4e0 	.word	0x0000b4e0
    b214:	0000b4e0 	.word	0x0000b4e0
    b218:	0000b4e0 	.word	0x0000b4e0
    b21c:	0000b4e0 	.word	0x0000b4e0
    b220:	0000b4e0 	.word	0x0000b4e0
    b224:	0000b4e0 	.word	0x0000b4e0
    b228:	0000b4e0 	.word	0x0000b4e0
    b22c:	0000b4e0 	.word	0x0000b4e0
    b230:	0000b4e0 	.word	0x0000b4e0
    b234:	0000b4e0 	.word	0x0000b4e0
    b238:	0000b4e0 	.word	0x0000b4e0
    b23c:	0000b4e0 	.word	0x0000b4e0
    b240:	0000b4e0 	.word	0x0000b4e0
    b244:	0000b4e0 	.word	0x0000b4e0
    b248:	0000b4e0 	.word	0x0000b4e0
    b24c:	0000b4e0 	.word	0x0000b4e0
    b250:	0000b4e0 	.word	0x0000b4e0
    b254:	0000b4e0 	.word	0x0000b4e0
    b258:	0000b4e0 	.word	0x0000b4e0
    b25c:	0000b478 	.word	0x0000b478
    b260:	0000b480 	.word	0x0000b480
    b264:	0000b4e0 	.word	0x0000b4e0
    b268:	0000b4e0 	.word	0x0000b4e0
    b26c:	0000b4e0 	.word	0x0000b4e0
    b270:	0000b488 	.word	0x0000b488
    b274:	0000b490 	.word	0x0000b490
    b278:	0000b4e0 	.word	0x0000b4e0
    b27c:	0000b498 	.word	0x0000b498
    b280:	0000b4a0 	.word	0x0000b4a0
    b284:	0000b4e0 	.word	0x0000b4e0
    b288:	0000b4a8 	.word	0x0000b4a8
    b28c:	0000b4e0 	.word	0x0000b4e0
    b290:	0000b4e0 	.word	0x0000b4e0
    b294:	0000b4e0 	.word	0x0000b4e0
    b298:	0000b4e0 	.word	0x0000b4e0
    b29c:	0000b4e0 	.word	0x0000b4e0
    b2a0:	0000b4e0 	.word	0x0000b4e0
    b2a4:	0000b4e0 	.word	0x0000b4e0
    b2a8:	0000b4e0 	.word	0x0000b4e0
    b2ac:	0000b4e0 	.word	0x0000b4e0
    b2b0:	0000b4e0 	.word	0x0000b4e0
    b2b4:	0000b4e0 	.word	0x0000b4e0
    b2b8:	0000b4b0 	.word	0x0000b4b0
    b2bc:	0000b4b8 	.word	0x0000b4b8
    b2c0:	0000b4e0 	.word	0x0000b4e0
    b2c4:	0000b4e0 	.word	0x0000b4e0
    b2c8:	0000b4e0 	.word	0x0000b4e0
    b2cc:	0000b4e0 	.word	0x0000b4e0
    b2d0:	0000b4e0 	.word	0x0000b4e0
    b2d4:	0000b4e0 	.word	0x0000b4e0
    b2d8:	0000b4e0 	.word	0x0000b4e0
    b2dc:	0000b4e0 	.word	0x0000b4e0
    b2e0:	0000b4e0 	.word	0x0000b4e0
    b2e4:	0000b4e0 	.word	0x0000b4e0
    b2e8:	0000b4e0 	.word	0x0000b4e0
    b2ec:	0000b4e0 	.word	0x0000b4e0
    b2f0:	0000b4e0 	.word	0x0000b4e0
    b2f4:	0000b4e0 	.word	0x0000b4e0
    b2f8:	0000b4e0 	.word	0x0000b4e0
    b2fc:	0000b4e0 	.word	0x0000b4e0
    b300:	0000b4e0 	.word	0x0000b4e0
    b304:	0000b4e0 	.word	0x0000b4e0
    b308:	0000b4e0 	.word	0x0000b4e0
    b30c:	0000b4e0 	.word	0x0000b4e0
    b310:	0000b4e0 	.word	0x0000b4e0
    b314:	0000b4e0 	.word	0x0000b4e0
    b318:	0000b4e0 	.word	0x0000b4e0
    b31c:	0000b4e0 	.word	0x0000b4e0
    b320:	0000b4e0 	.word	0x0000b4e0
    b324:	0000b4e0 	.word	0x0000b4e0
    b328:	0000b4e0 	.word	0x0000b4e0
    b32c:	0000b4e0 	.word	0x0000b4e0
    b330:	0000b4e0 	.word	0x0000b4e0
    b334:	0000b4e0 	.word	0x0000b4e0
    b338:	0000b4e0 	.word	0x0000b4e0
    b33c:	0000b4e0 	.word	0x0000b4e0
    b340:	0000b4e0 	.word	0x0000b4e0
    b344:	0000b4e0 	.word	0x0000b4e0
    b348:	0000b4e0 	.word	0x0000b4e0
    b34c:	0000b4e0 	.word	0x0000b4e0
    b350:	0000b4e0 	.word	0x0000b4e0
    b354:	0000b4e0 	.word	0x0000b4e0
    b358:	0000b4e0 	.word	0x0000b4e0
    b35c:	0000b4e0 	.word	0x0000b4e0
    b360:	0000b4e0 	.word	0x0000b4e0
    b364:	0000b4e0 	.word	0x0000b4e0
    b368:	0000b4e0 	.word	0x0000b4e0
    b36c:	0000b4e0 	.word	0x0000b4e0
    b370:	0000b4e0 	.word	0x0000b4e0
    b374:	0000b4e0 	.word	0x0000b4e0
    b378:	0000b4e0 	.word	0x0000b4e0
    b37c:	0000b4e0 	.word	0x0000b4e0
    b380:	0000b4e0 	.word	0x0000b4e0
    b384:	0000b4e0 	.word	0x0000b4e0
    b388:	0000b4e0 	.word	0x0000b4e0
    b38c:	0000b4e0 	.word	0x0000b4e0
    b390:	0000b4e0 	.word	0x0000b4e0
    b394:	0000b4c0 	.word	0x0000b4c0
    b398:	0000b4c8 	.word	0x0000b4c8
    b39c:	0000b4e0 	.word	0x0000b4e0
    b3a0:	0000b4e0 	.word	0x0000b4e0
    b3a4:	0000b4e0 	.word	0x0000b4e0
    b3a8:	0000b4e0 	.word	0x0000b4e0
    b3ac:	0000b4e0 	.word	0x0000b4e0
    b3b0:	0000b4e0 	.word	0x0000b4e0
    b3b4:	0000b4e0 	.word	0x0000b4e0
    b3b8:	0000b4e0 	.word	0x0000b4e0
    b3bc:	0000b4e0 	.word	0x0000b4e0
    b3c0:	0000b4e0 	.word	0x0000b4e0
    b3c4:	0000b4e0 	.word	0x0000b4e0
    b3c8:	0000b4d0 	.word	0x0000b4d0
    b3cc:	0000b4d8 	.word	0x0000b4d8
    b3d0:	e59f013c 	ldr	r0, [pc, #316]	; b514 <mbr_part_str+0x544>
    b3d4:	e12fff1e 	bx	lr
    b3d8:	e59f0138 	ldr	r0, [pc, #312]	; b518 <mbr_part_str+0x548>
    b3dc:	e12fff1e 	bx	lr
    b3e0:	e59f0134 	ldr	r0, [pc, #308]	; b51c <mbr_part_str+0x54c>
    b3e4:	e12fff1e 	bx	lr
    b3e8:	e59f0130 	ldr	r0, [pc, #304]	; b520 <mbr_part_str+0x550>
    b3ec:	e12fff1e 	bx	lr
    b3f0:	e59f012c 	ldr	r0, [pc, #300]	; b524 <mbr_part_str+0x554>
    b3f4:	e12fff1e 	bx	lr
    b3f8:	e59f0128 	ldr	r0, [pc, #296]	; b528 <mbr_part_str+0x558>
    b3fc:	e12fff1e 	bx	lr
    b400:	e59f0124 	ldr	r0, [pc, #292]	; b52c <mbr_part_str+0x55c>
    b404:	e12fff1e 	bx	lr
    b408:	e59f0120 	ldr	r0, [pc, #288]	; b530 <mbr_part_str+0x560>
    b40c:	e12fff1e 	bx	lr
    b410:	e59f011c 	ldr	r0, [pc, #284]	; b534 <mbr_part_str+0x564>
    b414:	e12fff1e 	bx	lr
    b418:	e59f0118 	ldr	r0, [pc, #280]	; b538 <mbr_part_str+0x568>
    b41c:	e12fff1e 	bx	lr
    b420:	e59f0114 	ldr	r0, [pc, #276]	; b53c <mbr_part_str+0x56c>
    b424:	e12fff1e 	bx	lr
    b428:	e59f0110 	ldr	r0, [pc, #272]	; b540 <mbr_part_str+0x570>
    b42c:	e12fff1e 	bx	lr
    b430:	e59f010c 	ldr	r0, [pc, #268]	; b544 <mbr_part_str+0x574>
    b434:	e12fff1e 	bx	lr
    b438:	e59f0108 	ldr	r0, [pc, #264]	; b548 <mbr_part_str+0x578>
    b43c:	e12fff1e 	bx	lr
    b440:	e59f0104 	ldr	r0, [pc, #260]	; b54c <mbr_part_str+0x57c>
    b444:	e12fff1e 	bx	lr
    b448:	e59f0100 	ldr	r0, [pc, #256]	; b550 <mbr_part_str+0x580>
    b44c:	e12fff1e 	bx	lr
    b450:	e59f00fc 	ldr	r0, [pc, #252]	; b554 <mbr_part_str+0x584>
    b454:	e12fff1e 	bx	lr
    b458:	e59f00f8 	ldr	r0, [pc, #248]	; b558 <mbr_part_str+0x588>
    b45c:	e12fff1e 	bx	lr
    b460:	e59f00f4 	ldr	r0, [pc, #244]	; b55c <mbr_part_str+0x58c>
    b464:	e12fff1e 	bx	lr
    b468:	e59f00f0 	ldr	r0, [pc, #240]	; b560 <mbr_part_str+0x590>
    b46c:	e12fff1e 	bx	lr
    b470:	e59f00e8 	ldr	r0, [pc, #232]	; b560 <mbr_part_str+0x590>
    b474:	e12fff1e 	bx	lr
    b478:	e59f00d8 	ldr	r0, [pc, #216]	; b558 <mbr_part_str+0x588>
    b47c:	e12fff1e 	bx	lr
    b480:	e59f00d0 	ldr	r0, [pc, #208]	; b558 <mbr_part_str+0x588>
    b484:	e12fff1e 	bx	lr
    b488:	e59f00d4 	ldr	r0, [pc, #212]	; b564 <mbr_part_str+0x594>
    b48c:	e12fff1e 	bx	lr
    b490:	e59f00d0 	ldr	r0, [pc, #208]	; b568 <mbr_part_str+0x598>
    b494:	e12fff1e 	bx	lr
    b498:	e59f00cc 	ldr	r0, [pc, #204]	; b56c <mbr_part_str+0x59c>
    b49c:	e12fff1e 	bx	lr
    b4a0:	e59f00c8 	ldr	r0, [pc, #200]	; b570 <mbr_part_str+0x5a0>
    b4a4:	e12fff1e 	bx	lr
    b4a8:	e59f00c4 	ldr	r0, [pc, #196]	; b574 <mbr_part_str+0x5a4>
    b4ac:	e12fff1e 	bx	lr
    b4b0:	e59f00c0 	ldr	r0, [pc, #192]	; b578 <mbr_part_str+0x5a8>
    b4b4:	e12fff1e 	bx	lr
    b4b8:	e59f00bc 	ldr	r0, [pc, #188]	; b57c <mbr_part_str+0x5ac>
    b4bc:	e12fff1e 	bx	lr
    b4c0:	e59f00b8 	ldr	r0, [pc, #184]	; b580 <mbr_part_str+0x5b0>
    b4c4:	e12fff1e 	bx	lr
    b4c8:	e59f00b4 	ldr	r0, [pc, #180]	; b584 <mbr_part_str+0x5b4>
    b4cc:	e12fff1e 	bx	lr
    b4d0:	e59f00b0 	ldr	r0, [pc, #176]	; b588 <mbr_part_str+0x5b8>
    b4d4:	e12fff1e 	bx	lr
    b4d8:	e59f00ac 	ldr	r0, [pc, #172]	; b58c <mbr_part_str+0x5bc>
    b4dc:	e12fff1e 	bx	lr
    b4e0:	e52de004 	push	{lr}		; (str lr, [sp, #-4]!)
    b4e4:	e24dd00c 	sub	sp, sp, #12, 0
    b4e8:	e58d0000 	str	r0, [sp]
    b4ec:	e3a0304d 	mov	r3, #77, 0	; 0x4d
    b4f0:	e59f2098 	ldr	r2, [pc, #152]	; b590 <mbr_part_str+0x5c0>
    b4f4:	e59f1098 	ldr	r1, [pc, #152]	; b594 <mbr_part_str+0x5c4>
    b4f8:	e59f0098 	ldr	r0, [pc, #152]	; b598 <mbr_part_str+0x5c8>
    b4fc:	eb000fb1 	bl	f3c8 <printk>
    b500:	eb0010e0 	bl	f888 <clean_reboot>
    b504:	e59f0090 	ldr	r0, [pc, #144]	; b59c <mbr_part_str+0x5cc>
    b508:	e12fff1e 	bx	lr
    b50c:	e59f008c 	ldr	r0, [pc, #140]	; b5a0 <mbr_part_str+0x5d0>
    b510:	e12fff1e 	bx	lr
    b514:	00010a04 	.word	0x00010a04
    b518:	00010a1c 	.word	0x00010a1c
    b51c:	00010a38 	.word	0x00010a38
    b520:	00010a54 	.word	0x00010a54
    b524:	00010a5c 	.word	0x00010a5c
    b528:	00010a68 	.word	0x00010a68
    b52c:	00010a74 	.word	0x00010a74
    b530:	00010a90 	.word	0x00010a90
    b534:	00010aac 	.word	0x00010aac
    b538:	00010ac0 	.word	0x00010ac0
    b53c:	00010ae0 	.word	0x00010ae0
    b540:	00010b00 	.word	0x00010b00
    b544:	00010b14 	.word	0x00010b14
    b548:	00010b28 	.word	0x00010b28
    b54c:	00010b48 	.word	0x00010b48
    b550:	00010b68 	.word	0x00010b68
    b554:	00010b84 	.word	0x00010b84
    b558:	00010b8c 	.word	0x00010b8c
    b55c:	00010b98 	.word	0x00010b98
    b560:	00010ba8 	.word	0x00010ba8
    b564:	00010bb8 	.word	0x00010bb8
    b568:	00010bc0 	.word	0x00010bc0
    b56c:	00010bc8 	.word	0x00010bc8
    b570:	00010bd0 	.word	0x00010bd0
    b574:	00010bd8 	.word	0x00010bd8
    b578:	00010be8 	.word	0x00010be8
    b57c:	00010bf0 	.word	0x00010bf0
    b580:	00010bfc 	.word	0x00010bfc
    b584:	00010c0c 	.word	0x00010c0c
    b588:	00010c24 	.word	0x00010c24
    b58c:	000109ec 	.word	0x000109ec
    b590:	00010e18 	.word	0x00010e18
    b594:	000109d0 	.word	0x000109d0
    b598:	00010c40 	.word	0x00010c40
    b59c:	00010c38 	.word	0x00010c38
    b5a0:	000109f8 	.word	0x000109f8

0000b5a4 <mbr_partition_empty>:
    b5a4:	e92d4010 	push	{r4, lr}
    b5a8:	e3a01010 	mov	r1, #16, 0
    b5ac:	eb000f51 	bl	f2f8 <memiszero>
    b5b0:	e8bd8010 	pop	{r4, pc}

0000b5b4 <mbr_partition_empty_raw>:
    b5b4:	e92d4010 	push	{r4, lr}
    b5b8:	e3a01010 	mov	r1, #16, 0
    b5bc:	eb000f4d 	bl	f2f8 <memiszero>
    b5c0:	e8bd8010 	pop	{r4, pc}

0000b5c4 <mbr_check>:
    b5c4:	e92d4030 	push	{r4, r5, lr}
    b5c8:	e24dd01c 	sub	sp, sp, #28, 0
    b5cc:	e2803f7f 	add	r3, r0, #508	; 0x1fc
    b5d0:	e1d320b2 	ldrh	r2, [r3, #2]
    b5d4:	e59f3144 	ldr	r3, [pc, #324]	; b720 <mbr_check+0x15c>
    b5d8:	e1520003 	cmp	r2, r3
    b5dc:	1a00001f 	bne	b660 <mbr_check+0x9c>
    b5e0:	e1a04000 	mov	r4, r0
    b5e4:	e2805f6f 	add	r5, r0, #444	; 0x1bc
    b5e8:	e2855002 	add	r5, r5, #2, 0
    b5ec:	e3a02010 	mov	r2, #16, 0
    b5f0:	e1a01005 	mov	r1, r5
    b5f4:	e28d0008 	add	r0, sp, #8, 0
    b5f8:	eb000f13 	bl	f24c <memcpy>
    b5fc:	e5dd300c 	ldrb	r3, [sp, #12]
    b600:	e243300b 	sub	r3, r3, #11, 0
    b604:	e3530001 	cmp	r3, #1, 0
    b608:	8a00001c 	bhi	b680 <mbr_check+0xbc>
    b60c:	e1a00005 	mov	r0, r5
    b610:	ebffffe7 	bl	b5b4 <mbr_partition_empty_raw>
    b614:	e3500000 	cmp	r0, #0, 0
    b618:	1a000020 	bne	b6a0 <mbr_check+0xdc>
    b61c:	e2840f73 	add	r0, r4, #460	; 0x1cc
    b620:	e2800002 	add	r0, r0, #2, 0
    b624:	ebffffe2 	bl	b5b4 <mbr_partition_empty_raw>
    b628:	e3500000 	cmp	r0, #0, 0
    b62c:	0a000023 	beq	b6c0 <mbr_check+0xfc>
    b630:	e2840f77 	add	r0, r4, #476	; 0x1dc
    b634:	e2800002 	add	r0, r0, #2, 0
    b638:	ebffffdd 	bl	b5b4 <mbr_partition_empty_raw>
    b63c:	e3500000 	cmp	r0, #0, 0
    b640:	0a000026 	beq	b6e0 <mbr_check+0x11c>
    b644:	e2840f7b 	add	r0, r4, #492	; 0x1ec
    b648:	e2800002 	add	r0, r0, #2, 0
    b64c:	ebffffd8 	bl	b5b4 <mbr_partition_empty_raw>
    b650:	e3500000 	cmp	r0, #0, 0
    b654:	0a000029 	beq	b700 <mbr_check+0x13c>
    b658:	e28dd01c 	add	sp, sp, #28, 0
    b65c:	e8bd8030 	pop	{r4, r5, pc}
    b660:	e59f30bc 	ldr	r3, [pc, #188]	; b724 <mbr_check+0x160>
    b664:	e58d3000 	str	r3, [sp]
    b668:	e3a03009 	mov	r3, #9, 0
    b66c:	e59f20b4 	ldr	r2, [pc, #180]	; b728 <mbr_check+0x164>
    b670:	e59f10b4 	ldr	r1, [pc, #180]	; b72c <mbr_check+0x168>
    b674:	e59f00b4 	ldr	r0, [pc, #180]	; b730 <mbr_check+0x16c>
    b678:	eb000f52 	bl	f3c8 <printk>
    b67c:	eb001081 	bl	f888 <clean_reboot>
    b680:	e59f30ac 	ldr	r3, [pc, #172]	; b734 <mbr_check+0x170>
    b684:	e58d3000 	str	r3, [sp]
    b688:	e3a0300f 	mov	r3, #15, 0
    b68c:	e59f2094 	ldr	r2, [pc, #148]	; b728 <mbr_check+0x164>
    b690:	e59f1094 	ldr	r1, [pc, #148]	; b72c <mbr_check+0x168>
    b694:	e59f0094 	ldr	r0, [pc, #148]	; b730 <mbr_check+0x16c>
    b698:	eb000f4a 	bl	f3c8 <printk>
    b69c:	eb001079 	bl	f888 <clean_reboot>
    b6a0:	e59f3090 	ldr	r3, [pc, #144]	; b738 <mbr_check+0x174>
    b6a4:	e58d3000 	str	r3, [sp]
    b6a8:	e3a03015 	mov	r3, #21, 0
    b6ac:	e59f2074 	ldr	r2, [pc, #116]	; b728 <mbr_check+0x164>
    b6b0:	e59f1074 	ldr	r1, [pc, #116]	; b72c <mbr_check+0x168>
    b6b4:	e59f0074 	ldr	r0, [pc, #116]	; b730 <mbr_check+0x16c>
    b6b8:	eb000f42 	bl	f3c8 <printk>
    b6bc:	eb001071 	bl	f888 <clean_reboot>
    b6c0:	e59f3074 	ldr	r3, [pc, #116]	; b73c <mbr_check+0x178>
    b6c4:	e58d3000 	str	r3, [sp]
    b6c8:	e3a03016 	mov	r3, #22, 0
    b6cc:	e59f2054 	ldr	r2, [pc, #84]	; b728 <mbr_check+0x164>
    b6d0:	e59f1054 	ldr	r1, [pc, #84]	; b72c <mbr_check+0x168>
    b6d4:	e59f0054 	ldr	r0, [pc, #84]	; b730 <mbr_check+0x16c>
    b6d8:	eb000f3a 	bl	f3c8 <printk>
    b6dc:	eb001069 	bl	f888 <clean_reboot>
    b6e0:	e59f3058 	ldr	r3, [pc, #88]	; b740 <mbr_check+0x17c>
    b6e4:	e58d3000 	str	r3, [sp]
    b6e8:	e3a03017 	mov	r3, #23, 0
    b6ec:	e59f2034 	ldr	r2, [pc, #52]	; b728 <mbr_check+0x164>
    b6f0:	e59f1034 	ldr	r1, [pc, #52]	; b72c <mbr_check+0x168>
    b6f4:	e59f0034 	ldr	r0, [pc, #52]	; b730 <mbr_check+0x16c>
    b6f8:	eb000f32 	bl	f3c8 <printk>
    b6fc:	eb001061 	bl	f888 <clean_reboot>
    b700:	e59f303c 	ldr	r3, [pc, #60]	; b744 <mbr_check+0x180>
    b704:	e58d3000 	str	r3, [sp]
    b708:	e3a03018 	mov	r3, #24, 0
    b70c:	e59f2014 	ldr	r2, [pc, #20]	; b728 <mbr_check+0x164>
    b710:	e59f1014 	ldr	r1, [pc, #20]	; b72c <mbr_check+0x168>
    b714:	e59f0014 	ldr	r0, [pc, #20]	; b730 <mbr_check+0x16c>
    b718:	eb000f2a 	bl	f3c8 <printk>
    b71c:	eb001059 	bl	f888 <clean_reboot>
    b720:	0000aa55 	.word	0x0000aa55
    b724:	00010c64 	.word	0x00010c64
    b728:	00010e28 	.word	0x00010e28
    b72c:	000109d0 	.word	0x000109d0
    b730:	0000ff5c 	.word	0x0000ff5c
    b734:	00010c7c 	.word	0x00010c7c
    b738:	00010c9c 	.word	0x00010c9c
    b73c:	00010cc8 	.word	0x00010cc8
    b740:	00010cf0 	.word	0x00010cf0
    b744:	00010d18 	.word	0x00010d18

0000b748 <mbr_partition_print>:
    b748:	e92d4030 	push	{r4, r5, lr}
    b74c:	e24dd00c 	sub	sp, sp, #12, 0
    b750:	e1a04001 	mov	r4, r1
    b754:	e1a01000 	mov	r1, r0
    b758:	e59f00fc 	ldr	r0, [pc, #252]	; b85c <mbr_partition_print+0x114>
    b75c:	eb000f19 	bl	f3c8 <printk>
    b760:	e5d43000 	ldrb	r3, [r4]
    b764:	e3530000 	cmp	r3, #0, 0
    b768:	0a000031 	beq	b834 <mbr_partition_print+0xec>
    b76c:	e59f10ec 	ldr	r1, [pc, #236]	; b860 <mbr_partition_print+0x118>
    b770:	e59f00ec 	ldr	r0, [pc, #236]	; b864 <mbr_partition_print+0x11c>
    b774:	eb000f13 	bl	f3c8 <printk>
    b778:	e5d43001 	ldrb	r3, [r4, #1]
    b77c:	e5d41002 	ldrb	r1, [r4, #2]
    b780:	e1833401 	orr	r3, r3, r1, lsl #8
    b784:	e5d41003 	ldrb	r1, [r4, #3]
    b788:	e1831801 	orr	r1, r3, r1, lsl #16
    b78c:	e59f00d4 	ldr	r0, [pc, #212]	; b868 <mbr_partition_print+0x120>
    b790:	eb000f0c 	bl	f3c8 <printk>
    b794:	e5d45004 	ldrb	r5, [r4, #4]
    b798:	e1a00005 	mov	r0, r5
    b79c:	ebfffe0b 	bl	afd0 <mbr_part_str>
    b7a0:	e1a02000 	mov	r2, r0
    b7a4:	e1a01005 	mov	r1, r5
    b7a8:	e59f00bc 	ldr	r0, [pc, #188]	; b86c <mbr_partition_print+0x124>
    b7ac:	eb000f05 	bl	f3c8 <printk>
    b7b0:	e5d43005 	ldrb	r3, [r4, #5]
    b7b4:	e5d41006 	ldrb	r1, [r4, #6]
    b7b8:	e1833401 	orr	r3, r3, r1, lsl #8
    b7bc:	e5d41007 	ldrb	r1, [r4, #7]
    b7c0:	e1831801 	orr	r1, r3, r1, lsl #16
    b7c4:	e59f00a4 	ldr	r0, [pc, #164]	; b870 <mbr_partition_print+0x128>
    b7c8:	eb000efe 	bl	f3c8 <printk>
    b7cc:	e5d43008 	ldrb	r3, [r4, #8]
    b7d0:	e5d41009 	ldrb	r1, [r4, #9]
    b7d4:	e1833401 	orr	r3, r3, r1, lsl #8
    b7d8:	e5d4100a 	ldrb	r1, [r4, #10]
    b7dc:	e1833801 	orr	r3, r3, r1, lsl #16
    b7e0:	e5d4100b 	ldrb	r1, [r4, #11]
    b7e4:	e1831c01 	orr	r1, r3, r1, lsl #24
    b7e8:	e59f0084 	ldr	r0, [pc, #132]	; b874 <mbr_partition_print+0x12c>
    b7ec:	eb000ef5 	bl	f3c8 <printk>
    b7f0:	e5d4100c 	ldrb	r1, [r4, #12]
    b7f4:	e5d4300d 	ldrb	r3, [r4, #13]
    b7f8:	e1811403 	orr	r1, r1, r3, lsl #8
    b7fc:	e5d4300e 	ldrb	r3, [r4, #14]
    b800:	e1811803 	orr	r1, r1, r3, lsl #16
    b804:	e5d4300f 	ldrb	r3, [r4, #15]
    b808:	e1811c03 	orr	r1, r1, r3, lsl #24
    b80c:	e1a02aa1 	lsr	r2, r1, #21
    b810:	e59f0060 	ldr	r0, [pc, #96]	; b878 <mbr_partition_print+0x130>
    b814:	eb000eeb 	bl	f3c8 <printk>
    b818:	e5d43004 	ldrb	r3, [r4, #4]
    b81c:	e243300b 	sub	r3, r3, #11, 0
    b820:	e6ef3073 	uxtb	r3, r3
    b824:	e3530001 	cmp	r3, #1, 0
    b828:	8a000003 	bhi	b83c <mbr_partition_print+0xf4>
    b82c:	e28dd00c 	add	sp, sp, #12, 0
    b830:	e8bd8030 	pop	{r4, r5, pc}
    b834:	e59f1040 	ldr	r1, [pc, #64]	; b87c <mbr_partition_print+0x134>
    b838:	eaffffcc 	b	b770 <mbr_partition_print+0x28>
    b83c:	e59f303c 	ldr	r3, [pc, #60]	; b880 <mbr_partition_print+0x138>
    b840:	e58d3000 	str	r3, [sp]
    b844:	e3a03061 	mov	r3, #97, 0	; 0x61
    b848:	e59f2034 	ldr	r2, [pc, #52]	; b884 <mbr_partition_print+0x13c>
    b84c:	e59f1034 	ldr	r1, [pc, #52]	; b888 <mbr_partition_print+0x140>
    b850:	e59f0034 	ldr	r0, [pc, #52]	; b88c <mbr_partition_print+0x144>
    b854:	eb000edb 	bl	f3c8 <printk>
    b858:	eb00100a 	bl	f888 <clean_reboot>
    b85c:	00010d50 	.word	0x00010d50
    b860:	00010d48 	.word	0x00010d48
    b864:	00010d58 	.word	0x00010d58
    b868:	00010d6c 	.word	0x00010d6c
    b86c:	00010d80 	.word	0x00010d80
    b870:	00010d98 	.word	0x00010d98
    b874:	00010dac 	.word	0x00010dac
    b878:	00010dc0 	.word	0x00010dc0
    b87c:	00010d40 	.word	0x00010d40
    b880:	00010dd8 	.word	0x00010dd8
    b884:	00010e34 	.word	0x00010e34
    b888:	000109d0 	.word	0x000109d0
    b88c:	0000ff5c 	.word	0x0000ff5c

0000b890 <to_8dot3>:
    b890:	e92d4010 	push	{r4, lr}
    b894:	e1a04000 	mov	r4, r0
    b898:	e3a02008 	mov	r2, #8, 0
    b89c:	e1a01000 	mov	r1, r0
    b8a0:	e59f0070 	ldr	r0, [pc, #112]	; b918 <to_8dot3+0x88>
    b8a4:	eb000e68 	bl	f24c <memcpy>
    b8a8:	e3a03007 	mov	r3, #7, 0
    b8ac:	ea000000 	b	b8b4 <to_8dot3+0x24>
    b8b0:	e2433001 	sub	r3, r3, #1, 0
    b8b4:	e3530000 	cmp	r3, #0, 0
    b8b8:	ba000004 	blt	b8d0 <to_8dot3+0x40>
    b8bc:	e59f2054 	ldr	r2, [pc, #84]	; b918 <to_8dot3+0x88>
    b8c0:	e7d22003 	ldrb	r2, [r2, r3]
    b8c4:	e3520020 	cmp	r2, #32, 0
    b8c8:	0afffff8 	beq	b8b0 <to_8dot3+0x20>
    b8cc:	e2833001 	add	r3, r3, #1, 0
    b8d0:	e2832001 	add	r2, r3, #1, 0
    b8d4:	e59f103c 	ldr	r1, [pc, #60]	; b918 <to_8dot3+0x88>
    b8d8:	e3a0002e 	mov	r0, #46, 0	; 0x2e
    b8dc:	e7c10003 	strb	r0, [r1, r3]
    b8e0:	e3a03000 	mov	r3, #0, 0
    b8e4:	e3530002 	cmp	r3, #2, 0
    b8e8:	ca000006 	bgt	b908 <to_8dot3+0x78>
    b8ec:	e0841003 	add	r1, r4, r3
    b8f0:	e5d10008 	ldrb	r0, [r1, #8]
    b8f4:	e59f101c 	ldr	r1, [pc, #28]	; b918 <to_8dot3+0x88>
    b8f8:	e7c10002 	strb	r0, [r1, r2]
    b8fc:	e2833001 	add	r3, r3, #1, 0
    b900:	e2822001 	add	r2, r2, #1, 0
    b904:	eafffff6 	b	b8e4 <to_8dot3+0x54>
    b908:	e59f0008 	ldr	r0, [pc, #8]	; b918 <to_8dot3+0x88>
    b90c:	e3a03000 	mov	r3, #0, 0
    b910:	e7c03002 	strb	r3, [r0, r2]
    b914:	e8bd8010 	pop	{r4, pc}
    b918:	00013228 	.word	0x00013228

0000b91c <add_nul>:
    b91c:	e92d4070 	push	{r4, r5, r6, lr}
    b920:	e1a01000 	mov	r1, r0
    b924:	e59f501c 	ldr	r5, [pc, #28]	; b948 <add_nul+0x2c>
    b928:	e2854010 	add	r4, r5, #16, 0
    b92c:	e3a0200b 	mov	r2, #11, 0
    b930:	e1a00004 	mov	r0, r4
    b934:	eb000e44 	bl	f24c <memcpy>
    b938:	e3a03000 	mov	r3, #0, 0
    b93c:	e5c5301b 	strb	r3, [r5, #27]
    b940:	e1a00004 	mov	r0, r4
    b944:	e8bd8070 	pop	{r4, r5, r6, pc}
    b948:	00013228 	.word	0x00013228

0000b94c <fat32_volume_id_check>:
    b94c:	e52de004 	push	{lr}		; (str lr, [sp, #-4]!)
    b950:	e24dd00c 	sub	sp, sp, #12, 0
    b954:	e5d0300b 	ldrb	r3, [r0, #11]
    b958:	e5d0200c 	ldrb	r2, [r0, #12]
    b95c:	e1833402 	orr	r3, r3, r2, lsl #8
    b960:	e3530c02 	cmp	r3, #512	; 0x200
    b964:	1a000035 	bne	ba40 <fat32_volume_id_check+0xf4>
    b968:	e5d02010 	ldrb	r2, [r0, #16]
    b96c:	e3520002 	cmp	r2, #2, 0
    b970:	1a00003a 	bne	ba60 <fat32_volume_id_check+0x114>
    b974:	e5d021fe 	ldrb	r2, [r0, #510]	; 0x1fe
    b978:	e5d011ff 	ldrb	r1, [r0, #511]	; 0x1ff
    b97c:	e1822401 	orr	r2, r2, r1, lsl #8
    b980:	e59f1238 	ldr	r1, [pc, #568]	; bbc0 <fat32_volume_id_check+0x274>
    b984:	e1520001 	cmp	r2, r1
    b988:	1a00003c 	bne	ba80 <fat32_volume_id_check+0x134>
    b98c:	e5d0200d 	ldrb	r2, [r0, #13]
    b990:	e2621000 	rsb	r1, r2, #0, 0
    b994:	e1d22001 	bics	r2, r2, r1
    b998:	1a000040 	bne	baa0 <fat32_volume_id_check+0x154>
    b99c:	e3530b01 	cmp	r3, #1024	; 0x400
    b9a0:	13530c02 	cmpne	r3, #512	; 0x200
    b9a4:	0a000002 	beq	b9b4 <fat32_volume_id_check+0x68>
    b9a8:	e3530a01 	cmp	r3, #4096	; 0x1000
    b9ac:	13530b02 	cmpne	r3, #2048	; 0x800
    b9b0:	1a000042 	bne	bac0 <fat32_volume_id_check+0x174>
    b9b4:	e5d03011 	ldrb	r3, [r0, #17]
    b9b8:	e5d02012 	ldrb	r2, [r0, #18]
    b9bc:	e1933402 	orrs	r3, r3, r2, lsl #8
    b9c0:	1a000046 	bne	bae0 <fat32_volume_id_check+0x194>
    b9c4:	e5d03013 	ldrb	r3, [r0, #19]
    b9c8:	e5d02014 	ldrb	r2, [r0, #20]
    b9cc:	e1933402 	orrs	r3, r3, r2, lsl #8
    b9d0:	1a00004a 	bne	bb00 <fat32_volume_id_check+0x1b4>
    b9d4:	e5d03016 	ldrb	r3, [r0, #22]
    b9d8:	e5d02017 	ldrb	r2, [r0, #23]
    b9dc:	e1933402 	orrs	r3, r3, r2, lsl #8
    b9e0:	1a00004e 	bne	bb20 <fat32_volume_id_check+0x1d4>
    b9e4:	e5d03020 	ldrb	r3, [r0, #32]
    b9e8:	e5d02021 	ldrb	r2, [r0, #33]	; 0x21
    b9ec:	e1833402 	orr	r3, r3, r2, lsl #8
    b9f0:	e5d02022 	ldrb	r2, [r0, #34]	; 0x22
    b9f4:	e1833802 	orr	r3, r3, r2, lsl #16
    b9f8:	e5d02023 	ldrb	r2, [r0, #35]	; 0x23
    b9fc:	e1933c02 	orrs	r3, r3, r2, lsl #24
    ba00:	0a00004e 	beq	bb40 <fat32_volume_id_check+0x1f4>
    ba04:	e5d03030 	ldrb	r3, [r0, #48]	; 0x30
    ba08:	e5d02031 	ldrb	r2, [r0, #49]	; 0x31
    ba0c:	e1833402 	orr	r3, r3, r2, lsl #8
    ba10:	e3530001 	cmp	r3, #1, 0
    ba14:	1a000051 	bne	bb60 <fat32_volume_id_check+0x214>
    ba18:	e5d03032 	ldrb	r3, [r0, #50]	; 0x32
    ba1c:	e5d02033 	ldrb	r2, [r0, #51]	; 0x33
    ba20:	e1833402 	orr	r3, r3, r2, lsl #8
    ba24:	e3530006 	cmp	r3, #6, 0
    ba28:	1a000054 	bne	bb80 <fat32_volume_id_check+0x234>
    ba2c:	e5d03042 	ldrb	r3, [r0, #66]	; 0x42
    ba30:	e3530029 	cmp	r3, #41, 0	; 0x29
    ba34:	1a000059 	bne	bba0 <fat32_volume_id_check+0x254>
    ba38:	e28dd00c 	add	sp, sp, #12, 0
    ba3c:	e49df004 	pop	{pc}		; (ldr pc, [sp], #4)
    ba40:	e59f317c 	ldr	r3, [pc, #380]	; bbc4 <fat32_volume_id_check+0x278>
    ba44:	e58d3000 	str	r3, [sp]
    ba48:	e3a0300f 	mov	r3, #15, 0
    ba4c:	e59f2174 	ldr	r2, [pc, #372]	; bbc8 <fat32_volume_id_check+0x27c>
    ba50:	e59f1174 	ldr	r1, [pc, #372]	; bbcc <fat32_volume_id_check+0x280>
    ba54:	e59f0174 	ldr	r0, [pc, #372]	; bbd0 <fat32_volume_id_check+0x284>
    ba58:	eb000e5a 	bl	f3c8 <printk>
    ba5c:	eb000f89 	bl	f888 <clean_reboot>
    ba60:	e59f316c 	ldr	r3, [pc, #364]	; bbd4 <fat32_volume_id_check+0x288>
    ba64:	e58d3000 	str	r3, [sp]
    ba68:	e3a03010 	mov	r3, #16, 0
    ba6c:	e59f2154 	ldr	r2, [pc, #340]	; bbc8 <fat32_volume_id_check+0x27c>
    ba70:	e59f1154 	ldr	r1, [pc, #340]	; bbcc <fat32_volume_id_check+0x280>
    ba74:	e59f0154 	ldr	r0, [pc, #340]	; bbd0 <fat32_volume_id_check+0x284>
    ba78:	eb000e52 	bl	f3c8 <printk>
    ba7c:	eb000f81 	bl	f888 <clean_reboot>
    ba80:	e59f3150 	ldr	r3, [pc, #336]	; bbd8 <fat32_volume_id_check+0x28c>
    ba84:	e58d3000 	str	r3, [sp]
    ba88:	e3a03011 	mov	r3, #17, 0
    ba8c:	e59f2134 	ldr	r2, [pc, #308]	; bbc8 <fat32_volume_id_check+0x27c>
    ba90:	e59f1134 	ldr	r1, [pc, #308]	; bbcc <fat32_volume_id_check+0x280>
    ba94:	e59f0134 	ldr	r0, [pc, #308]	; bbd0 <fat32_volume_id_check+0x284>
    ba98:	eb000e4a 	bl	f3c8 <printk>
    ba9c:	eb000f79 	bl	f888 <clean_reboot>
    baa0:	e59f3134 	ldr	r3, [pc, #308]	; bbdc <fat32_volume_id_check+0x290>
    baa4:	e58d3000 	str	r3, [sp]
    baa8:	e3a03013 	mov	r3, #19, 0
    baac:	e59f2114 	ldr	r2, [pc, #276]	; bbc8 <fat32_volume_id_check+0x27c>
    bab0:	e59f1114 	ldr	r1, [pc, #276]	; bbcc <fat32_volume_id_check+0x280>
    bab4:	e59f0114 	ldr	r0, [pc, #276]	; bbd0 <fat32_volume_id_check+0x284>
    bab8:	eb000e42 	bl	f3c8 <printk>
    babc:	eb000f71 	bl	f888 <clean_reboot>
    bac0:	e59f3118 	ldr	r3, [pc, #280]	; bbe0 <fat32_volume_id_check+0x294>
    bac4:	e58d3000 	str	r3, [sp]
    bac8:	e3a03015 	mov	r3, #21, 0
    bacc:	e59f20f4 	ldr	r2, [pc, #244]	; bbc8 <fat32_volume_id_check+0x27c>
    bad0:	e59f10f4 	ldr	r1, [pc, #244]	; bbcc <fat32_volume_id_check+0x280>
    bad4:	e59f00f4 	ldr	r0, [pc, #244]	; bbd0 <fat32_volume_id_check+0x284>
    bad8:	eb000e3a 	bl	f3c8 <printk>
    badc:	eb000f69 	bl	f888 <clean_reboot>
    bae0:	e59f30fc 	ldr	r3, [pc, #252]	; bbe4 <fat32_volume_id_check+0x298>
    bae4:	e58d3000 	str	r3, [sp]
    bae8:	e3a03016 	mov	r3, #22, 0
    baec:	e59f20d4 	ldr	r2, [pc, #212]	; bbc8 <fat32_volume_id_check+0x27c>
    baf0:	e59f10d4 	ldr	r1, [pc, #212]	; bbcc <fat32_volume_id_check+0x280>
    baf4:	e59f00d4 	ldr	r0, [pc, #212]	; bbd0 <fat32_volume_id_check+0x284>
    baf8:	eb000e32 	bl	f3c8 <printk>
    bafc:	eb000f61 	bl	f888 <clean_reboot>
    bb00:	e59f30e0 	ldr	r3, [pc, #224]	; bbe8 <fat32_volume_id_check+0x29c>
    bb04:	e58d3000 	str	r3, [sp]
    bb08:	e3a03018 	mov	r3, #24, 0
    bb0c:	e59f20b4 	ldr	r2, [pc, #180]	; bbc8 <fat32_volume_id_check+0x27c>
    bb10:	e59f10b4 	ldr	r1, [pc, #180]	; bbcc <fat32_volume_id_check+0x280>
    bb14:	e59f00b4 	ldr	r0, [pc, #180]	; bbd0 <fat32_volume_id_check+0x284>
    bb18:	eb000e2a 	bl	f3c8 <printk>
    bb1c:	eb000f59 	bl	f888 <clean_reboot>
    bb20:	e59f30c4 	ldr	r3, [pc, #196]	; bbec <fat32_volume_id_check+0x2a0>
    bb24:	e58d3000 	str	r3, [sp]
    bb28:	e3a0301b 	mov	r3, #27, 0
    bb2c:	e59f2094 	ldr	r2, [pc, #148]	; bbc8 <fat32_volume_id_check+0x27c>
    bb30:	e59f1094 	ldr	r1, [pc, #148]	; bbcc <fat32_volume_id_check+0x280>
    bb34:	e59f0094 	ldr	r0, [pc, #148]	; bbd0 <fat32_volume_id_check+0x284>
    bb38:	eb000e22 	bl	f3c8 <printk>
    bb3c:	eb000f51 	bl	f888 <clean_reboot>
    bb40:	e59f30a8 	ldr	r3, [pc, #168]	; bbf0 <fat32_volume_id_check+0x2a4>
    bb44:	e58d3000 	str	r3, [sp]
    bb48:	e3a0301c 	mov	r3, #28, 0
    bb4c:	e59f2074 	ldr	r2, [pc, #116]	; bbc8 <fat32_volume_id_check+0x27c>
    bb50:	e59f1074 	ldr	r1, [pc, #116]	; bbcc <fat32_volume_id_check+0x280>
    bb54:	e59f0074 	ldr	r0, [pc, #116]	; bbd0 <fat32_volume_id_check+0x284>
    bb58:	eb000e1a 	bl	f3c8 <printk>
    bb5c:	eb000f49 	bl	f888 <clean_reboot>
    bb60:	e59f308c 	ldr	r3, [pc, #140]	; bbf4 <fat32_volume_id_check+0x2a8>
    bb64:	e58d3000 	str	r3, [sp]
    bb68:	e3a0301f 	mov	r3, #31, 0
    bb6c:	e59f2054 	ldr	r2, [pc, #84]	; bbc8 <fat32_volume_id_check+0x27c>
    bb70:	e59f1054 	ldr	r1, [pc, #84]	; bbcc <fat32_volume_id_check+0x280>
    bb74:	e59f0054 	ldr	r0, [pc, #84]	; bbd0 <fat32_volume_id_check+0x284>
    bb78:	eb000e12 	bl	f3c8 <printk>
    bb7c:	eb000f41 	bl	f888 <clean_reboot>
    bb80:	e59f3070 	ldr	r3, [pc, #112]	; bbf8 <fat32_volume_id_check+0x2ac>
    bb84:	e58d3000 	str	r3, [sp]
    bb88:	e3a03020 	mov	r3, #32, 0
    bb8c:	e59f2034 	ldr	r2, [pc, #52]	; bbc8 <fat32_volume_id_check+0x27c>
    bb90:	e59f1034 	ldr	r1, [pc, #52]	; bbcc <fat32_volume_id_check+0x280>
    bb94:	e59f0034 	ldr	r0, [pc, #52]	; bbd0 <fat32_volume_id_check+0x284>
    bb98:	eb000e0a 	bl	f3c8 <printk>
    bb9c:	eb000f39 	bl	f888 <clean_reboot>
    bba0:	e59f3054 	ldr	r3, [pc, #84]	; bbfc <fat32_volume_id_check+0x2b0>
    bba4:	e58d3000 	str	r3, [sp]
    bba8:	e3a03021 	mov	r3, #33, 0	; 0x21
    bbac:	e59f2014 	ldr	r2, [pc, #20]	; bbc8 <fat32_volume_id_check+0x27c>
    bbb0:	e59f1014 	ldr	r1, [pc, #20]	; bbcc <fat32_volume_id_check+0x280>
    bbb4:	e59f0014 	ldr	r0, [pc, #20]	; bbd0 <fat32_volume_id_check+0x284>
    bbb8:	eb000e02 	bl	f3c8 <printk>
    bbbc:	eb000f31 	bl	f888 <clean_reboot>
    bbc0:	0000aa55 	.word	0x0000aa55
    bbc4:	00010e58 	.word	0x00010e58
    bbc8:	000115bc 	.word	0x000115bc
    bbcc:	00010e48 	.word	0x00010e48
    bbd0:	0000ff5c 	.word	0x0000ff5c
    bbd4:	00010e70 	.word	0x00010e70
    bbd8:	00010e80 	.word	0x00010e80
    bbdc:	00010e94 	.word	0x00010e94
    bbe0:	00010eb0 	.word	0x00010eb0
    bbe4:	00010ee0 	.word	0x00010ee0
    bbe8:	00010ef0 	.word	0x00010ef0
    bbec:	00010f00 	.word	0x00010f00
    bbf0:	00010f10 	.word	0x00010f10
    bbf4:	00010f24 	.word	0x00010f24
    bbf8:	00010f3c 	.word	0x00010f3c
    bbfc:	00010f54 	.word	0x00010f54

0000bc00 <fat32_volume_id_print>:
    bc00:	e92d4030 	push	{r4, r5, lr}
    bc04:	e24dd02c 	sub	sp, sp, #44, 0	; 0x2c
    bc08:	e1a04001 	mov	r4, r1
    bc0c:	e1a01000 	mov	r1, r0
    bc10:	e59f0240 	ldr	r0, [pc, #576]	; be58 <fat32_volume_id_print+0x258>
    bc14:	eb000deb 	bl	f3c8 <printk>
    bc18:	e3a02008 	mov	r2, #8, 0
    bc1c:	e2841003 	add	r1, r4, #3, 0
    bc20:	e28d001c 	add	r0, sp, #28, 0
    bc24:	eb000d88 	bl	f24c <memcpy>
    bc28:	e3a05000 	mov	r5, #0, 0
    bc2c:	e5cd5024 	strb	r5, [sp, #36]	; 0x24
    bc30:	e3a0200b 	mov	r2, #11, 0
    bc34:	e2841047 	add	r1, r4, #71, 0	; 0x47
    bc38:	e28d0010 	add	r0, sp, #16, 0
    bc3c:	eb000d82 	bl	f24c <memcpy>
    bc40:	e5cd5027 	strb	r5, [sp, #39]	; 0x27
    bc44:	e3a02008 	mov	r2, #8, 0
    bc48:	e2841052 	add	r1, r4, #82, 0	; 0x52
    bc4c:	e28d0004 	add	r0, sp, #4, 0
    bc50:	eb000d7d 	bl	f24c <memcpy>
    bc54:	e5cd500c 	strb	r5, [sp, #12]
    bc58:	e28d101c 	add	r1, sp, #28, 0
    bc5c:	e59f01f8 	ldr	r0, [pc, #504]	; be5c <fat32_volume_id_print+0x25c>
    bc60:	eb000dd8 	bl	f3c8 <printk>
    bc64:	e5d4300b 	ldrb	r3, [r4, #11]
    bc68:	e5d4100c 	ldrb	r1, [r4, #12]
    bc6c:	e1831401 	orr	r1, r3, r1, lsl #8
    bc70:	e59f01e8 	ldr	r0, [pc, #488]	; be60 <fat32_volume_id_print+0x260>
    bc74:	eb000dd3 	bl	f3c8 <printk>
    bc78:	e5d4100d 	ldrb	r1, [r4, #13]
    bc7c:	e59f01e0 	ldr	r0, [pc, #480]	; be64 <fat32_volume_id_print+0x264>
    bc80:	eb000dd0 	bl	f3c8 <printk>
    bc84:	e5d4300e 	ldrb	r3, [r4, #14]
    bc88:	e5d4100f 	ldrb	r1, [r4, #15]
    bc8c:	e1831401 	orr	r1, r3, r1, lsl #8
    bc90:	e59f01d0 	ldr	r0, [pc, #464]	; be68 <fat32_volume_id_print+0x268>
    bc94:	eb000dcb 	bl	f3c8 <printk>
    bc98:	e5d41010 	ldrb	r1, [r4, #16]
    bc9c:	e59f01c8 	ldr	r0, [pc, #456]	; be6c <fat32_volume_id_print+0x26c>
    bca0:	eb000dc8 	bl	f3c8 <printk>
    bca4:	e5d43011 	ldrb	r3, [r4, #17]
    bca8:	e5d41012 	ldrb	r1, [r4, #18]
    bcac:	e1831401 	orr	r1, r3, r1, lsl #8
    bcb0:	e59f01b8 	ldr	r0, [pc, #440]	; be70 <fat32_volume_id_print+0x270>
    bcb4:	eb000dc3 	bl	f3c8 <printk>
    bcb8:	e5d43013 	ldrb	r3, [r4, #19]
    bcbc:	e5d41014 	ldrb	r1, [r4, #20]
    bcc0:	e1831401 	orr	r1, r3, r1, lsl #8
    bcc4:	e59f01a8 	ldr	r0, [pc, #424]	; be74 <fat32_volume_id_print+0x274>
    bcc8:	eb000dbe 	bl	f3c8 <printk>
    bccc:	e5d41015 	ldrb	r1, [r4, #21]
    bcd0:	e59f01a0 	ldr	r0, [pc, #416]	; be78 <fat32_volume_id_print+0x278>
    bcd4:	eb000dbb 	bl	f3c8 <printk>
    bcd8:	e5d43018 	ldrb	r3, [r4, #24]
    bcdc:	e5d41019 	ldrb	r1, [r4, #25]
    bce0:	e1831401 	orr	r1, r3, r1, lsl #8
    bce4:	e59f0190 	ldr	r0, [pc, #400]	; be7c <fat32_volume_id_print+0x27c>
    bce8:	eb000db6 	bl	f3c8 <printk>
    bcec:	e5d4301a 	ldrb	r3, [r4, #26]
    bcf0:	e5d4101b 	ldrb	r1, [r4, #27]
    bcf4:	e1831401 	orr	r1, r3, r1, lsl #8
    bcf8:	e59f0180 	ldr	r0, [pc, #384]	; be80 <fat32_volume_id_print+0x280>
    bcfc:	eb000db1 	bl	f3c8 <printk>
    bd00:	e5d4301c 	ldrb	r3, [r4, #28]
    bd04:	e5d4101d 	ldrb	r1, [r4, #29]
    bd08:	e1833401 	orr	r3, r3, r1, lsl #8
    bd0c:	e5d4101e 	ldrb	r1, [r4, #30]
    bd10:	e1833801 	orr	r3, r3, r1, lsl #16
    bd14:	e5d4101f 	ldrb	r1, [r4, #31]
    bd18:	e1831c01 	orr	r1, r3, r1, lsl #24
    bd1c:	e59f0160 	ldr	r0, [pc, #352]	; be84 <fat32_volume_id_print+0x284>
    bd20:	eb000da8 	bl	f3c8 <printk>
    bd24:	e5d43020 	ldrb	r3, [r4, #32]
    bd28:	e5d41021 	ldrb	r1, [r4, #33]	; 0x21
    bd2c:	e1833401 	orr	r3, r3, r1, lsl #8
    bd30:	e5d41022 	ldrb	r1, [r4, #34]	; 0x22
    bd34:	e1833801 	orr	r3, r3, r1, lsl #16
    bd38:	e5d41023 	ldrb	r1, [r4, #35]	; 0x23
    bd3c:	e1831c01 	orr	r1, r3, r1, lsl #24
    bd40:	e59f0140 	ldr	r0, [pc, #320]	; be88 <fat32_volume_id_print+0x288>
    bd44:	eb000d9f 	bl	f3c8 <printk>
    bd48:	e5d43024 	ldrb	r3, [r4, #36]	; 0x24
    bd4c:	e5d41025 	ldrb	r1, [r4, #37]	; 0x25
    bd50:	e1833401 	orr	r3, r3, r1, lsl #8
    bd54:	e5d41026 	ldrb	r1, [r4, #38]	; 0x26
    bd58:	e1833801 	orr	r3, r3, r1, lsl #16
    bd5c:	e5d41027 	ldrb	r1, [r4, #39]	; 0x27
    bd60:	e1831c01 	orr	r1, r3, r1, lsl #24
    bd64:	e59f0120 	ldr	r0, [pc, #288]	; be8c <fat32_volume_id_print+0x28c>
    bd68:	eb000d96 	bl	f3c8 <printk>
    bd6c:	e5d43028 	ldrb	r3, [r4, #40]	; 0x28
    bd70:	e5d41029 	ldrb	r1, [r4, #41]	; 0x29
    bd74:	e1831401 	orr	r1, r3, r1, lsl #8
    bd78:	e59f0110 	ldr	r0, [pc, #272]	; be90 <fat32_volume_id_print+0x290>
    bd7c:	eb000d91 	bl	f3c8 <printk>
    bd80:	e5d4302a 	ldrb	r3, [r4, #42]	; 0x2a
    bd84:	e5d4102b 	ldrb	r1, [r4, #43]	; 0x2b
    bd88:	e1831401 	orr	r1, r3, r1, lsl #8
    bd8c:	e59f0100 	ldr	r0, [pc, #256]	; be94 <fat32_volume_id_print+0x294>
    bd90:	eb000d8c 	bl	f3c8 <printk>
    bd94:	e5d4302c 	ldrb	r3, [r4, #44]	; 0x2c
    bd98:	e5d4102d 	ldrb	r1, [r4, #45]	; 0x2d
    bd9c:	e1833401 	orr	r3, r3, r1, lsl #8
    bda0:	e5d4102e 	ldrb	r1, [r4, #46]	; 0x2e
    bda4:	e1833801 	orr	r3, r3, r1, lsl #16
    bda8:	e5d4102f 	ldrb	r1, [r4, #47]	; 0x2f
    bdac:	e1831c01 	orr	r1, r3, r1, lsl #24
    bdb0:	e59f00e0 	ldr	r0, [pc, #224]	; be98 <fat32_volume_id_print+0x298>
    bdb4:	eb000d83 	bl	f3c8 <printk>
    bdb8:	e5d43030 	ldrb	r3, [r4, #48]	; 0x30
    bdbc:	e5d41031 	ldrb	r1, [r4, #49]	; 0x31
    bdc0:	e1831401 	orr	r1, r3, r1, lsl #8
    bdc4:	e59f00d0 	ldr	r0, [pc, #208]	; be9c <fat32_volume_id_print+0x29c>
    bdc8:	eb000d7e 	bl	f3c8 <printk>
    bdcc:	e5d43032 	ldrb	r3, [r4, #50]	; 0x32
    bdd0:	e5d41033 	ldrb	r1, [r4, #51]	; 0x33
    bdd4:	e1831401 	orr	r1, r3, r1, lsl #8
    bdd8:	e59f00c0 	ldr	r0, [pc, #192]	; bea0 <fat32_volume_id_print+0x2a0>
    bddc:	eb000d79 	bl	f3c8 <printk>
    bde0:	e5d41040 	ldrb	r1, [r4, #64]	; 0x40
    bde4:	e59f00b8 	ldr	r0, [pc, #184]	; bea4 <fat32_volume_id_print+0x2a4>
    bde8:	eb000d76 	bl	f3c8 <printk>
    bdec:	e5d41042 	ldrb	r1, [r4, #66]	; 0x42
    bdf0:	e59f00b0 	ldr	r0, [pc, #176]	; bea8 <fat32_volume_id_print+0x2a8>
    bdf4:	eb000d73 	bl	f3c8 <printk>
    bdf8:	e5d43043 	ldrb	r3, [r4, #67]	; 0x43
    bdfc:	e5d41044 	ldrb	r1, [r4, #68]	; 0x44
    be00:	e1833401 	orr	r3, r3, r1, lsl #8
    be04:	e5d41045 	ldrb	r1, [r4, #69]	; 0x45
    be08:	e1833801 	orr	r3, r3, r1, lsl #16
    be0c:	e5d41046 	ldrb	r1, [r4, #70]	; 0x46
    be10:	e1831c01 	orr	r1, r3, r1, lsl #24
    be14:	e59f0090 	ldr	r0, [pc, #144]	; beac <fat32_volume_id_print+0x2ac>
    be18:	eb000d6a 	bl	f3c8 <printk>
    be1c:	e28d1010 	add	r1, sp, #16, 0
    be20:	e59f0088 	ldr	r0, [pc, #136]	; beb0 <fat32_volume_id_print+0x2b0>
    be24:	eb000d67 	bl	f3c8 <printk>
    be28:	e28d1004 	add	r1, sp, #4, 0
    be2c:	e59f0080 	ldr	r0, [pc, #128]	; beb4 <fat32_volume_id_print+0x2b4>
    be30:	eb000d64 	bl	f3c8 <printk>
    be34:	e5d431fe 	ldrb	r3, [r4, #510]	; 0x1fe
    be38:	e5d411ff 	ldrb	r1, [r4, #511]	; 0x1ff
    be3c:	e1831401 	orr	r1, r3, r1, lsl #8
    be40:	e59f0070 	ldr	r0, [pc, #112]	; beb8 <fat32_volume_id_print+0x2b8>
    be44:	eb000d5f 	bl	f3c8 <printk>
    be48:	e1a00004 	mov	r0, r4
    be4c:	ebfffebe 	bl	b94c <fat32_volume_id_check>
    be50:	e28dd02c 	add	sp, sp, #44, 0	; 0x2c
    be54:	e8bd8030 	pop	{r4, r5, pc}
    be58:	00010d50 	.word	0x00010d50
    be5c:	00010f6c 	.word	0x00010f6c
    be60:	00010f88 	.word	0x00010f88
    be64:	00010fa4 	.word	0x00010fa4
    be68:	00010fc0 	.word	0x00010fc0
    be6c:	00010fdc 	.word	0x00010fdc
    be70:	00010ff8 	.word	0x00010ff8
    be74:	00011014 	.word	0x00011014
    be78:	00011030 	.word	0x00011030
    be7c:	0001104c 	.word	0x0001104c
    be80:	00011068 	.word	0x00011068
    be84:	00011084 	.word	0x00011084
    be88:	000110a0 	.word	0x000110a0
    be8c:	000110bc 	.word	0x000110bc
    be90:	000110d8 	.word	0x000110d8
    be94:	000110f4 	.word	0x000110f4
    be98:	00011110 	.word	0x00011110
    be9c:	0001112c 	.word	0x0001112c
    bea0:	00011148 	.word	0x00011148
    bea4:	00011164 	.word	0x00011164
    bea8:	00011180 	.word	0x00011180
    beac:	0001119c 	.word	0x0001119c
    beb0:	000111b8 	.word	0x000111b8
    beb4:	000111d4 	.word	0x000111d4
    beb8:	000111f0 	.word	0x000111f0

0000bebc <fat32_fsinfo_print>:
    bebc:	e92d4010 	push	{r4, lr}
    bec0:	e1a04001 	mov	r4, r1
    bec4:	e1a01000 	mov	r1, r0
    bec8:	e59f0040 	ldr	r0, [pc, #64]	; bf10 <fat32_fsinfo_print+0x54>
    becc:	eb000d3d 	bl	f3c8 <printk>
    bed0:	e5941000 	ldr	r1, [r4]
    bed4:	e59f0038 	ldr	r0, [pc, #56]	; bf14 <fat32_fsinfo_print+0x58>
    bed8:	eb000d3a 	bl	f3c8 <printk>
    bedc:	e59411e4 	ldr	r1, [r4, #484]	; 0x1e4
    bee0:	e59f0030 	ldr	r0, [pc, #48]	; bf18 <fat32_fsinfo_print+0x5c>
    bee4:	eb000d37 	bl	f3c8 <printk>
    bee8:	e59411fc 	ldr	r1, [r4, #508]	; 0x1fc
    beec:	e59f0028 	ldr	r0, [pc, #40]	; bf1c <fat32_fsinfo_print+0x60>
    bef0:	eb000d34 	bl	f3c8 <printk>
    bef4:	e59411e8 	ldr	r1, [r4, #488]	; 0x1e8
    bef8:	e59f0020 	ldr	r0, [pc, #32]	; bf20 <fat32_fsinfo_print+0x64>
    befc:	eb000d31 	bl	f3c8 <printk>
    bf00:	e59411ec 	ldr	r1, [r4, #492]	; 0x1ec
    bf04:	e59f0018 	ldr	r0, [pc, #24]	; bf24 <fat32_fsinfo_print+0x68>
    bf08:	eb000d2e 	bl	f3c8 <printk>
    bf0c:	e8bd8010 	pop	{r4, pc}
    bf10:	00010d50 	.word	0x00010d50
    bf14:	0001120c 	.word	0x0001120c
    bf18:	00011228 	.word	0x00011228
    bf1c:	00011244 	.word	0x00011244
    bf20:	00011260 	.word	0x00011260
    bf24:	0001127c 	.word	0x0001127c

0000bf28 <fat32_fsinfo_check>:
    bf28:	e52de004 	push	{lr}		; (str lr, [sp, #-4]!)
    bf2c:	e24dd00c 	sub	sp, sp, #12, 0
    bf30:	e5902000 	ldr	r2, [r0]
    bf34:	e59f308c 	ldr	r3, [pc, #140]	; bfc8 <fat32_fsinfo_check+0xa0>
    bf38:	e1520003 	cmp	r2, r3
    bf3c:	1a000009 	bne	bf68 <fat32_fsinfo_check+0x40>
    bf40:	e59021e4 	ldr	r2, [r0, #484]	; 0x1e4
    bf44:	e59f3080 	ldr	r3, [pc, #128]	; bfcc <fat32_fsinfo_check+0xa4>
    bf48:	e1520003 	cmp	r2, r3
    bf4c:	1a00000d 	bne	bf88 <fat32_fsinfo_check+0x60>
    bf50:	e59021fc 	ldr	r2, [r0, #508]	; 0x1fc
    bf54:	e59f3074 	ldr	r3, [pc, #116]	; bfd0 <fat32_fsinfo_check+0xa8>
    bf58:	e1520003 	cmp	r2, r3
    bf5c:	1a000011 	bne	bfa8 <fat32_fsinfo_check+0x80>
    bf60:	e28dd00c 	add	sp, sp, #12, 0
    bf64:	e49df004 	pop	{pc}		; (ldr pc, [sp], #4)
    bf68:	e59f3064 	ldr	r3, [pc, #100]	; bfd4 <fat32_fsinfo_check+0xac>
    bf6c:	e58d3000 	str	r3, [sp]
    bf70:	e3a03057 	mov	r3, #87, 0	; 0x57
    bf74:	e59f205c 	ldr	r2, [pc, #92]	; bfd8 <fat32_fsinfo_check+0xb0>
    bf78:	e59f105c 	ldr	r1, [pc, #92]	; bfdc <fat32_fsinfo_check+0xb4>
    bf7c:	e59f005c 	ldr	r0, [pc, #92]	; bfe0 <fat32_fsinfo_check+0xb8>
    bf80:	eb000d10 	bl	f3c8 <printk>
    bf84:	eb000e3f 	bl	f888 <clean_reboot>
    bf88:	e59f3054 	ldr	r3, [pc, #84]	; bfe4 <fat32_fsinfo_check+0xbc>
    bf8c:	e58d3000 	str	r3, [sp]
    bf90:	e3a03058 	mov	r3, #88, 0	; 0x58
    bf94:	e59f203c 	ldr	r2, [pc, #60]	; bfd8 <fat32_fsinfo_check+0xb0>
    bf98:	e59f103c 	ldr	r1, [pc, #60]	; bfdc <fat32_fsinfo_check+0xb4>
    bf9c:	e59f003c 	ldr	r0, [pc, #60]	; bfe0 <fat32_fsinfo_check+0xb8>
    bfa0:	eb000d08 	bl	f3c8 <printk>
    bfa4:	eb000e37 	bl	f888 <clean_reboot>
    bfa8:	e59f3038 	ldr	r3, [pc, #56]	; bfe8 <fat32_fsinfo_check+0xc0>
    bfac:	e58d3000 	str	r3, [sp]
    bfb0:	e3a03059 	mov	r3, #89, 0	; 0x59
    bfb4:	e59f201c 	ldr	r2, [pc, #28]	; bfd8 <fat32_fsinfo_check+0xb0>
    bfb8:	e59f101c 	ldr	r1, [pc, #28]	; bfdc <fat32_fsinfo_check+0xb4>
    bfbc:	e59f001c 	ldr	r0, [pc, #28]	; bfe0 <fat32_fsinfo_check+0xb8>
    bfc0:	eb000d00 	bl	f3c8 <printk>
    bfc4:	eb000e2f 	bl	f888 <clean_reboot>
    bfc8:	41615252 	.word	0x41615252
    bfcc:	61417272 	.word	0x61417272
    bfd0:	aa550000 	.word	0xaa550000
    bfd4:	00011298 	.word	0x00011298
    bfd8:	000115d4 	.word	0x000115d4
    bfdc:	00010e48 	.word	0x00010e48
    bfe0:	0000ff5c 	.word	0x0000ff5c
    bfe4:	000112b4 	.word	0x000112b4
    bfe8:	000112d0 	.word	0x000112d0

0000bfec <fat32_fat_entry_type_str>:
    bfec:	e370029f 	cmn	r0, #-268435447	; 0xf0000009
    bff0:	0a000015 	beq	c04c <fat32_fat_entry_type_str+0x60>
    bff4:	8a000005 	bhi	c010 <fat32_fat_entry_type_str+0x24>
    bff8:	e3500000 	cmp	r0, #0, 0
    bffc:	0a000014 	beq	c054 <fat32_fat_entry_type_str+0x68>
    c000:	e3500001 	cmp	r0, #1, 0
    c004:	1a000007 	bne	c028 <fat32_fat_entry_type_str+0x3c>
    c008:	e59f0054 	ldr	r0, [pc, #84]	; c064 <fat32_fat_entry_type_str+0x78>
    c00c:	e12fff1e 	bx	lr
    c010:	e370028f 	cmn	r0, #-268435448	; 0xf0000008
    c014:	0a000010 	beq	c05c <fat32_fat_entry_type_str+0x70>
    c018:	e370027f 	cmn	r0, #-268435449	; 0xf0000007
    c01c:	1a000001 	bne	c028 <fat32_fat_entry_type_str+0x3c>
    c020:	e59f0040 	ldr	r0, [pc, #64]	; c068 <fat32_fat_entry_type_str+0x7c>
    c024:	e12fff1e 	bx	lr
    c028:	e52de004 	push	{lr}		; (str lr, [sp, #-4]!)
    c02c:	e24dd00c 	sub	sp, sp, #12, 0
    c030:	e58d0000 	str	r0, [sp]
    c034:	e3a03067 	mov	r3, #103, 0	; 0x67
    c038:	e59f202c 	ldr	r2, [pc, #44]	; c06c <fat32_fat_entry_type_str+0x80>
    c03c:	e59f102c 	ldr	r1, [pc, #44]	; c070 <fat32_fat_entry_type_str+0x84>
    c040:	e59f002c 	ldr	r0, [pc, #44]	; c074 <fat32_fat_entry_type_str+0x88>
    c044:	eb000cdf 	bl	f3c8 <printk>
    c048:	eb000e0e 	bl	f888 <clean_reboot>
    c04c:	e59f0024 	ldr	r0, [pc, #36]	; c078 <fat32_fat_entry_type_str+0x8c>
    c050:	e12fff1e 	bx	lr
    c054:	e59f0020 	ldr	r0, [pc, #32]	; c07c <fat32_fat_entry_type_str+0x90>
    c058:	e12fff1e 	bx	lr
    c05c:	e59f001c 	ldr	r0, [pc, #28]	; c080 <fat32_fat_entry_type_str+0x94>
    c060:	e12fff1e 	bx	lr
    c064:	00011318 	.word	0x00011318
    c068:	0001132c 	.word	0x0001132c
    c06c:	000115e8 	.word	0x000115e8
    c070:	00010e48 	.word	0x00010e48
    c074:	0001133c 	.word	0x0001133c
    c078:	000112ec 	.word	0x000112ec
    c07c:	000112f8 	.word	0x000112f8
    c080:	00011308 	.word	0x00011308

0000c084 <fat32_fat_entry_type>:
    c084:	e3c0020f 	bic	r0, r0, #-268435456	; 0xf0000000
    c088:	e3500001 	cmp	r0, #1, 0
    c08c:	912fff1e 	bxls	lr
    c090:	e370029f 	cmn	r0, #-268435447	; 0xf0000009
    c094:	012fff1e 	bxeq	lr
    c098:	e2402002 	sub	r2, r0, #2, 0
    c09c:	e59f3074 	ldr	r3, [pc, #116]	; c118 <fat32_fat_entry_type+0x94>
    c0a0:	e1520003 	cmp	r2, r3
    c0a4:	9a000019 	bls	c110 <fat32_fat_entry_type+0x8c>
    c0a8:	e52de004 	push	{lr}		; (str lr, [sp, #-4]!)
    c0ac:	e24dd00c 	sub	sp, sp, #12, 0
    c0b0:	e280320f 	add	r3, r0, #-268435456	; 0xf0000000
    c0b4:	e2833010 	add	r3, r3, #16, 0
    c0b8:	e3530006 	cmp	r3, #6, 0
    c0bc:	9a000005 	bls	c0d8 <fat32_fat_entry_type+0x54>
    c0c0:	e280328f 	add	r3, r0, #-268435448	; 0xf0000008
    c0c4:	e3530007 	cmp	r3, #7, 0
    c0c8:	8a000009 	bhi	c0f4 <fat32_fat_entry_type+0x70>
    c0cc:	e3e0027f 	mvn	r0, #-268435449	; 0xf0000007
    c0d0:	e28dd00c 	add	sp, sp, #12, 0
    c0d4:	e49df004 	pop	{pc}		; (ldr pc, [sp], #4)
    c0d8:	e58d0000 	str	r0, [sp]
    c0dc:	e3a03077 	mov	r3, #119, 0	; 0x77
    c0e0:	e59f2034 	ldr	r2, [pc, #52]	; c11c <fat32_fat_entry_type+0x98>
    c0e4:	e59f1034 	ldr	r1, [pc, #52]	; c120 <fat32_fat_entry_type+0x9c>
    c0e8:	e59f0034 	ldr	r0, [pc, #52]	; c124 <fat32_fat_entry_type+0xa0>
    c0ec:	eb000cb5 	bl	f3c8 <printk>
    c0f0:	eb000de4 	bl	f888 <clean_reboot>
    c0f4:	e58d0000 	str	r0, [sp]
    c0f8:	e3a0307a 	mov	r3, #122, 0	; 0x7a
    c0fc:	e59f2018 	ldr	r2, [pc, #24]	; c11c <fat32_fat_entry_type+0x98>
    c100:	e59f1018 	ldr	r1, [pc, #24]	; c120 <fat32_fat_entry_type+0x9c>
    c104:	e59f001c 	ldr	r0, [pc, #28]	; c128 <fat32_fat_entry_type+0xa4>
    c108:	eb000cae 	bl	f3c8 <printk>
    c10c:	eb000ddd 	bl	f888 <clean_reboot>
    c110:	e3e0026f 	mvn	r0, #-268435450	; 0xf0000006
    c114:	e12fff1e 	bx	lr
    c118:	0fffffed 	.word	0x0fffffed
    c11c:	00011604 	.word	0x00011604
    c120:	00010e48 	.word	0x00010e48
    c124:	0001135c 	.word	0x0001135c
    c128:	00011380 	.word	0x00011380

0000c12c <fat32_dirent_free>:
    c12c:	e5d03000 	ldrb	r3, [r0]
    c130:	e5d0200b 	ldrb	r2, [r0, #11]
    c134:	e352000f 	cmp	r2, #15, 0
    c138:	0a000005 	beq	c154 <fat32_dirent_free+0x28>
    c13c:	e35300e5 	cmp	r3, #229, 0	; 0xe5
    c140:	13a00000 	movne	r0, #0, 0
    c144:	03a00001 	moveq	r0, #1, 0
    c148:	e3530000 	cmp	r3, #0, 0
    c14c:	03a00001 	moveq	r0, #1, 0
    c150:	e12fff1e 	bx	lr
    c154:	e92d4010 	push	{r4, lr}
    c158:	eb00024f 	bl	ca9c <fat32_dirent_is_deleted_lfn>
    c15c:	e8bd8010 	pop	{r4, pc}

0000c160 <fat32_dir_attr_str>:
    c160:	e350000f 	cmp	r0, #15, 0
    c164:	0a000063 	beq	c2f8 <fat32_dir_attr_str+0x198>
    c168:	e92d4010 	push	{r4, lr}
    c16c:	e24dd008 	sub	sp, sp, #8, 0
    c170:	e1a04000 	mov	r4, r0
    c174:	e59f3184 	ldr	r3, [pc, #388]	; c300 <fat32_dir_attr_str+0x1a0>
    c178:	e3a02000 	mov	r2, #0, 0
    c17c:	e5c32020 	strb	r2, [r3, #32]
    c180:	0a00002a 	beq	c230 <fat32_dir_attr_str+0xd0>
    c184:	e2003001 	and	r3, r0, #1, 0
    c188:	e3530000 	cmp	r3, #0, 0
    c18c:	1a00002b 	bne	c240 <fat32_dir_attr_str+0xe0>
    c190:	e354000f 	cmp	r4, #15, 0
    c194:	0a00002e 	beq	c254 <fat32_dir_attr_str+0xf4>
    c198:	e3140002 	tst	r4, #2, 0
    c19c:	13a03001 	movne	r3, #1, 0
    c1a0:	03a03000 	moveq	r3, #0, 0
    c1a4:	e3530000 	cmp	r3, #0, 0
    c1a8:	1a00002d 	bne	c264 <fat32_dir_attr_str+0x104>
    c1ac:	e2443004 	sub	r3, r4, #4, 0
    c1b0:	e353001c 	cmp	r3, #28, 0
    c1b4:	979ff103 	ldrls	pc, [pc, r3, lsl #2]
    c1b8:	ea000047 	b	c2dc <fat32_dir_attr_str+0x17c>
    c1bc:	0000c278 	.word	0x0000c278
    c1c0:	0000c2dc 	.word	0x0000c2dc
    c1c4:	0000c2dc 	.word	0x0000c2dc
    c1c8:	0000c2dc 	.word	0x0000c2dc
    c1cc:	0000c294 	.word	0x0000c294
    c1d0:	0000c2dc 	.word	0x0000c2dc
    c1d4:	0000c2dc 	.word	0x0000c2dc
    c1d8:	0000c2dc 	.word	0x0000c2dc
    c1dc:	0000c2dc 	.word	0x0000c2dc
    c1e0:	0000c2dc 	.word	0x0000c2dc
    c1e4:	0000c2dc 	.word	0x0000c2dc
    c1e8:	0000c2dc 	.word	0x0000c2dc
    c1ec:	0000c2ac 	.word	0x0000c2ac
    c1f0:	0000c2dc 	.word	0x0000c2dc
    c1f4:	0000c2dc 	.word	0x0000c2dc
    c1f8:	0000c2dc 	.word	0x0000c2dc
    c1fc:	0000c2dc 	.word	0x0000c2dc
    c200:	0000c2dc 	.word	0x0000c2dc
    c204:	0000c2dc 	.word	0x0000c2dc
    c208:	0000c2dc 	.word	0x0000c2dc
    c20c:	0000c2dc 	.word	0x0000c2dc
    c210:	0000c2dc 	.word	0x0000c2dc
    c214:	0000c2dc 	.word	0x0000c2dc
    c218:	0000c2dc 	.word	0x0000c2dc
    c21c:	0000c2dc 	.word	0x0000c2dc
    c220:	0000c2dc 	.word	0x0000c2dc
    c224:	0000c2dc 	.word	0x0000c2dc
    c228:	0000c2dc 	.word	0x0000c2dc
    c22c:	0000c2c4 	.word	0x0000c2c4
    c230:	e3500001 	cmp	r0, #1, 0
    c234:	13a03000 	movne	r3, #0, 0
    c238:	03a03001 	moveq	r3, #1, 0
    c23c:	eaffffd1 	b	c188 <fat32_dir_attr_str+0x28>
    c240:	e59f10bc 	ldr	r1, [pc, #188]	; c304 <fat32_dir_attr_str+0x1a4>
    c244:	e59f00bc 	ldr	r0, [pc, #188]	; c308 <fat32_dir_attr_str+0x1a8>
    c248:	eb000d67 	bl	f7ec <strcat>
    c24c:	e3c44001 	bic	r4, r4, #1, 0
    c250:	eaffffce 	b	c190 <fat32_dir_attr_str+0x30>
    c254:	e3540002 	cmp	r4, #2, 0
    c258:	13a03000 	movne	r3, #0, 0
    c25c:	03a03001 	moveq	r3, #1, 0
    c260:	eaffffcf 	b	c1a4 <fat32_dir_attr_str+0x44>
    c264:	e59f10a0 	ldr	r1, [pc, #160]	; c30c <fat32_dir_attr_str+0x1ac>
    c268:	e59f0098 	ldr	r0, [pc, #152]	; c308 <fat32_dir_attr_str+0x1a8>
    c26c:	eb000d5e 	bl	f7ec <strcat>
    c270:	e3c44002 	bic	r4, r4, #2, 0
    c274:	eaffffcc 	b	c1ac <fat32_dir_attr_str+0x4c>
    c278:	e59f4088 	ldr	r4, [pc, #136]	; c308 <fat32_dir_attr_str+0x1a8>
    c27c:	e59f108c 	ldr	r1, [pc, #140]	; c310 <fat32_dir_attr_str+0x1b0>
    c280:	e1a00004 	mov	r0, r4
    c284:	eb000d58 	bl	f7ec <strcat>
    c288:	e1a00004 	mov	r0, r4
    c28c:	e28dd008 	add	sp, sp, #8, 0
    c290:	e8bd8010 	pop	{r4, pc}
    c294:	e59f406c 	ldr	r4, [pc, #108]	; c308 <fat32_dir_attr_str+0x1a8>
    c298:	e59f1074 	ldr	r1, [pc, #116]	; c314 <fat32_dir_attr_str+0x1b4>
    c29c:	e1a00004 	mov	r0, r4
    c2a0:	eb000d51 	bl	f7ec <strcat>
    c2a4:	e1a00004 	mov	r0, r4
    c2a8:	eafffff7 	b	c28c <fat32_dir_attr_str+0x12c>
    c2ac:	e59f4054 	ldr	r4, [pc, #84]	; c308 <fat32_dir_attr_str+0x1a8>
    c2b0:	e59f1060 	ldr	r1, [pc, #96]	; c318 <fat32_dir_attr_str+0x1b8>
    c2b4:	e1a00004 	mov	r0, r4
    c2b8:	eb000d4b 	bl	f7ec <strcat>
    c2bc:	e1a00004 	mov	r0, r4
    c2c0:	eafffff1 	b	c28c <fat32_dir_attr_str+0x12c>
    c2c4:	e59f403c 	ldr	r4, [pc, #60]	; c308 <fat32_dir_attr_str+0x1a8>
    c2c8:	e59f104c 	ldr	r1, [pc, #76]	; c31c <fat32_dir_attr_str+0x1bc>
    c2cc:	e1a00004 	mov	r0, r4
    c2d0:	eb000d45 	bl	f7ec <strcat>
    c2d4:	e1a00004 	mov	r0, r4
    c2d8:	eaffffeb 	b	c28c <fat32_dir_attr_str+0x12c>
    c2dc:	e58d4000 	str	r4, [sp]
    c2e0:	e3a0309d 	mov	r3, #157, 0	; 0x9d
    c2e4:	e59f2034 	ldr	r2, [pc, #52]	; c320 <fat32_dir_attr_str+0x1c0>
    c2e8:	e59f1034 	ldr	r1, [pc, #52]	; c324 <fat32_dir_attr_str+0x1c4>
    c2ec:	e59f0034 	ldr	r0, [pc, #52]	; c328 <fat32_dir_attr_str+0x1c8>
    c2f0:	eb000c34 	bl	f3c8 <printk>
    c2f4:	eb000d63 	bl	f888 <clean_reboot>
    c2f8:	e59f002c 	ldr	r0, [pc, #44]	; c32c <fat32_dir_attr_str+0x1cc>
    c2fc:	e12fff1e 	bx	lr
    c300:	00013228 	.word	0x00013228
    c304:	000113bc 	.word	0x000113bc
    c308:	00013248 	.word	0x00013248
    c30c:	000113c0 	.word	0x000113c0
    c310:	000113c8 	.word	0x000113c8
    c314:	000113d8 	.word	0x000113d8
    c318:	000113e8 	.word	0x000113e8
    c31c:	000113f0 	.word	0x000113f0
    c320:	0001161c 	.word	0x0001161c
    c324:	00010e48 	.word	0x00010e48
    c328:	000113fc 	.word	0x000113fc
    c32c:	000113ac 	.word	0x000113ac

0000c330 <fat32_dirent_name>:
    c330:	e92d4010 	push	{r4, lr}
    c334:	e1a04001 	mov	r4, r1
    c338:	ebfffd54 	bl	b890 <to_8dot3>
    c33c:	e1a01000 	mov	r1, r0
    c340:	e1a00004 	mov	r0, r4
    c344:	eb000d40 	bl	f84c <strcpy>
    c348:	e8bd8010 	pop	{r4, pc}

0000c34c <fat32_is_valid_name>:
    c34c:	e92d4010 	push	{r4, lr}
    c350:	e1a04000 	mov	r4, r0
    c354:	eb000d44 	bl	f86c <strlen>
    c358:	e1a0c000 	mov	ip, r0
    c35c:	e1a01000 	mov	r1, r0
    c360:	e3a03000 	mov	r3, #0, 0
    c364:	e1a00003 	mov	r0, r3
    c368:	ea000000 	b	c370 <fat32_is_valid_name+0x24>
    c36c:	e2833001 	add	r3, r3, #1, 0
    c370:	e1530001 	cmp	r3, r1
    c374:	aa000003 	bge	c388 <fat32_is_valid_name+0x3c>
    c378:	e7d42003 	ldrb	r2, [r4, r3]
    c37c:	e352002e 	cmp	r2, #46, 0	; 0x2e
    c380:	03a00001 	moveq	r0, #1, 0
    c384:	eafffff8 	b	c36c <fat32_is_valid_name+0x20>
    c388:	e3500000 	cmp	r0, #0, 0
    c38c:	0a000019 	beq	c3f8 <fat32_is_valid_name+0xac>
    c390:	e35c000c 	cmp	ip, #12, 0
    c394:	ca00002a 	bgt	c444 <fat32_is_valid_name+0xf8>
    c398:	e35c0004 	cmp	ip, #4, 0
    c39c:	da00002a 	ble	c44c <fat32_is_valid_name+0x100>
    c3a0:	e084c00c 	add	ip, r4, ip
    c3a4:	e55c3004 	ldrb	r3, [ip, #-4]
    c3a8:	e353002e 	cmp	r3, #46, 0	; 0x2e
    c3ac:	1a000028 	bne	c454 <fat32_is_valid_name+0x108>
    c3b0:	e3a02000 	mov	r2, #0, 0
    c3b4:	ea000000 	b	c3bc <fat32_is_valid_name+0x70>
    c3b8:	e2822001 	add	r2, r2, #1, 0
    c3bc:	e1520001 	cmp	r2, r1
    c3c0:	a8bd8010 	popge	{r4, pc}
    c3c4:	e7d43002 	ldrb	r3, [r4, r2]
    c3c8:	e243c041 	sub	ip, r3, #65, 0	; 0x41
    c3cc:	e6efc07c 	uxtb	ip, ip
    c3d0:	e2433030 	sub	r3, r3, #48, 0	; 0x30
    c3d4:	e6ef3073 	uxtb	r3, r3
    c3d8:	e35c0019 	cmp	ip, #25, 0
    c3dc:	83530009 	cmphi	r3, #9, 0
    c3e0:	9afffff4 	bls	c3b8 <fat32_is_valid_name+0x6c>
    c3e4:	e2413004 	sub	r3, r1, #4, 0
    c3e8:	e1530002 	cmp	r3, r2
    c3ec:	0afffff1 	beq	c3b8 <fat32_is_valid_name+0x6c>
    c3f0:	e3a00000 	mov	r0, #0, 0
    c3f4:	e8bd8010 	pop	{r4, pc}
    c3f8:	e35c0008 	cmp	ip, #8, 0
    c3fc:	c8bd8010 	popgt	{r4, pc}
    c400:	e35c0000 	cmp	ip, #0, 0
    c404:	d8bd8010 	pople	{r4, pc}
    c408:	e1a02000 	mov	r2, r0
    c40c:	e1520001 	cmp	r2, r1
    c410:	aa000009 	bge	c43c <fat32_is_valid_name+0xf0>
    c414:	e7d43002 	ldrb	r3, [r4, r2]
    c418:	e243c041 	sub	ip, r3, #65, 0	; 0x41
    c41c:	e6efc07c 	uxtb	ip, ip
    c420:	e2433030 	sub	r3, r3, #48, 0	; 0x30
    c424:	e6ef3073 	uxtb	r3, r3
    c428:	e35c0019 	cmp	ip, #25, 0
    c42c:	83530009 	cmphi	r3, #9, 0
    c430:	88bd8010 	pophi	{r4, pc}
    c434:	e2822001 	add	r2, r2, #1, 0
    c438:	eafffff3 	b	c40c <fat32_is_valid_name+0xc0>
    c43c:	e3a00001 	mov	r0, #1, 0
    c440:	e8bd8010 	pop	{r4, pc}
    c444:	e3a00000 	mov	r0, #0, 0
    c448:	e8bd8010 	pop	{r4, pc}
    c44c:	e3a00000 	mov	r0, #0, 0
    c450:	e8bd8010 	pop	{r4, pc}
    c454:	e3a00000 	mov	r0, #0, 0
    c458:	e8bd8010 	pop	{r4, pc}

0000c45c <fat32_dirent_set_name>:
    c45c:	e92d41f0 	push	{r4, r5, r6, r7, r8, lr}
    c460:	e24dd008 	sub	sp, sp, #8, 0
    c464:	e1a07000 	mov	r7, r0
    c468:	e1a04001 	mov	r4, r1
    c46c:	e1a00001 	mov	r0, r1
    c470:	eb000cfd 	bl	f86c <strlen>
    c474:	e1a06000 	mov	r6, r0
    c478:	e1a05000 	mov	r5, r0
    c47c:	e1a00004 	mov	r0, r4
    c480:	ebffffb1 	bl	c34c <fat32_is_valid_name>
    c484:	e3500000 	cmp	r0, #0, 0
    c488:	13a03000 	movne	r3, #0, 0
    c48c:	11a08003 	movne	r8, r3
    c490:	1a000008 	bne	c4b8 <fat32_dirent_set_name+0x5c>
    c494:	e59f308c 	ldr	r3, [pc, #140]	; c528 <fat32_dirent_set_name+0xcc>
    c498:	e58d3000 	str	r3, [sp]
    c49c:	e3a030da 	mov	r3, #218, 0	; 0xda
    c4a0:	e59f2084 	ldr	r2, [pc, #132]	; c52c <fat32_dirent_set_name+0xd0>
    c4a4:	e59f1084 	ldr	r1, [pc, #132]	; c530 <fat32_dirent_set_name+0xd4>
    c4a8:	e59f0084 	ldr	r0, [pc, #132]	; c534 <fat32_dirent_set_name+0xd8>
    c4ac:	eb000bc5 	bl	f3c8 <printk>
    c4b0:	eb000cf4 	bl	f888 <clean_reboot>
    c4b4:	e2833001 	add	r3, r3, #1, 0
    c4b8:	e1530005 	cmp	r3, r5
    c4bc:	aa000003 	bge	c4d0 <fat32_dirent_set_name+0x74>
    c4c0:	e7d42003 	ldrb	r2, [r4, r3]
    c4c4:	e352002e 	cmp	r2, #46, 0	; 0x2e
    c4c8:	03a08001 	moveq	r8, #1, 0
    c4cc:	eafffff8 	b	c4b4 <fat32_dirent_set_name+0x58>
    c4d0:	e3a0200b 	mov	r2, #11, 0
    c4d4:	e3a01020 	mov	r1, #32, 0
    c4d8:	e1a00007 	mov	r0, r7
    c4dc:	eb000b91 	bl	f328 <memset>
    c4e0:	e3580000 	cmp	r8, #0, 0
    c4e4:	0a00000a 	beq	c514 <fat32_dirent_set_name+0xb8>
    c4e8:	e2462004 	sub	r2, r6, #4, 0
    c4ec:	e1a01004 	mov	r1, r4
    c4f0:	e1a00007 	mov	r0, r7
    c4f4:	eb000b54 	bl	f24c <memcpy>
    c4f8:	e2461003 	sub	r1, r6, #3, 0
    c4fc:	e3a02003 	mov	r2, #3, 0
    c500:	e0841001 	add	r1, r4, r1
    c504:	e2870008 	add	r0, r7, #8, 0
    c508:	eb000b4f 	bl	f24c <memcpy>
    c50c:	e28dd008 	add	sp, sp, #8, 0
    c510:	e8bd81f0 	pop	{r4, r5, r6, r7, r8, pc}
    c514:	e1a02006 	mov	r2, r6
    c518:	e1a01004 	mov	r1, r4
    c51c:	e1a00007 	mov	r0, r7
    c520:	eb000b49 	bl	f24c <memcpy>
    c524:	eafffff8 	b	c50c <fat32_dirent_set_name+0xb0>
    c528:	00011420 	.word	0x00011420
    c52c:	00011630 	.word	0x00011630
    c530:	00010e48 	.word	0x00010e48
    c534:	0000ff5c 	.word	0x0000ff5c

0000c538 <fat32_dirent_print_helper>:
    c538:	e92d4070 	push	{r4, r5, r6, lr}
    c53c:	e1a06000 	mov	r6, r0
    c540:	ebfffef9 	bl	c12c <fat32_dirent_free>
    c544:	e2504000 	subs	r4, r0, #0, 0
    c548:	1a00001c 	bne	c5c0 <fat32_dirent_print_helper+0x88>
    c54c:	e5d6500b 	ldrb	r5, [r6, #11]
    c550:	e355000f 	cmp	r5, #15, 0
    c554:	0a00001c 	beq	c5cc <fat32_dirent_print_helper+0x94>
    c558:	e355000f 	cmp	r5, #15, 0
    c55c:	0a00001d 	beq	c5d8 <fat32_dirent_print_helper+0xa0>
    c560:	e1a032a5 	lsr	r3, r5, #5
    c564:	e2033001 	and	r3, r3, #1, 0
    c568:	e3530000 	cmp	r3, #0, 0
    c56c:	1a00001d 	bne	c5e8 <fat32_dirent_print_helper+0xb0>
    c570:	e355000f 	cmp	r5, #15, 0
    c574:	0a00001e 	beq	c5f4 <fat32_dirent_print_helper+0xbc>
    c578:	e1a03225 	lsr	r3, r5, #4
    c57c:	e2033001 	and	r3, r3, #1, 0
    c580:	e3530000 	cmp	r3, #0, 0
    c584:	0a00001e 	beq	c604 <fat32_dirent_print_helper+0xcc>
    c588:	e59f01b0 	ldr	r0, [pc, #432]	; c740 <fat32_dirent_print_helper+0x208>
    c58c:	eb000b8d 	bl	f3c8 <printk>
    c590:	e1a00006 	mov	r0, r6
    c594:	ebfffce0 	bl	b91c <add_nul>
    c598:	e1a05000 	mov	r5, r0
    c59c:	e1a00006 	mov	r0, r6
    c5a0:	ebfffcba 	bl	b890 <to_8dot3>
    c5a4:	e1a02000 	mov	r2, r0
    c5a8:	e1a01005 	mov	r1, r5
    c5ac:	e59f0190 	ldr	r0, [pc, #400]	; c744 <fat32_dirent_print_helper+0x20c>
    c5b0:	eb000b84 	bl	f3c8 <printk>
    c5b4:	e59f018c 	ldr	r0, [pc, #396]	; c748 <fat32_dirent_print_helper+0x210>
    c5b8:	eb000b82 	bl	f3c8 <printk>
    c5bc:	ea00002b 	b	c670 <fat32_dirent_print_helper+0x138>
    c5c0:	e59f0184 	ldr	r0, [pc, #388]	; c74c <fat32_dirent_print_helper+0x214>
    c5c4:	eb000b7f 	bl	f3c8 <printk>
    c5c8:	e8bd8070 	pop	{r4, r5, r6, pc}
    c5cc:	e59f017c 	ldr	r0, [pc, #380]	; c750 <fat32_dirent_print_helper+0x218>
    c5d0:	eb000b7c 	bl	f3c8 <printk>
    c5d4:	e8bd8070 	pop	{r4, r5, r6, pc}
    c5d8:	e3550020 	cmp	r5, #32, 0
    c5dc:	13a03000 	movne	r3, #0, 0
    c5e0:	03a03001 	moveq	r3, #1, 0
    c5e4:	eaffffdf 	b	c568 <fat32_dirent_print_helper+0x30>
    c5e8:	e59f0164 	ldr	r0, [pc, #356]	; c754 <fat32_dirent_print_helper+0x21c>
    c5ec:	eb000b75 	bl	f3c8 <printk>
    c5f0:	eaffffe4 	b	c588 <fat32_dirent_print_helper+0x50>
    c5f4:	e3550010 	cmp	r5, #16, 0
    c5f8:	13a03000 	movne	r3, #0, 0
    c5fc:	03a03001 	moveq	r3, #1, 0
    c600:	eaffffde 	b	c580 <fat32_dirent_print_helper+0x48>
    c604:	e1a00005 	mov	r0, r5
    c608:	ebfffed4 	bl	c160 <fat32_dir_attr_str>
    c60c:	e1a02000 	mov	r2, r0
    c610:	e1a01005 	mov	r1, r5
    c614:	e59f013c 	ldr	r0, [pc, #316]	; c758 <fat32_dirent_print_helper+0x220>
    c618:	eb000b6a 	bl	f3c8 <printk>
    c61c:	e5d6300b 	ldrb	r3, [r6, #11]
    c620:	e353000f 	cmp	r3, #15, 0
    c624:	0a000004 	beq	c63c <fat32_dirent_print_helper+0x104>
    c628:	e1a032a3 	lsr	r3, r3, #5
    c62c:	e2033001 	and	r3, r3, #1, 0
    c630:	e3530000 	cmp	r3, #0, 0
    c634:	0affffd3 	beq	c588 <fat32_dirent_print_helper+0x50>
    c638:	e8bd8070 	pop	{r4, r5, r6, pc}
    c63c:	e3530020 	cmp	r3, #32, 0
    c640:	13a03000 	movne	r3, #0, 0
    c644:	03a03001 	moveq	r3, #1, 0
    c648:	eafffff8 	b	c630 <fat32_dirent_print_helper+0xf8>
    c64c:	e59f00ec 	ldr	r0, [pc, #236]	; c740 <fat32_dirent_print_helper+0x208>
    c650:	eb000b5c 	bl	f3c8 <printk>
    c654:	e59f0100 	ldr	r0, [pc, #256]	; c75c <fat32_dirent_print_helper+0x224>
    c658:	eb000b5a 	bl	f3c8 <printk>
    c65c:	e7d61004 	ldrb	r1, [r6, r4]
    c660:	e1a02001 	mov	r2, r1
    c664:	e59f00f4 	ldr	r0, [pc, #244]	; c760 <fat32_dirent_print_helper+0x228>
    c668:	eb000b56 	bl	f3c8 <printk>
    c66c:	e2844001 	add	r4, r4, #1, 0
    c670:	e354000a 	cmp	r4, #10, 0
    c674:	8a000002 	bhi	c684 <fat32_dirent_print_helper+0x14c>
    c678:	e3540008 	cmp	r4, #8, 0
    c67c:	1afffff6 	bne	c65c <fat32_dirent_print_helper+0x124>
    c680:	eafffff1 	b	c64c <fat32_dirent_print_helper+0x114>
    c684:	e59f00d8 	ldr	r0, [pc, #216]	; c764 <fat32_dirent_print_helper+0x22c>
    c688:	eb000b4e 	bl	f3c8 <printk>
    c68c:	e5d6100b 	ldrb	r1, [r6, #11]
    c690:	e59f00d0 	ldr	r0, [pc, #208]	; c768 <fat32_dirent_print_helper+0x230>
    c694:	eb000b4b 	bl	f3c8 <printk>
    c698:	e5d6300b 	ldrb	r3, [r6, #11]
    c69c:	e353000f 	cmp	r3, #15, 0
    c6a0:	0a000009 	beq	c6cc <fat32_dirent_print_helper+0x194>
    c6a4:	e3130001 	tst	r3, #1, 0
    c6a8:	1a00001b 	bne	c71c <fat32_dirent_print_helper+0x1e4>
    c6ac:	e5d6300b 	ldrb	r3, [r6, #11]
    c6b0:	e3130002 	tst	r3, #2, 0
    c6b4:	1a00001b 	bne	c728 <fat32_dirent_print_helper+0x1f0>
    c6b8:	e5d6300b 	ldrb	r3, [r6, #11]
    c6bc:	e3130004 	tst	r3, #4, 0
    c6c0:	1a00001b 	bne	c734 <fat32_dirent_print_helper+0x1fc>
    c6c4:	e59f0074 	ldr	r0, [pc, #116]	; c740 <fat32_dirent_print_helper+0x208>
    c6c8:	eb000b3e 	bl	f3c8 <printk>
    c6cc:	e5d63014 	ldrb	r3, [r6, #20]
    c6d0:	e5d61015 	ldrb	r1, [r6, #21]
    c6d4:	e1831401 	orr	r1, r3, r1, lsl #8
    c6d8:	e59f008c 	ldr	r0, [pc, #140]	; c76c <fat32_dirent_print_helper+0x234>
    c6dc:	eb000b39 	bl	f3c8 <printk>
    c6e0:	e5d6301a 	ldrb	r3, [r6, #26]
    c6e4:	e5d6101b 	ldrb	r1, [r6, #27]
    c6e8:	e1831401 	orr	r1, r3, r1, lsl #8
    c6ec:	e59f007c 	ldr	r0, [pc, #124]	; c770 <fat32_dirent_print_helper+0x238>
    c6f0:	eb000b34 	bl	f3c8 <printk>
    c6f4:	e5d6301c 	ldrb	r3, [r6, #28]
    c6f8:	e5d6101d 	ldrb	r1, [r6, #29]
    c6fc:	e1833401 	orr	r3, r3, r1, lsl #8
    c700:	e5d6101e 	ldrb	r1, [r6, #30]
    c704:	e1833801 	orr	r3, r3, r1, lsl #16
    c708:	e5d6101f 	ldrb	r1, [r6, #31]
    c70c:	e1831c01 	orr	r1, r3, r1, lsl #24
    c710:	e59f005c 	ldr	r0, [pc, #92]	; c774 <fat32_dirent_print_helper+0x23c>
    c714:	eb000b2b 	bl	f3c8 <printk>
    c718:	e8bd8070 	pop	{r4, r5, r6, pc}
    c71c:	e59f0054 	ldr	r0, [pc, #84]	; c778 <fat32_dirent_print_helper+0x240>
    c720:	eb000b28 	bl	f3c8 <printk>
    c724:	eaffffe0 	b	c6ac <fat32_dirent_print_helper+0x174>
    c728:	e59f004c 	ldr	r0, [pc, #76]	; c77c <fat32_dirent_print_helper+0x244>
    c72c:	eb000b25 	bl	f3c8 <printk>
    c730:	eaffffe0 	b	c6b8 <fat32_dirent_print_helper+0x180>
    c734:	e59f0044 	ldr	r0, [pc, #68]	; c780 <fat32_dirent_print_helper+0x248>
    c738:	eb000b22 	bl	f3c8 <printk>
    c73c:	eaffffe0 	b	c6c4 <fat32_dirent_print_helper+0x18c>
    c740:	000128b0 	.word	0x000128b0
    c744:	000114b4 	.word	0x000114b4
    c748:	000114d8 	.word	0x000114d8
    c74c:	0001143c 	.word	0x0001143c
    c750:	00011458 	.word	0x00011458
    c754:	0001146c 	.word	0x0001146c
    c758:	00011494 	.word	0x00011494
    c75c:	000114ec 	.word	0x000114ec
    c760:	000114f4 	.word	0x000114f4
    c764:	00011500 	.word	0x00011500
    c768:	00011504 	.word	0x00011504
    c76c:	00011550 	.word	0x00011550
    c770:	00011568 	.word	0x00011568
    c774:	00011580 	.word	0x00011580
    c778:	00011518 	.word	0x00011518
    c77c:	00011528 	.word	0x00011528
    c780:	00011534 	.word	0x00011534

0000c784 <fat32_dirent_print>:
    c784:	e92d4010 	push	{r4, lr}
    c788:	e1a04001 	mov	r4, r1
    c78c:	e1a01000 	mov	r1, r0
    c790:	e59f000c 	ldr	r0, [pc, #12]	; c7a4 <fat32_dirent_print+0x20>
    c794:	eb000b0b 	bl	f3c8 <printk>
    c798:	e1a00004 	mov	r0, r4
    c79c:	ebffff65 	bl	c538 <fat32_dirent_print_helper>
    c7a0:	e8bd8010 	pop	{r4, pc}
    c7a4:	00011598 	.word	0x00011598

0000c7a8 <fat32_dir_lookup>:
    c7a8:	e92d41f0 	push	{r4, r5, r6, r7, r8, lr}
    c7ac:	e1a08000 	mov	r8, r0
    c7b0:	e1a07001 	mov	r7, r1
    c7b4:	e1a06002 	mov	r6, r2
    c7b8:	e3a04000 	mov	r4, #0, 0
    c7bc:	ea000000 	b	c7c4 <fat32_dir_lookup+0x1c>
    c7c0:	e2844001 	add	r4, r4, #1, 0
    c7c4:	e1540006 	cmp	r4, r6
    c7c8:	2a00000e 	bcs	c808 <fat32_dir_lookup+0x60>
    c7cc:	e0875284 	add	r5, r7, r4, lsl #5
    c7d0:	e1a00005 	mov	r0, r5
    c7d4:	ebfffe54 	bl	c12c <fat32_dirent_free>
    c7d8:	e3500000 	cmp	r0, #0, 0
    c7dc:	1afffff7 	bne	c7c0 <fat32_dir_lookup+0x18>
    c7e0:	e5d5300b 	ldrb	r3, [r5, #11]
    c7e4:	e353000f 	cmp	r3, #15, 0
    c7e8:	0afffff4 	beq	c7c0 <fat32_dir_lookup+0x18>
    c7ec:	e3a0200b 	mov	r2, #11, 0
    c7f0:	e1a01005 	mov	r1, r5
    c7f4:	e1a00008 	mov	r0, r8
    c7f8:	eb000a68 	bl	f1a0 <memcmp>
    c7fc:	e3500000 	cmp	r0, #0, 0
    c800:	1affffee 	bne	c7c0 <fat32_dir_lookup+0x18>
    c804:	ea000000 	b	c80c <fat32_dir_lookup+0x64>
    c808:	e3e04000 	mvn	r4, #0, 0
    c80c:	e1a00004 	mov	r0, r4
    c810:	e8bd81f0 	pop	{r4, r5, r6, r7, r8, pc}

0000c814 <print_as_string>:
    c814:	e92d4070 	push	{r4, r5, r6, lr}
    c818:	e1a06001 	mov	r6, r1
    c81c:	e1a05002 	mov	r5, r2
    c820:	e1a01000 	mov	r1, r0
    c824:	e59f002c 	ldr	r0, [pc, #44]	; c858 <print_as_string+0x44>
    c828:	eb000ae6 	bl	f3c8 <printk>
    c82c:	e3a04000 	mov	r4, #0, 0
    c830:	e1540005 	cmp	r4, r5
    c834:	aa000004 	bge	c84c <print_as_string+0x38>
    c838:	e7d61004 	ldrb	r1, [r6, r4]
    c83c:	e59f0018 	ldr	r0, [pc, #24]	; c85c <print_as_string+0x48>
    c840:	eb000ae0 	bl	f3c8 <printk>
    c844:	e2844001 	add	r4, r4, #1, 0
    c848:	eafffff8 	b	c830 <print_as_string+0x1c>
    c84c:	e59f000c 	ldr	r0, [pc, #12]	; c860 <print_as_string+0x4c>
    c850:	eb000adc 	bl	f3c8 <printk>
    c854:	e8bd8070 	pop	{r4, r5, r6, pc}
    c858:	000115a0 	.word	0x000115a0
    c85c:	000115a4 	.word	0x000115a4
    c860:	000128b0 	.word	0x000128b0

0000c864 <print_bytes>:
    c864:	e92d41f0 	push	{r4, r5, r6, r7, r8, lr}
    c868:	e1a07001 	mov	r7, r1
    c86c:	e1a06002 	mov	r6, r2
    c870:	e1a01000 	mov	r1, r0
    c874:	e59f0044 	ldr	r0, [pc, #68]	; c8c0 <print_bytes+0x5c>
    c878:	eb000ad2 	bl	f3c8 <printk>
    c87c:	e3a04000 	mov	r4, #0, 0
    c880:	ea000005 	b	c89c <print_bytes+0x38>
    c884:	e59f0038 	ldr	r0, [pc, #56]	; c8c4 <print_bytes+0x60>
    c888:	eb000ace 	bl	f3c8 <printk>
    c88c:	e7d71005 	ldrb	r1, [r7, r5]
    c890:	e59f0030 	ldr	r0, [pc, #48]	; c8c8 <print_bytes+0x64>
    c894:	eb000acb 	bl	f3c8 <printk>
    c898:	e2844001 	add	r4, r4, #1, 0
    c89c:	e1540006 	cmp	r4, r6
    c8a0:	aa000003 	bge	c8b4 <print_bytes+0x50>
    c8a4:	e1a05004 	mov	r5, r4
    c8a8:	e314000f 	tst	r4, #15, 0
    c8ac:	1afffff6 	bne	c88c <print_bytes+0x28>
    c8b0:	eafffff3 	b	c884 <print_bytes+0x20>
    c8b4:	e59f0010 	ldr	r0, [pc, #16]	; c8cc <print_bytes+0x68>
    c8b8:	eb000ac2 	bl	f3c8 <printk>
    c8bc:	e8bd81f0 	pop	{r4, r5, r6, r7, r8, pc}
    c8c0:	000115a0 	.word	0x000115a0
    c8c4:	000115a8 	.word	0x000115a8
    c8c8:	000115ac 	.word	0x000115ac
    c8cc:	000128b0 	.word	0x000128b0

0000c8d0 <print_words>:
    c8d0:	e92d41f0 	push	{r4, r5, r6, r7, r8, lr}
    c8d4:	e1a07001 	mov	r7, r1
    c8d8:	e1a06002 	mov	r6, r2
    c8dc:	e1a01000 	mov	r1, r0
    c8e0:	e59f0044 	ldr	r0, [pc, #68]	; c92c <print_words+0x5c>
    c8e4:	eb000ab7 	bl	f3c8 <printk>
    c8e8:	e3a04000 	mov	r4, #0, 0
    c8ec:	ea000005 	b	c908 <print_words+0x38>
    c8f0:	e59f0038 	ldr	r0, [pc, #56]	; c930 <print_words+0x60>
    c8f4:	eb000ab3 	bl	f3c8 <printk>
    c8f8:	e7971105 	ldr	r1, [r7, r5, lsl #2]
    c8fc:	e59f0030 	ldr	r0, [pc, #48]	; c934 <print_words+0x64>
    c900:	eb000ab0 	bl	f3c8 <printk>
    c904:	e2844001 	add	r4, r4, #1, 0
    c908:	e1540006 	cmp	r4, r6
    c90c:	aa000003 	bge	c920 <print_words+0x50>
    c910:	e1a05004 	mov	r5, r4
    c914:	e314000f 	tst	r4, #15, 0
    c918:	1afffff6 	bne	c8f8 <print_words+0x28>
    c91c:	eafffff3 	b	c8f0 <print_words+0x20>
    c920:	e59f0010 	ldr	r0, [pc, #16]	; c938 <print_words+0x68>
    c924:	eb000aa7 	bl	f3c8 <printk>
    c928:	e8bd81f0 	pop	{r4, r5, r6, r7, r8, pc}
    c92c:	000115a0 	.word	0x000115a0
    c930:	000115a8 	.word	0x000115a8
    c934:	000115b4 	.word	0x000115b4
    c938:	000128b0 	.word	0x000128b0

0000c93c <utf8_append>:
    c93c:	e92d41f0 	push	{r4, r5, r6, r7, r8, lr}
    c940:	e24dd008 	sub	sp, sp, #8, 0
    c944:	e3120001 	tst	r2, #1, 0
    c948:	1a000004 	bne	c960 <utf8_append+0x24>
    c94c:	e1a07000 	mov	r7, r0
    c950:	e1a06001 	mov	r6, r1
    c954:	e1a08002 	mov	r8, r2
    c958:	e3a04000 	mov	r4, #0, 0
    c95c:	ea000015 	b	c9b8 <utf8_append+0x7c>
    c960:	e59f3094 	ldr	r3, [pc, #148]	; c9fc <utf8_append+0xc0>
    c964:	e58d3000 	str	r3, [sp]
    c968:	e3a03044 	mov	r3, #68, 0	; 0x44
    c96c:	e59f208c 	ldr	r2, [pc, #140]	; ca00 <utf8_append+0xc4>
    c970:	e59f108c 	ldr	r1, [pc, #140]	; ca04 <utf8_append+0xc8>
    c974:	e59f008c 	ldr	r0, [pc, #140]	; ca08 <utf8_append+0xcc>
    c978:	eb000a92 	bl	f3c8 <printk>
    c97c:	eb000bc1 	bl	f888 <clean_reboot>
    c980:	e35300ff 	cmp	r3, #255, 0	; 0xff
    c984:	0a000018 	beq	c9ec <utf8_append+0xb0>
    c988:	e0861001 	add	r1, r6, r1
    c98c:	e5d10001 	ldrb	r0, [r1, #1]
    c990:	e1830400 	orr	r0, r3, r0, lsl #8
    c994:	eb000230 	bl	d25c <to_utf8>
    c998:	e1a05000 	mov	r5, r0
    c99c:	e1a01000 	mov	r1, r0
    c9a0:	e1a00007 	mov	r0, r7
    c9a4:	eb000b90 	bl	f7ec <strcat>
    c9a8:	e1a00005 	mov	r0, r5
    c9ac:	eb000bae 	bl	f86c <strlen>
    c9b0:	e0877000 	add	r7, r7, r0
    c9b4:	e2844002 	add	r4, r4, #2, 0
    c9b8:	e1a01004 	mov	r1, r4
    c9bc:	e1540008 	cmp	r4, r8
    c9c0:	2a000006 	bcs	c9e0 <utf8_append+0xa4>
    c9c4:	e0862004 	add	r2, r6, r4
    c9c8:	e7d63004 	ldrb	r3, [r6, r4]
    c9cc:	e3530000 	cmp	r3, #0, 0
    c9d0:	1affffea 	bne	c980 <utf8_append+0x44>
    c9d4:	e5d20001 	ldrb	r0, [r2, #1]
    c9d8:	e3500000 	cmp	r0, #0, 0
    c9dc:	1affffe7 	bne	c980 <utf8_append+0x44>
    c9e0:	e1a00007 	mov	r0, r7
    c9e4:	e28dd008 	add	sp, sp, #8, 0
    c9e8:	e8bd81f0 	pop	{r4, r5, r6, r7, r8, pc}
    c9ec:	e5d22001 	ldrb	r2, [r2, #1]
    c9f0:	e35200ff 	cmp	r2, #255, 0	; 0xff
    c9f4:	1affffe3 	bne	c988 <utf8_append+0x4c>
    c9f8:	eafffff8 	b	c9e0 <utf8_append+0xa4>
    c9fc:	0001165c 	.word	0x0001165c
    ca00:	000118dc 	.word	0x000118dc
    ca04:	00011648 	.word	0x00011648
    ca08:	0000ff5c 	.word	0x0000ff5c

0000ca0c <is_attr>:
    ca0c:	e350000f 	cmp	r0, #15, 0
    ca10:	0a000003 	beq	ca24 <is_attr+0x18>
    ca14:	e1d13000 	bics	r3, r1, r0
    ca18:	03a00001 	moveq	r0, #1, 0
    ca1c:	13a00000 	movne	r0, #0, 0
    ca20:	e12fff1e 	bx	lr
    ca24:	e1500001 	cmp	r0, r1
    ca28:	13a00000 	movne	r0, #0, 0
    ca2c:	03a00001 	moveq	r0, #1, 0
    ca30:	e12fff1e 	bx	lr

0000ca34 <lfn_checksum>:
    ca34:	e1a03000 	mov	r3, r0
    ca38:	e3a0100b 	mov	r1, #11, 0
    ca3c:	e3a00000 	mov	r0, #0, 0
    ca40:	ea000005 	b	ca5c <lfn_checksum+0x28>
    ca44:	e1a020a0 	lsr	r2, r0, #1
    ca48:	e0820380 	add	r0, r2, r0, lsl #7
    ca4c:	e4d32001 	ldrb	r2, [r3], #1
    ca50:	e6e20070 	uxtab	r0, r2, r0
    ca54:	e6ef0070 	uxtb	r0, r0
    ca58:	e2411001 	sub	r1, r1, #1, 0
    ca5c:	e3510000 	cmp	r1, #0, 0
    ca60:	1afffff7 	bne	ca44 <lfn_checksum+0x10>
    ca64:	e12fff1e 	bx	lr

0000ca68 <lfn_is_last>:
    ca68:	e1a00320 	lsr	r0, r0, #6
    ca6c:	e2000001 	and	r0, r0, #1, 0
    ca70:	e12fff1e 	bx	lr

0000ca74 <lfn_is_first>:
    ca74:	e20000bf 	and	r0, r0, #191, 0	; 0xbf
    ca78:	e3500001 	cmp	r0, #1, 0
    ca7c:	13a00000 	movne	r0, #0, 0
    ca80:	03a00001 	moveq	r0, #1, 0
    ca84:	e12fff1e 	bx	lr

0000ca88 <lfn_is_deleted>:
    ca88:	e20000e5 	and	r0, r0, #229, 0	; 0xe5
    ca8c:	e35000e5 	cmp	r0, #229, 0	; 0xe5
    ca90:	13a00000 	movne	r0, #0, 0
    ca94:	03a00001 	moveq	r0, #1, 0
    ca98:	e12fff1e 	bx	lr

0000ca9c <fat32_dirent_is_deleted_lfn>:
    ca9c:	e52de004 	push	{lr}		; (str lr, [sp, #-4]!)
    caa0:	e24dd00c 	sub	sp, sp, #12, 0
    caa4:	e5d0300b 	ldrb	r3, [r0, #11]
    caa8:	e353000f 	cmp	r3, #15, 0
    caac:	1a000003 	bne	cac0 <fat32_dirent_is_deleted_lfn+0x24>
    cab0:	e5d00000 	ldrb	r0, [r0]
    cab4:	ebfffff3 	bl	ca88 <lfn_is_deleted>
    cab8:	e28dd00c 	add	sp, sp, #12, 0
    cabc:	e49df004 	pop	{pc}		; (ldr pc, [sp], #4)
    cac0:	e59f3018 	ldr	r3, [pc, #24]	; cae0 <fat32_dirent_is_deleted_lfn+0x44>
    cac4:	e58d3000 	str	r3, [sp]
    cac8:	e3a03021 	mov	r3, #33, 0	; 0x21
    cacc:	e59f2010 	ldr	r2, [pc, #16]	; cae4 <fat32_dirent_is_deleted_lfn+0x48>
    cad0:	e59f1010 	ldr	r1, [pc, #16]	; cae8 <fat32_dirent_is_deleted_lfn+0x4c>
    cad4:	e59f0010 	ldr	r0, [pc, #16]	; caec <fat32_dirent_is_deleted_lfn+0x50>
    cad8:	eb000a3a 	bl	f3c8 <printk>
    cadc:	eb000b69 	bl	f888 <clean_reboot>
    cae0:	0001166c 	.word	0x0001166c
    cae4:	000118e8 	.word	0x000118e8
    cae8:	00011648 	.word	0x00011648
    caec:	0000ff5c 	.word	0x0000ff5c

0000caf0 <lfn_print_ent>:
    caf0:	e92d43f0 	push	{r4, r5, r6, r7, r8, r9, lr}
    caf4:	e24dd02c 	sub	sp, sp, #44, 0	; 0x2c
    caf8:	e1a05000 	mov	r5, r0
    cafc:	e1a06001 	mov	r6, r1
    cb00:	e1a07000 	mov	r7, r0
    cb04:	e4d74001 	ldrb	r4, [r7], #1
    cb08:	e1a00004 	mov	r0, r4
    cb0c:	ebffffd8 	bl	ca74 <lfn_is_first>
    cb10:	e1a08000 	mov	r8, r0
    cb14:	e1a00004 	mov	r0, r4
    cb18:	ebffffd2 	bl	ca68 <lfn_is_last>
    cb1c:	e1a09000 	mov	r9, r0
    cb20:	e1a00004 	mov	r0, r4
    cb24:	ebffffd7 	bl	ca88 <lfn_is_deleted>
    cb28:	e58d0000 	str	r0, [sp]
    cb2c:	e1a03009 	mov	r3, r9
    cb30:	e1a02008 	mov	r2, r8
    cb34:	e1a01004 	mov	r1, r4
    cb38:	e59f009c 	ldr	r0, [pc, #156]	; cbdc <lfn_print_ent+0xec>
    cb3c:	eb000a21 	bl	f3c8 <printk>
    cb40:	e3a0200a 	mov	r2, #10, 0
    cb44:	e1a01007 	mov	r1, r7
    cb48:	e28d000c 	add	r0, sp, #12, 0
    cb4c:	eb0009be 	bl	f24c <memcpy>
    cb50:	e3a0200c 	mov	r2, #12, 0
    cb54:	e285100e 	add	r1, r5, #14, 0
    cb58:	e28d0016 	add	r0, sp, #22, 0
    cb5c:	eb0009ba 	bl	f24c <memcpy>
    cb60:	e3a02004 	mov	r2, #4, 0
    cb64:	e285101c 	add	r1, r5, #28, 0
    cb68:	e28d0022 	add	r0, sp, #34, 0	; 0x22
    cb6c:	eb0009b6 	bl	f24c <memcpy>
    cb70:	e3a04000 	mov	r4, #0, 0
    cb74:	e5cd4026 	strb	r4, [sp, #38]	; 0x26
    cb78:	ea000004 	b	cb90 <lfn_print_ent+0xa0>
    cb7c:	e1a03002 	mov	r3, r2
    cb80:	e1a01004 	mov	r1, r4
    cb84:	e59f0054 	ldr	r0, [pc, #84]	; cbe0 <lfn_print_ent+0xf0>
    cb88:	eb000a0e 	bl	f3c8 <printk>
    cb8c:	e2844002 	add	r4, r4, #2, 0
    cb90:	e3540019 	cmp	r4, #25, 0
    cb94:	ca00000a 	bgt	cbc4 <lfn_print_ent+0xd4>
    cb98:	e28d3028 	add	r3, sp, #40, 0	; 0x28
    cb9c:	e0833004 	add	r3, r3, r4
    cba0:	e553201c 	ldrb	r2, [r3, #-28]	; 0xffffffe4
    cba4:	e3520000 	cmp	r2, #0, 0
    cba8:	1afffff3 	bne	cb7c <lfn_print_ent+0x8c>
    cbac:	e2843001 	add	r3, r4, #1, 0
    cbb0:	e28d1028 	add	r1, sp, #40, 0	; 0x28
    cbb4:	e0813003 	add	r3, r1, r3
    cbb8:	e553301c 	ldrb	r3, [r3, #-28]	; 0xffffffe4
    cbbc:	e3530000 	cmp	r3, #0, 0
    cbc0:	1affffed 	bne	cb7c <lfn_print_ent+0x8c>
    cbc4:	e1a02006 	mov	r2, r6
    cbc8:	e5d5100d 	ldrb	r1, [r5, #13]
    cbcc:	e59f0010 	ldr	r0, [pc, #16]	; cbe4 <lfn_print_ent+0xf4>
    cbd0:	eb0009fc 	bl	f3c8 <printk>
    cbd4:	e28dd02c 	add	sp, sp, #44, 0	; 0x2c
    cbd8:	e8bd83f0 	pop	{r4, r5, r6, r7, r8, r9, pc}
    cbdc:	0001168c 	.word	0x0001168c
    cbe0:	000116b8 	.word	0x000116b8
    cbe4:	000116d0 	.word	0x000116d0

0000cbe8 <lfn_get_name>:
    cbe8:	e92d4070 	push	{r4, r5, r6, lr}
    cbec:	e24dd008 	sub	sp, sp, #8, 0
    cbf0:	e1a06000 	mov	r6, r0
    cbf4:	e59f0080 	ldr	r0, [pc, #128]	; cc7c <lfn_get_name+0x94>
    cbf8:	e3a03000 	mov	r3, #0, 0
    cbfc:	e5c03000 	strb	r3, [r0]
    cc00:	e2415001 	sub	r5, r1, #1, 0
    cc04:	e3550000 	cmp	r5, #0, 0
    cc08:	ba000016 	blt	cc68 <lfn_get_name+0x80>
    cc0c:	e0864285 	add	r4, r6, r5, lsl #5
    cc10:	e5d4300b 	ldrb	r3, [r4, #11]
    cc14:	e353000f 	cmp	r3, #15, 0
    cc18:	1a00000a 	bne	cc48 <lfn_get_name+0x60>
    cc1c:	e3a0200a 	mov	r2, #10, 0
    cc20:	e2841001 	add	r1, r4, #1, 0
    cc24:	ebffff44 	bl	c93c <utf8_append>
    cc28:	e3a0200c 	mov	r2, #12, 0
    cc2c:	e284100e 	add	r1, r4, #14, 0
    cc30:	ebffff41 	bl	c93c <utf8_append>
    cc34:	e3a02004 	mov	r2, #4, 0
    cc38:	e284101c 	add	r1, r4, #28, 0
    cc3c:	ebffff3e 	bl	c93c <utf8_append>
    cc40:	e2455001 	sub	r5, r5, #1, 0
    cc44:	eaffffee 	b	cc04 <lfn_get_name+0x1c>
    cc48:	e59f3030 	ldr	r3, [pc, #48]	; cc80 <lfn_get_name+0x98>
    cc4c:	e58d3000 	str	r3, [sp]
    cc50:	e3a03055 	mov	r3, #85, 0	; 0x55
    cc54:	e59f2028 	ldr	r2, [pc, #40]	; cc84 <lfn_get_name+0x9c>
    cc58:	e59f1028 	ldr	r1, [pc, #40]	; cc88 <lfn_get_name+0xa0>
    cc5c:	e59f0028 	ldr	r0, [pc, #40]	; cc8c <lfn_get_name+0xa4>
    cc60:	eb0009d8 	bl	f3c8 <printk>
    cc64:	eb000b07 	bl	f888 <clean_reboot>
    cc68:	e3a03000 	mov	r3, #0, 0
    cc6c:	e5c03000 	strb	r3, [r0]
    cc70:	e59f0004 	ldr	r0, [pc, #4]	; cc7c <lfn_get_name+0x94>
    cc74:	e28dd008 	add	sp, sp, #8, 0
    cc78:	e8bd8070 	pop	{r4, r5, r6, pc}
    cc7c:	000132c8 	.word	0x000132c8
    cc80:	000116ec 	.word	0x000116ec
    cc84:	00011904 	.word	0x00011904
    cc88:	00011648 	.word	0x00011648
    cc8c:	0000ff5c 	.word	0x0000ff5c

0000cc90 <lfn_print>:
    cc90:	e92d43f0 	push	{r4, r5, r6, r7, r8, r9, lr}
    cc94:	e24dd00c 	sub	sp, sp, #12, 0
    cc98:	e2518000 	subs	r8, r1, #0, 0
    cc9c:	da000007 	ble	ccc0 <lfn_print+0x30>
    cca0:	e1a06000 	mov	r6, r0
    cca4:	e1a07002 	mov	r7, r2
    cca8:	e1a09003 	mov	r9, r3
    ccac:	e2483001 	sub	r3, r8, #1, 0
    ccb0:	e3530001 	cmp	r3, #1, 0
    ccb4:	8a000009 	bhi	cce0 <lfn_print+0x50>
    ccb8:	e3a04000 	mov	r4, #0, 0
    ccbc:	ea000021 	b	cd48 <lfn_print+0xb8>
    ccc0:	e59f3134 	ldr	r3, [pc, #308]	; cdfc <lfn_print+0x16c>
    ccc4:	e58d3000 	str	r3, [sp]
    ccc8:	e3a0305f 	mov	r3, #95, 0	; 0x5f
    cccc:	e59f212c 	ldr	r2, [pc, #300]	; ce00 <lfn_print+0x170>
    ccd0:	e59f112c 	ldr	r1, [pc, #300]	; ce04 <lfn_print+0x174>
    ccd4:	e59f012c 	ldr	r0, [pc, #300]	; ce08 <lfn_print+0x178>
    ccd8:	eb0009ba 	bl	f3c8 <printk>
    ccdc:	eb000ae9 	bl	f888 <clean_reboot>
    cce0:	e59f3124 	ldr	r3, [pc, #292]	; ce0c <lfn_print+0x17c>
    cce4:	e58d3000 	str	r3, [sp]
    cce8:	e3a03062 	mov	r3, #98, 0	; 0x62
    ccec:	e59f210c 	ldr	r2, [pc, #268]	; ce00 <lfn_print+0x170>
    ccf0:	e59f110c 	ldr	r1, [pc, #268]	; ce04 <lfn_print+0x174>
    ccf4:	e59f0114 	ldr	r0, [pc, #276]	; ce10 <lfn_print+0x180>
    ccf8:	eb0009b2 	bl	f3c8 <printk>
    ccfc:	eb000ae1 	bl	f888 <clean_reboot>
    cd00:	e59f310c 	ldr	r3, [pc, #268]	; ce14 <lfn_print+0x184>
    cd04:	e58d3000 	str	r3, [sp]
    cd08:	e3a03064 	mov	r3, #100, 0	; 0x64
    cd0c:	e59f20ec 	ldr	r2, [pc, #236]	; ce00 <lfn_print+0x170>
    cd10:	e59f10ec 	ldr	r1, [pc, #236]	; ce04 <lfn_print+0x174>
    cd14:	e59f00ec 	ldr	r0, [pc, #236]	; ce08 <lfn_print+0x178>
    cd18:	eb0009aa 	bl	f3c8 <printk>
    cd1c:	eb000ad9 	bl	f888 <clean_reboot>
    cd20:	e1a01004 	mov	r1, r4
    cd24:	e59f00ec 	ldr	r0, [pc, #236]	; ce18 <lfn_print+0x188>
    cd28:	eb0009a6 	bl	f3c8 <printk>
    cd2c:	e1a01007 	mov	r1, r7
    cd30:	e1a00005 	mov	r0, r5
    cd34:	ebffff6d 	bl	caf0 <lfn_print_ent>
    cd38:	e5d5000d 	ldrb	r0, [r5, #13]
    cd3c:	e1500007 	cmp	r0, r7
    cd40:	1a00000a 	bne	cd70 <lfn_print+0xe0>
    cd44:	e2844001 	add	r4, r4, #1, 0
    cd48:	e1540008 	cmp	r4, r8
    cd4c:	aa00000f 	bge	cd90 <lfn_print+0x100>
    cd50:	e0865284 	add	r5, r6, r4, lsl #5
    cd54:	e7d60284 	ldrb	r0, [r6, r4, lsl #5]
    cd58:	ebffff4a 	bl	ca88 <lfn_is_deleted>
    cd5c:	e3500000 	cmp	r0, #0, 0
    cd60:	1affffe6 	bne	cd00 <lfn_print+0x70>
    cd64:	e3590000 	cmp	r9, #0, 0
    cd68:	0afffff2 	beq	cd38 <lfn_print+0xa8>
    cd6c:	eaffffeb 	b	cd20 <lfn_print+0x90>
    cd70:	e59f30a4 	ldr	r3, [pc, #164]	; ce1c <lfn_print+0x18c>
    cd74:	e58d3000 	str	r3, [sp]
    cd78:	e3a03069 	mov	r3, #105, 0	; 0x69
    cd7c:	e59f207c 	ldr	r2, [pc, #124]	; ce00 <lfn_print+0x170>
    cd80:	e59f107c 	ldr	r1, [pc, #124]	; ce04 <lfn_print+0x174>
    cd84:	e59f007c 	ldr	r0, [pc, #124]	; ce08 <lfn_print+0x178>
    cd88:	eb00098e 	bl	f3c8 <printk>
    cd8c:	eb000abd 	bl	f888 <clean_reboot>
    cd90:	e5d60000 	ldrb	r0, [r6]
    cd94:	ebffff33 	bl	ca68 <lfn_is_last>
    cd98:	e3500000 	cmp	r0, #0, 0
    cd9c:	0a000006 	beq	cdbc <lfn_print+0x12c>
    cda0:	e248837e 	sub	r8, r8, #-134217727	; 0xf8000001
    cda4:	e7d60288 	ldrb	r0, [r6, r8, lsl #5]
    cda8:	ebffff31 	bl	ca74 <lfn_is_first>
    cdac:	e3500000 	cmp	r0, #0, 0
    cdb0:	0a000009 	beq	cddc <lfn_print+0x14c>
    cdb4:	e28dd00c 	add	sp, sp, #12, 0
    cdb8:	e8bd83f0 	pop	{r4, r5, r6, r7, r8, r9, pc}
    cdbc:	e59f305c 	ldr	r3, [pc, #92]	; ce20 <lfn_print+0x190>
    cdc0:	e58d3000 	str	r3, [sp]
    cdc4:	e3a0306b 	mov	r3, #107, 0	; 0x6b
    cdc8:	e59f2030 	ldr	r2, [pc, #48]	; ce00 <lfn_print+0x170>
    cdcc:	e59f1030 	ldr	r1, [pc, #48]	; ce04 <lfn_print+0x174>
    cdd0:	e59f0030 	ldr	r0, [pc, #48]	; ce08 <lfn_print+0x178>
    cdd4:	eb00097b 	bl	f3c8 <printk>
    cdd8:	eb000aaa 	bl	f888 <clean_reboot>
    cddc:	e59f3040 	ldr	r3, [pc, #64]	; ce24 <lfn_print+0x194>
    cde0:	e58d3000 	str	r3, [sp]
    cde4:	e3a0306c 	mov	r3, #108, 0	; 0x6c
    cde8:	e59f2010 	ldr	r2, [pc, #16]	; ce00 <lfn_print+0x170>
    cdec:	e59f1010 	ldr	r1, [pc, #16]	; ce04 <lfn_print+0x174>
    cdf0:	e59f0010 	ldr	r0, [pc, #16]	; ce08 <lfn_print+0x178>
    cdf4:	eb000973 	bl	f3c8 <printk>
    cdf8:	eb000aa2 	bl	f888 <clean_reboot>
    cdfc:	0001170c 	.word	0x0001170c
    ce00:	00011914 	.word	0x00011914
    ce04:	00011648 	.word	0x00011648
    ce08:	0000ff5c 	.word	0x0000ff5c
    ce0c:	00011760 	.word	0x00011760
    ce10:	00011718 	.word	0x00011718
    ce14:	00011774 	.word	0x00011774
    ce18:	00011794 	.word	0x00011794
    ce1c:	000117a0 	.word	0x000117a0
    ce20:	000117b4 	.word	0x000117b4
    ce24:	000117cc 	.word	0x000117cc

0000ce28 <fat32_dir_filename>:
    ce28:	e92d41f0 	push	{r4, r5, r6, r7, r8, lr}
    ce2c:	e24dd008 	sub	sp, sp, #8, 0
    ce30:	e1a06000 	mov	r6, r0
    ce34:	e1a05001 	mov	r5, r1
    ce38:	e1a07002 	mov	r7, r2
    ce3c:	e1a00001 	mov	r0, r1
    ce40:	ebfffcb9 	bl	c12c <fat32_dirent_free>
    ce44:	e2504000 	subs	r4, r0, #0, 0
    ce48:	1a000017 	bne	ceac <fat32_dir_filename+0x84>
    ce4c:	e5d5800b 	ldrb	r8, [r5, #11]
    ce50:	e358000f 	cmp	r8, #15, 0
    ce54:	0a00001c 	beq	cecc <fat32_dir_filename+0xa4>
    ce58:	e3a01010 	mov	r1, #16, 0
    ce5c:	e1a00008 	mov	r0, r8
    ce60:	ebfffee9 	bl	ca0c <is_attr>
    ce64:	e3500000 	cmp	r0, #0, 0
    ce68:	1a000009 	bne	ce94 <fat32_dir_filename+0x6c>
    ce6c:	e3a01020 	mov	r1, #32, 0
    ce70:	e1a00008 	mov	r0, r8
    ce74:	ebfffee4 	bl	ca0c <is_attr>
    ce78:	e3500000 	cmp	r0, #0, 0
    ce7c:	1a000004 	bne	ce94 <fat32_dir_filename+0x6c>
    ce80:	e3a01008 	mov	r1, #8, 0
    ce84:	e1a00008 	mov	r0, r8
    ce88:	ebfffedf 	bl	ca0c <is_attr>
    ce8c:	e3500000 	cmp	r0, #0, 0
    ce90:	0a00003c 	beq	cf88 <fat32_dir_filename+0x160>
    ce94:	e5d5300c 	ldrb	r3, [r5, #12]
    ce98:	e3530018 	cmp	r3, #24, 0
    ce9c:	0a000054 	beq	cff4 <fat32_dir_filename+0x1cc>
    cea0:	e1a0c004 	mov	ip, r4
    cea4:	e1a01004 	mov	r1, r4
    cea8:	ea000041 	b	cfb4 <fat32_dir_filename+0x18c>
    ceac:	e59f31b4 	ldr	r3, [pc, #436]	; d068 <fat32_dir_filename+0x240>
    ceb0:	e58d3000 	str	r3, [sp]
    ceb4:	e3a03071 	mov	r3, #113, 0	; 0x71
    ceb8:	e59f21ac 	ldr	r2, [pc, #428]	; d06c <fat32_dir_filename+0x244>
    cebc:	e59f11ac 	ldr	r1, [pc, #428]	; d070 <fat32_dir_filename+0x248>
    cec0:	e59f01ac 	ldr	r0, [pc, #428]	; d074 <fat32_dir_filename+0x24c>
    cec4:	eb00093f 	bl	f3c8 <printk>
    cec8:	eb000a6e 	bl	f888 <clean_reboot>
    cecc:	e0472005 	sub	r2, r7, r5
    ced0:	e1a032c2 	asr	r3, r2, #5
    ced4:	e3a04001 	mov	r4, #1, 0
    ced8:	e1540003 	cmp	r4, r3
    cedc:	aa000004 	bge	cef4 <fat32_dir_filename+0xcc>
    cee0:	e0852284 	add	r2, r5, r4, lsl #5
    cee4:	e5d2200b 	ldrb	r2, [r2, #11]
    cee8:	e352000f 	cmp	r2, #15, 0
    ceec:	02844001 	addeq	r4, r4, #1, 0
    cef0:	0afffff8 	beq	ced8 <fat32_dir_filename+0xb0>
    cef4:	e1540003 	cmp	r4, r3
    cef8:	aa000012 	bge	cf48 <fat32_dir_filename+0x120>
    cefc:	e0857284 	add	r7, r5, r4, lsl #5
    cf00:	e5d7800b 	ldrb	r8, [r7, #11]
    cf04:	e3a01010 	mov	r1, #16, 0
    cf08:	e1a00008 	mov	r0, r8
    cf0c:	ebfffebe 	bl	ca0c <is_attr>
    cf10:	e3500000 	cmp	r0, #0, 0
    cf14:	1a000004 	bne	cf2c <fat32_dir_filename+0x104>
    cf18:	e3a01020 	mov	r1, #32, 0
    cf1c:	e1a00008 	mov	r0, r8
    cf20:	ebfffeb9 	bl	ca0c <is_attr>
    cf24:	e3500000 	cmp	r0, #0, 0
    cf28:	0a00000e 	beq	cf68 <fat32_dir_filename+0x140>
    cf2c:	e1a01004 	mov	r1, r4
    cf30:	e1a00005 	mov	r0, r5
    cf34:	ebffff2b 	bl	cbe8 <lfn_get_name>
    cf38:	e1a01000 	mov	r1, r0
    cf3c:	e1a00006 	mov	r0, r6
    cf40:	eb000a41 	bl	f84c <strcpy>
    cf44:	ea000044 	b	d05c <fat32_dir_filename+0x234>
    cf48:	e59f3128 	ldr	r3, [pc, #296]	; d078 <fat32_dir_filename+0x250>
    cf4c:	e58d3000 	str	r3, [sp]
    cf50:	e3a0307a 	mov	r3, #122, 0	; 0x7a
    cf54:	e59f2110 	ldr	r2, [pc, #272]	; d06c <fat32_dir_filename+0x244>
    cf58:	e59f1110 	ldr	r1, [pc, #272]	; d070 <fat32_dir_filename+0x248>
    cf5c:	e59f0110 	ldr	r0, [pc, #272]	; d074 <fat32_dir_filename+0x24c>
    cf60:	eb000918 	bl	f3c8 <printk>
    cf64:	eb000a47 	bl	f888 <clean_reboot>
    cf68:	e59f310c 	ldr	r3, [pc, #268]	; d07c <fat32_dir_filename+0x254>
    cf6c:	e58d3000 	str	r3, [sp]
    cf70:	e3a0307b 	mov	r3, #123, 0	; 0x7b
    cf74:	e59f20f0 	ldr	r2, [pc, #240]	; d06c <fat32_dir_filename+0x244>
    cf78:	e59f10f0 	ldr	r1, [pc, #240]	; d070 <fat32_dir_filename+0x248>
    cf7c:	e59f00f0 	ldr	r0, [pc, #240]	; d074 <fat32_dir_filename+0x24c>
    cf80:	eb000910 	bl	f3c8 <printk>
    cf84:	eb000a3f 	bl	f888 <clean_reboot>
    cf88:	e59f30f0 	ldr	r3, [pc, #240]	; d080 <fat32_dir_filename+0x258>
    cf8c:	e58d3000 	str	r3, [sp]
    cf90:	e3a0307f 	mov	r3, #127, 0	; 0x7f
    cf94:	e59f20d0 	ldr	r2, [pc, #208]	; d06c <fat32_dir_filename+0x244>
    cf98:	e59f10d0 	ldr	r1, [pc, #208]	; d070 <fat32_dir_filename+0x248>
    cf9c:	e59f00d0 	ldr	r0, [pc, #208]	; d074 <fat32_dir_filename+0x24c>
    cfa0:	eb000908 	bl	f3c8 <printk>
    cfa4:	eb000a37 	bl	f888 <clean_reboot>
    cfa8:	e7c63001 	strb	r3, [r6, r1]
    cfac:	e2811001 	add	r1, r1, #1, 0
    cfb0:	e2844001 	add	r4, r4, #1, 0
    cfb4:	e3540007 	cmp	r4, #7, 0
    cfb8:	ca00000f 	bgt	cffc <fat32_dir_filename+0x1d4>
    cfbc:	e7d53004 	ldrb	r3, [r5, r4]
    cfc0:	e3530020 	cmp	r3, #32, 0
    cfc4:	0afffff9 	beq	cfb0 <fat32_dir_filename+0x188>
    cfc8:	e3530040 	cmp	r3, #64, 0	; 0x40
    cfcc:	93a02000 	movls	r2, #0, 0
    cfd0:	83a02001 	movhi	r2, #1, 0
    cfd4:	e35c0000 	cmp	ip, #0, 0
    cfd8:	03a02000 	moveq	r2, #0, 0
    cfdc:	e3520000 	cmp	r2, #0, 0
    cfe0:	0afffff0 	beq	cfa8 <fat32_dir_filename+0x180>
    cfe4:	e353005a 	cmp	r3, #90, 0	; 0x5a
    cfe8:	92833020 	addls	r3, r3, #32, 0
    cfec:	96ef3073 	uxtbls	r3, r3
    cff0:	eaffffec 	b	cfa8 <fat32_dir_filename+0x180>
    cff4:	e3a0c001 	mov	ip, #1, 0
    cff8:	eaffffa9 	b	cea4 <fat32_dir_filename+0x7c>
    cffc:	e2810001 	add	r0, r1, #1, 0
    d000:	e3a0302e 	mov	r3, #46, 0	; 0x2e
    d004:	e7c63001 	strb	r3, [r6, r1]
    d008:	ea000002 	b	d018 <fat32_dir_filename+0x1f0>
    d00c:	e7c63000 	strb	r3, [r6, r0]
    d010:	e2844001 	add	r4, r4, #1, 0
    d014:	e2800001 	add	r0, r0, #1, 0
    d018:	e354000a 	cmp	r4, #10, 0
    d01c:	ca00000b 	bgt	d050 <fat32_dir_filename+0x228>
    d020:	e7d53004 	ldrb	r3, [r5, r4]
    d024:	e3530040 	cmp	r3, #64, 0	; 0x40
    d028:	93a02000 	movls	r2, #0, 0
    d02c:	83a02001 	movhi	r2, #1, 0
    d030:	e35c0000 	cmp	ip, #0, 0
    d034:	03a02000 	moveq	r2, #0, 0
    d038:	e3520000 	cmp	r2, #0, 0
    d03c:	0afffff2 	beq	d00c <fat32_dir_filename+0x1e4>
    d040:	e353005a 	cmp	r3, #90, 0	; 0x5a
    d044:	92833020 	addls	r3, r3, #32, 0
    d048:	96ef3073 	uxtbls	r3, r3
    d04c:	eaffffee 	b	d00c <fat32_dir_filename+0x1e4>
    d050:	e3a03000 	mov	r3, #0, 0
    d054:	e7c63000 	strb	r3, [r6, r0]
    d058:	e1a07005 	mov	r7, r5
    d05c:	e1a00007 	mov	r0, r7
    d060:	e28dd008 	add	sp, sp, #8, 0
    d064:	e8bd81f0 	pop	{r4, r5, r6, r7, r8, pc}
    d068:	000117ec 	.word	0x000117ec
    d06c:	00011920 	.word	0x00011920
    d070:	00011648 	.word	0x00011648
    d074:	0000ff5c 	.word	0x0000ff5c
    d078:	00011804 	.word	0x00011804
    d07c:	0001180c 	.word	0x0001180c
    d080:	00011854 	.word	0x00011854

0000d084 <fat32_lfn_print>:
    d084:	e92d40f0 	push	{r4, r5, r6, r7, lr}
    d088:	e24dd00c 	sub	sp, sp, #12, 0
    d08c:	e1a05001 	mov	r5, r1
    d090:	e5d1300b 	ldrb	r3, [r1, #11]
    d094:	e353000f 	cmp	r3, #15, 0
    d098:	0a000004 	beq	d0b0 <fat32_lfn_print+0x2c>
    d09c:	ebfffdb8 	bl	c784 <fat32_dirent_print>
    d0a0:	e3a04001 	mov	r4, #1, 0
    d0a4:	e1a00004 	mov	r0, r4
    d0a8:	e28dd00c 	add	sp, sp, #12, 0
    d0ac:	e8bd80f0 	pop	{r4, r5, r6, r7, pc}
    d0b0:	e1a06002 	mov	r6, r2
    d0b4:	e1a01000 	mov	r1, r0
    d0b8:	e59f00e4 	ldr	r0, [pc, #228]	; d1a4 <fat32_lfn_print+0x120>
    d0bc:	eb0008c1 	bl	f3c8 <printk>
    d0c0:	e3a04000 	mov	r4, #0, 0
    d0c4:	e1540006 	cmp	r4, r6
    d0c8:	aa000004 	bge	d0e0 <fat32_lfn_print+0x5c>
    d0cc:	e0853284 	add	r3, r5, r4, lsl #5
    d0d0:	e5d3300b 	ldrb	r3, [r3, #11]
    d0d4:	e353000f 	cmp	r3, #15, 0
    d0d8:	02844001 	addeq	r4, r4, #1, 0
    d0dc:	0afffff8 	beq	d0c4 <fat32_lfn_print+0x40>
    d0e0:	e1540006 	cmp	r4, r6
    d0e4:	aa00001e 	bge	d164 <fat32_lfn_print+0xe0>
    d0e8:	e0856284 	add	r6, r5, r4, lsl #5
    d0ec:	e5d6700b 	ldrb	r7, [r6, #11]
    d0f0:	e3a01010 	mov	r1, #16, 0
    d0f4:	e1a00007 	mov	r0, r7
    d0f8:	ebfffe43 	bl	ca0c <is_attr>
    d0fc:	e3500000 	cmp	r0, #0, 0
    d100:	1a000004 	bne	d118 <fat32_lfn_print+0x94>
    d104:	e3a01020 	mov	r1, #32, 0
    d108:	e1a00007 	mov	r0, r7
    d10c:	ebfffe3e 	bl	ca0c <is_attr>
    d110:	e3500000 	cmp	r0, #0, 0
    d114:	0a00001a 	beq	d184 <fat32_lfn_print+0x100>
    d118:	e59f0088 	ldr	r0, [pc, #136]	; d1a8 <fat32_lfn_print+0x124>
    d11c:	eb0008a9 	bl	f3c8 <printk>
    d120:	e1a00006 	mov	r0, r6
    d124:	ebfffe42 	bl	ca34 <lfn_checksum>
    d128:	e1a02000 	mov	r2, r0
    d12c:	e3a03000 	mov	r3, #0, 0
    d130:	e1a01004 	mov	r1, r4
    d134:	e1a00005 	mov	r0, r5
    d138:	ebfffed4 	bl	cc90 <lfn_print>
    d13c:	e1a01004 	mov	r1, r4
    d140:	e1a00005 	mov	r0, r5
    d144:	ebfffea7 	bl	cbe8 <lfn_get_name>
    d148:	e1a01000 	mov	r1, r0
    d14c:	e59f0058 	ldr	r0, [pc, #88]	; d1ac <fat32_lfn_print+0x128>
    d150:	eb00089c 	bl	f3c8 <printk>
    d154:	e2844001 	add	r4, r4, #1, 0
    d158:	e1a00006 	mov	r0, r6
    d15c:	ebfffcf5 	bl	c538 <fat32_dirent_print_helper>
    d160:	eaffffcf 	b	d0a4 <fat32_lfn_print+0x20>
    d164:	e59f3044 	ldr	r3, [pc, #68]	; d1b0 <fat32_lfn_print+0x12c>
    d168:	e58d3000 	str	r3, [sp]
    d16c:	e3a030ac 	mov	r3, #172, 0	; 0xac
    d170:	e59f203c 	ldr	r2, [pc, #60]	; d1b4 <fat32_lfn_print+0x130>
    d174:	e59f103c 	ldr	r1, [pc, #60]	; d1b8 <fat32_lfn_print+0x134>
    d178:	e59f003c 	ldr	r0, [pc, #60]	; d1bc <fat32_lfn_print+0x138>
    d17c:	eb000891 	bl	f3c8 <printk>
    d180:	eb0009c0 	bl	f888 <clean_reboot>
    d184:	e59f3034 	ldr	r3, [pc, #52]	; d1c0 <fat32_lfn_print+0x13c>
    d188:	e58d3000 	str	r3, [sp]
    d18c:	e3a030ad 	mov	r3, #173, 0	; 0xad
    d190:	e59f201c 	ldr	r2, [pc, #28]	; d1b4 <fat32_lfn_print+0x130>
    d194:	e59f101c 	ldr	r1, [pc, #28]	; d1b8 <fat32_lfn_print+0x134>
    d198:	e59f001c 	ldr	r0, [pc, #28]	; d1bc <fat32_lfn_print+0x138>
    d19c:	eb000889 	bl	f3c8 <printk>
    d1a0:	eb0009b8 	bl	f888 <clean_reboot>
    d1a4:	00011598 	.word	0x00011598
    d1a8:	000128b0 	.word	0x000128b0
    d1ac:	000118b8 	.word	0x000118b8
    d1b0:	000118ac 	.word	0x000118ac
    d1b4:	00011934 	.word	0x00011934
    d1b8:	00011648 	.word	0x00011648
    d1bc:	0000ff5c 	.word	0x0000ff5c
    d1c0:	0001180c 	.word	0x0001180c

0000d1c4 <codepoint_len>:
    d1c4:	e1a0c000 	mov	ip, r0
    d1c8:	e59f2040 	ldr	r2, [pc, #64]	; d210 <codepoint_len+0x4c>
    d1cc:	e3a00000 	mov	r0, #0, 0
    d1d0:	ea000001 	b	d1dc <codepoint_len+0x18>
    d1d4:	e2800001 	add	r0, r0, #1, 0
    d1d8:	e2822004 	add	r2, r2, #4, 0
    d1dc:	e5923000 	ldr	r3, [r2]
    d1e0:	e3530000 	cmp	r3, #0, 0
    d1e4:	0a000005 	beq	d200 <codepoint_len+0x3c>
    d1e8:	e5931004 	ldr	r1, [r3, #4]
    d1ec:	e151000c 	cmp	r1, ip
    d1f0:	8afffff7 	bhi	d1d4 <codepoint_len+0x10>
    d1f4:	e5933008 	ldr	r3, [r3, #8]
    d1f8:	e153000c 	cmp	r3, ip
    d1fc:	3afffff4 	bcc	d1d4 <codepoint_len+0x10>
    d200:	e3500004 	cmp	r0, #4, 0
    d204:	d12fff1e 	bxle	lr
    d208:	e3e00000 	mvn	r0, #0, 0
    d20c:	e12fff1e 	bx	lr
    d210:	000129a8 	.word	0x000129a8

0000d214 <utf8_len>:
    d214:	e1a0c000 	mov	ip, r0
    d218:	e59f1038 	ldr	r1, [pc, #56]	; d258 <utf8_len+0x44>
    d21c:	e3a00000 	mov	r0, #0, 0
    d220:	e5913000 	ldr	r3, [r1]
    d224:	e3530000 	cmp	r3, #0, 0
    d228:	0a000006 	beq	d248 <utf8_len+0x34>
    d22c:	e5d32000 	ldrb	r2, [r3]
    d230:	e1cc2002 	bic	r2, ip, r2
    d234:	e5d33001 	ldrb	r3, [r3, #1]
    d238:	e1520003 	cmp	r2, r3
    d23c:	12800001 	addne	r0, r0, #1, 0
    d240:	12811004 	addne	r1, r1, #4, 0
    d244:	1afffff5 	bne	d220 <utf8_len+0xc>
    d248:	e3500004 	cmp	r0, #4, 0
    d24c:	d12fff1e 	bxle	lr
    d250:	e3e00000 	mvn	r0, #0, 0
    d254:	e12fff1e 	bx	lr
    d258:	000129a8 	.word	0x000129a8

0000d25c <to_utf8>:
    d25c:	e92d4070 	push	{r4, r5, r6, lr}
    d260:	e1a04000 	mov	r4, r0
    d264:	ebffffd6 	bl	d1c4 <codepoint_len>
    d268:	e250c000 	subs	ip, r0, #0, 0
    d26c:	ba00001c 	blt	d2e4 <to_utf8+0x88>
    d270:	e59f3074 	ldr	r3, [pc, #116]	; d2ec <to_utf8+0x90>
    d274:	e5930000 	ldr	r0, [r3]
    d278:	e590500c 	ldr	r5, [r0, #12]
    d27c:	e24c1001 	sub	r1, ip, #1, 0
    d280:	e0010591 	mul	r1, r1, r5
    d284:	e793210c 	ldr	r2, [r3, ip, lsl #2]
    d288:	e5d23000 	ldrb	r3, [r2]
    d28c:	e0033134 	and	r3, r3, r4, lsr r1
    d290:	e5d22001 	ldrb	r2, [r2, #1]
    d294:	e1833002 	orr	r3, r3, r2
    d298:	e59f2050 	ldr	r2, [pc, #80]	; d2f0 <to_utf8+0x94>
    d29c:	e5c23000 	strb	r3, [r2]
    d2a0:	e0411005 	sub	r1, r1, r5
    d2a4:	e3a02001 	mov	r2, #1, 0
    d2a8:	ea000007 	b	d2cc <to_utf8+0x70>
    d2ac:	e5d03000 	ldrb	r3, [r0]
    d2b0:	e0033134 	and	r3, r3, r4, lsr r1
    d2b4:	e5d0e001 	ldrb	lr, [r0, #1]
    d2b8:	e183300e 	orr	r3, r3, lr
    d2bc:	e59fe02c 	ldr	lr, [pc, #44]	; d2f0 <to_utf8+0x94>
    d2c0:	e7ce3002 	strb	r3, [lr, r2]
    d2c4:	e0411005 	sub	r1, r1, r5
    d2c8:	e2822001 	add	r2, r2, #1, 0
    d2cc:	e152000c 	cmp	r2, ip
    d2d0:	bafffff5 	blt	d2ac <to_utf8+0x50>
    d2d4:	e59f0014 	ldr	r0, [pc, #20]	; d2f0 <to_utf8+0x94>
    d2d8:	e3a03000 	mov	r3, #0, 0
    d2dc:	e7c0300c 	strb	r3, [r0, ip]
    d2e0:	e8bd8070 	pop	{r4, r5, r6, pc}
    d2e4:	e3a00000 	mov	r0, #0, 0
    d2e8:	e8bd8070 	pop	{r4, r5, r6, pc}
    d2ec:	000129a8 	.word	0x000129a8
    d2f0:	000134c8 	.word	0x000134c8

0000d2f4 <to_cp>:
    d2f4:	e92d41f0 	push	{r4, r5, r6, r7, r8, lr}
    d2f8:	e1a05000 	mov	r5, r0
    d2fc:	e5d04000 	ldrb	r4, [r0]
    d300:	e1a00004 	mov	r0, r4
    d304:	ebffffc2 	bl	d214 <utf8_len>
    d308:	e2506000 	subs	r6, r0, #0, 0
    d30c:	ba000013 	blt	d360 <to_cp+0x6c>
    d310:	e59f3050 	ldr	r3, [pc, #80]	; d368 <to_cp+0x74>
    d314:	e5938000 	ldr	r8, [r3]
    d318:	e598700c 	ldr	r7, [r8, #12]
    d31c:	e2462001 	sub	r2, r6, #1, 0
    d320:	e0020792 	mul	r2, r2, r7
    d324:	e285c001 	add	ip, r5, #1, 0
    d328:	e7933106 	ldr	r3, [r3, r6, lsl #2]
    d32c:	e5d30000 	ldrb	r0, [r3]
    d330:	e0000004 	and	r0, r0, r4
    d334:	e1a00210 	lsl	r0, r0, r2
    d338:	e3a01001 	mov	r1, #1, 0
    d33c:	e1510006 	cmp	r1, r6
    d340:	a8bd81f0 	popge	{r4, r5, r6, r7, r8, pc}
    d344:	e0422007 	sub	r2, r2, r7
    d348:	e4dc3001 	ldrb	r3, [ip], #1
    d34c:	e5d8e000 	ldrb	lr, [r8]
    d350:	e003300e 	and	r3, r3, lr
    d354:	e1800213 	orr	r0, r0, r3, lsl r2
    d358:	e2811001 	add	r1, r1, #1, 0
    d35c:	eafffff6 	b	d33c <to_cp+0x48>
    d360:	e3a00000 	mov	r0, #0, 0
    d364:	e8bd81f0 	pop	{r4, r5, r6, r7, r8, pc}
    d368:	000129a8 	.word	0x000129a8

0000d36c <test_main>:
    d36c:	e92d4070 	push	{r4, r5, r6, lr}
    d370:	e24dd028 	sub	sp, sp, #40, 0	; 0x28
    d374:	e28dc008 	add	ip, sp, #8, 0
    d378:	e59fe0b0 	ldr	lr, [pc, #176]	; d430 <test_main+0xc4>
    d37c:	e8be000f 	ldm	lr!, {r0, r1, r2, r3}
    d380:	e8ac000f 	stmia	ip!, {r0, r1, r2, r3}
    d384:	e89e000f 	ldm	lr, {r0, r1, r2, r3}
    d388:	e88c000f 	stm	ip, {r0, r1, r2, r3}
    d38c:	e59f00a0 	ldr	r0, [pc, #160]	; d434 <test_main+0xc8>
    d390:	eb00080c 	bl	f3c8 <printk>
    d394:	e59f009c 	ldr	r0, [pc, #156]	; d438 <test_main+0xcc>
    d398:	eb00080a 	bl	f3c8 <printk>
    d39c:	e28d6008 	add	r6, sp, #8, 0
    d3a0:	ea000012 	b	d3f0 <test_main+0x84>
    d3a4:	e59f3090 	ldr	r3, [pc, #144]	; d43c <test_main+0xd0>
    d3a8:	e58d3000 	str	r3, [sp]
    d3ac:	e3a0306c 	mov	r3, #108, 0	; 0x6c
    d3b0:	e59f2088 	ldr	r2, [pc, #136]	; d440 <test_main+0xd4>
    d3b4:	e59f1088 	ldr	r1, [pc, #136]	; d444 <test_main+0xd8>
    d3b8:	e59f0088 	ldr	r0, [pc, #136]	; d448 <test_main+0xdc>
    d3bc:	eb000801 	bl	f3c8 <printk>
    d3c0:	eb000930 	bl	f888 <clean_reboot>
    d3c4:	e59f0080 	ldr	r0, [pc, #128]	; d44c <test_main+0xe0>
    d3c8:	eb0007fe 	bl	f3c8 <printk>
    d3cc:	e2844001 	add	r4, r4, #1, 0
    d3d0:	e7d51004 	ldrb	r1, [r5, r4]
    d3d4:	e3510000 	cmp	r1, #0, 0
    d3d8:	0a000001 	beq	d3e4 <test_main+0x78>
    d3dc:	e3540003 	cmp	r4, #3, 0
    d3e0:	dafffff7 	ble	d3c4 <test_main+0x58>
    d3e4:	e59f0064 	ldr	r0, [pc, #100]	; d450 <test_main+0xe4>
    d3e8:	eb0007f6 	bl	f3c8 <printk>
    d3ec:	e2866004 	add	r6, r6, #4, 0
    d3f0:	e5960000 	ldr	r0, [r6]
    d3f4:	e3500000 	cmp	r0, #0, 0
    d3f8:	0a00000a 	beq	d428 <test_main+0xbc>
    d3fc:	ebffff96 	bl	d25c <to_utf8>
    d400:	e2505000 	subs	r5, r0, #0, 0
    d404:	0affffe6 	beq	d3a4 <test_main+0x38>
    d408:	e1a00005 	mov	r0, r5
    d40c:	ebffffb8 	bl	d2f4 <to_cp>
    d410:	e1a02000 	mov	r2, r0
    d414:	e1a01005 	mov	r1, r5
    d418:	e59f0034 	ldr	r0, [pc, #52]	; d454 <test_main+0xe8>
    d41c:	eb0007e9 	bl	f3c8 <printk>
    d420:	e3a04000 	mov	r4, #0, 0
    d424:	eaffffe9 	b	d3d0 <test_main+0x64>
    d428:	e28dd028 	add	sp, sp, #40, 0	; 0x28
    d42c:	e8bd8070 	pop	{r4, r5, r6, pc}
    d430:	000119d8 	.word	0x000119d8
    d434:	00011944 	.word	0x00011944
    d438:	00011970 	.word	0x00011970
    d43c:	000119bc 	.word	0x000119bc
    d440:	000119f8 	.word	0x000119f8
    d444:	0001199c 	.word	0x0001199c
    d448:	0000ff5c 	.word	0x0000ff5c
    d44c:	00011514 	.word	0x00011514
    d450:	000128b0 	.word	0x000128b0
    d454:	000119c4 	.word	0x000119c4

0000d458 <get_clock_divider>:
    d458:	e59f30ac 	ldr	r3, [pc, #172]	; d50c <get_clock_divider+0xb4>
    d45c:	e1500003 	cmp	r0, r3
    d460:	9a000007 	bls	d484 <get_clock_divider+0x2c>
    d464:	e59f20a4 	ldr	r2, [pc, #164]	; d510 <get_clock_divider+0xb8>
    d468:	e0823092 	umull	r3, r2, r2, r0
    d46c:	e1a02c22 	lsr	r2, r2, #24
    d470:	e59f309c 	ldr	r3, [pc, #156]	; d514 <get_clock_divider+0xbc>
    d474:	e0030293 	mul	r3, r3, r2
    d478:	e1500003 	cmp	r0, r3
    d47c:	13a02000 	movne	r2, #0, 0
    d480:	ea000000 	b	d488 <get_clock_divider+0x30>
    d484:	e3a02001 	mov	r2, #1, 0
    d488:	e3a0001f 	mov	r0, #31, 0
    d48c:	e3500000 	cmp	r0, #0, 0
    d490:	ba000007 	blt	d4b4 <get_clock_divider+0x5c>
    d494:	e3a03001 	mov	r3, #1, 0
    d498:	e1a03013 	lsl	r3, r3, r0
    d49c:	e1120003 	tst	r2, r3
    d4a0:	02400001 	subeq	r0, r0, #1, 0
    d4a4:	0afffff8 	beq	d48c <get_clock_divider+0x34>
    d4a8:	e1d23003 	bics	r3, r2, r3
    d4ac:	12800001 	addne	r0, r0, #1, 0
    d4b0:	ea000000 	b	d4b8 <get_clock_divider+0x60>
    d4b4:	e3e00000 	mvn	r0, #0, 0
    d4b8:	e3700001 	cmn	r0, #1, 0
    d4bc:	0a000003 	beq	d4d0 <get_clock_divider+0x78>
    d4c0:	e350001f 	cmp	r0, #31, 0
    d4c4:	da000002 	ble	d4d4 <get_clock_divider+0x7c>
    d4c8:	e3a0001f 	mov	r0, #31, 0
    d4cc:	ea000002 	b	d4dc <get_clock_divider+0x84>
    d4d0:	e3a0001f 	mov	r0, #31, 0
    d4d4:	e3500000 	cmp	r0, #0, 0
    d4d8:	0a000002 	beq	d4e8 <get_clock_divider+0x90>
    d4dc:	e2400001 	sub	r0, r0, #1, 0
    d4e0:	e3a03001 	mov	r3, #1, 0
    d4e4:	e1a00013 	lsl	r0, r3, r0
    d4e8:	e3500b01 	cmp	r0, #1024	; 0x400
    d4ec:	a59f0024 	ldrge	r0, [pc, #36]	; d518 <get_clock_divider+0xc0>
    d4f0:	e1a03440 	asr	r3, r0, #8
    d4f4:	e1a00400 	lsl	r0, r0, #8
    d4f8:	e6ff0070 	uxth	r0, r0
    d4fc:	e1a03303 	lsl	r3, r3, #6
    d500:	e6ef3073 	uxtb	r3, r3
    d504:	e1800003 	orr	r0, r0, r3
    d508:	e12fff1e 	bx	lr
    d50c:	02faf07f 	.word	0x02faf07f
    d510:	55e63b89 	.word	0x55e63b89
    d514:	02faf080 	.word	0x02faf080
    d518:	000003ff 	.word	0x000003ff

0000d51c <sd_error_mask>:
    d51c:	e2800010 	add	r0, r0, #16, 0
    d520:	e3a03001 	mov	r3, #1, 0
    d524:	e1a00013 	lsl	r0, r3, r0
    d528:	e12fff1e 	bx	lr

0000d52c <set_last_error>:
    d52c:	e1a03820 	lsr	r3, r0, #16
    d530:	e1a03803 	lsl	r3, r3, #16
    d534:	e59f2008 	ldr	r2, [pc, #8]	; d544 <set_last_error+0x18>
    d538:	e5823040 	str	r3, [r2, #64]	; 0x40
    d53c:	e5820044 	str	r0, [r2, #68]	; 0x44
    d540:	e12fff1e 	bx	lr
    d544:	000134e0 	.word	0x000134e0

0000d548 <reset_command>:
    d548:	e92d4010 	push	{r4, lr}
    d54c:	e59f2058 	ldr	r2, [pc, #88]	; d5ac <reset_command+0x64>
    d550:	e592302c 	ldr	r3, [r2, #44]	; 0x2c
    d554:	e3833402 	orr	r3, r3, #33554432	; 0x2000000
    d558:	e582302c 	str	r3, [r2, #44]	; 0x2c
    d55c:	e3a04000 	mov	r4, #0, 0
    d560:	ea000002 	b	d570 <reset_command+0x28>
    d564:	e3a00001 	mov	r0, #1, 0
    d568:	eb00092a 	bl	fa18 <delay_ms>
    d56c:	e2844001 	add	r4, r4, #1, 0
    d570:	e59f3038 	ldr	r3, [pc, #56]	; d5b0 <reset_command+0x68>
    d574:	e1540003 	cmp	r4, r3
    d578:	ca000005 	bgt	d594 <reset_command+0x4c>
    d57c:	e59f3028 	ldr	r3, [pc, #40]	; d5ac <reset_command+0x64>
    d580:	e593302c 	ldr	r3, [r3, #44]	; 0x2c
    d584:	e3130402 	tst	r3, #33554432	; 0x2000000
    d588:	1afffff5 	bne	d564 <reset_command+0x1c>
    d58c:	e3a00001 	mov	r0, #1, 0
    d590:	e8bd8010 	pop	{r4, pc}
    d594:	e59f3010 	ldr	r3, [pc, #16]	; d5ac <reset_command+0x64>
    d598:	e593102c 	ldr	r1, [r3, #44]	; 0x2c
    d59c:	e59f0010 	ldr	r0, [pc, #16]	; d5b4 <reset_command+0x6c>
    d5a0:	eb000788 	bl	f3c8 <printk>
    d5a4:	e3a00000 	mov	r0, #0, 0
    d5a8:	e8bd8010 	pop	{r4, pc}
    d5ac:	20300000 	.word	0x20300000
    d5b0:	0000270f 	.word	0x0000270f
    d5b4:	00011a04 	.word	0x00011a04

0000d5b8 <wait_reg_mask>:
    d5b8:	e92d41f0 	push	{r4, r5, r6, r7, r8, lr}
    d5bc:	e1a07000 	mov	r7, r0
    d5c0:	e1a06001 	mov	r6, r1
    d5c4:	e1a08002 	mov	r8, r2
    d5c8:	e1a05003 	mov	r5, r3
    d5cc:	e3a04000 	mov	r4, #0, 0
    d5d0:	ea000005 	b	d5ec <wait_reg_mask+0x34>
    d5d4:	e1a00008 	mov	r0, r8
    d5d8:	e3500000 	cmp	r0, #0, 0
    d5dc:	18bd81f0 	popne	{r4, r5, r6, r7, r8, pc}
    d5e0:	e3a00064 	mov	r0, #100, 0	; 0x64
    d5e4:	eb000902 	bl	f9f4 <delay_us>
    d5e8:	e2844001 	add	r4, r4, #1, 0
    d5ec:	e0853105 	add	r3, r5, r5, lsl #2
    d5f0:	e1540083 	cmp	r4, r3, lsl #1
    d5f4:	8a000004 	bhi	d60c <wait_reg_mask+0x54>
    d5f8:	e5973000 	ldr	r3, [r7]
    d5fc:	e1130006 	tst	r3, r6
    d600:	1afffff3 	bne	d5d4 <wait_reg_mask+0x1c>
    d604:	e2280001 	eor	r0, r8, #1, 0
    d608:	eafffff2 	b	d5d8 <wait_reg_mask+0x20>
    d60c:	e3a00000 	mov	r0, #0, 0
    d610:	e8bd81f0 	pop	{r4, r5, r6, r7, r8, pc}

0000d614 <do_data_transfer>:
    d614:	e92d41f0 	push	{r4, r5, r6, r7, r8, lr}
    d618:	e24dd008 	sub	sp, sp, #8, 0
    d61c:	e58d0004 	str	r0, [sp, #4]
    d620:	e3100010 	tst	r0, #16, 0
    d624:	0a000005 	beq	d640 <do_data_transfer+0x2c>
    d628:	e3a07000 	mov	r7, #0, 0
    d62c:	e3a05020 	mov	r5, #32, 0
    d630:	e59f30c0 	ldr	r3, [pc, #192]	; d6f8 <do_data_transfer+0xe4>
    d634:	e5934038 	ldr	r4, [r3, #56]	; 0x38
    d638:	e3a06000 	mov	r6, #0, 0
    d63c:	ea00000c 	b	d674 <do_data_transfer+0x60>
    d640:	e3a07001 	mov	r7, #1, 0
    d644:	e3a05010 	mov	r5, #16, 0
    d648:	eafffff8 	b	d630 <do_data_transfer+0x1c>
    d64c:	ebffffb6 	bl	d52c <set_last_error>
    d650:	e3a00000 	mov	r0, #0, 0
    d654:	ea000025 	b	d6f0 <do_data_transfer+0xdc>
    d658:	e4941004 	ldr	r1, [r4], #4
    d65c:	e59f2098 	ldr	r2, [pc, #152]	; d6fc <do_data_transfer+0xe8>
    d660:	e5821020 	str	r1, [r2, #32]
    d664:	e2433004 	sub	r3, r3, #4, 0
    d668:	e3530000 	cmp	r3, #0, 0
    d66c:	1afffff9 	bne	d658 <do_data_transfer+0x44>
    d670:	e2866001 	add	r6, r6, #1, 0
    d674:	e59f307c 	ldr	r3, [pc, #124]	; d6f8 <do_data_transfer+0xe4>
    d678:	e5933004 	ldr	r3, [r3, #4]
    d67c:	e1530006 	cmp	r3, r6
    d680:	9a000019 	bls	d6ec <do_data_transfer+0xd8>
    d684:	e3858902 	orr	r8, r5, #32768	; 0x8000
    d688:	e3a03e7d 	mov	r3, #2000	; 0x7d0
    d68c:	e3a02001 	mov	r2, #1, 0
    d690:	e1a01008 	mov	r1, r8
    d694:	e59f0064 	ldr	r0, [pc, #100]	; d700 <do_data_transfer+0xec>
    d698:	ebffffc6 	bl	d5b8 <wait_reg_mask>
    d69c:	e59f3058 	ldr	r3, [pc, #88]	; d6fc <do_data_transfer+0xe8>
    d6a0:	e5930030 	ldr	r0, [r3, #48]	; 0x30
    d6a4:	e5838030 	str	r8, [r3, #48]	; 0x30
    d6a8:	e1e03805 	mvn	r3, r5, lsl #16
    d6ac:	e1e03823 	mvn	r3, r3, lsr #16
    d6b0:	e0033000 	and	r3, r3, r0
    d6b4:	e1530005 	cmp	r3, r5
    d6b8:	1affffe3 	bne	d64c <do_data_transfer+0x38>
    d6bc:	e59f3034 	ldr	r3, [pc, #52]	; d6f8 <do_data_transfer+0xe4>
    d6c0:	e5933010 	ldr	r3, [r3, #16]
    d6c4:	e3570000 	cmp	r7, #0, 0
    d6c8:	1affffe6 	bne	d668 <do_data_transfer+0x54>
    d6cc:	ea000003 	b	d6e0 <do_data_transfer+0xcc>
    d6d0:	e59f2024 	ldr	r2, [pc, #36]	; d6fc <do_data_transfer+0xe8>
    d6d4:	e5922020 	ldr	r2, [r2, #32]
    d6d8:	e4842004 	str	r2, [r4], #4
    d6dc:	e2433004 	sub	r3, r3, #4, 0
    d6e0:	e3530000 	cmp	r3, #0, 0
    d6e4:	1afffff9 	bne	d6d0 <do_data_transfer+0xbc>
    d6e8:	eaffffe0 	b	d670 <do_data_transfer+0x5c>
    d6ec:	e3a00001 	mov	r0, #1, 0
    d6f0:	e28dd008 	add	sp, sp, #8, 0
    d6f4:	e8bd81f0 	pop	{r4, r5, r6, r7, r8, pc}
    d6f8:	000134e0 	.word	0x000134e0
    d6fc:	20300000 	.word	0x20300000
    d700:	20300030 	.word	0x20300030

0000d704 <emmc_issue_command>:
    d704:	e92d4030 	push	{r4, r5, lr}
    d708:	e24dd014 	sub	sp, sp, #20, 0
    d70c:	e58d0004 	str	r0, [sp, #4]
    d710:	e1a05002 	mov	r5, r2
    d714:	e59d2004 	ldr	r2, [sp, #4]
    d718:	e59f31c8 	ldr	r3, [pc, #456]	; d8e8 <emmc_issue_command+0x1e4>
    d71c:	e583200c 	str	r2, [r3, #12]
    d720:	e593200c 	ldr	r2, [r3, #12]
    d724:	e58d200c 	str	r2, [sp, #12]
    d728:	e5932004 	ldr	r2, [r3, #4]
    d72c:	e3520801 	cmp	r2, #65536	; 0x10000
    d730:	2a000014 	bcs	d788 <emmc_issue_command+0x84>
    d734:	e59f31ac 	ldr	r3, [pc, #428]	; d8e8 <emmc_issue_command+0x1e4>
    d738:	e5933010 	ldr	r3, [r3, #16]
    d73c:	e1832802 	orr	r2, r3, r2, lsl #16
    d740:	e59f31a4 	ldr	r3, [pc, #420]	; d8ec <emmc_issue_command+0x1e8>
    d744:	e5832004 	str	r2, [r3, #4]
    d748:	e5831008 	str	r1, [r3, #8]
    d74c:	e59d200c 	ldr	r2, [sp, #12]
    d750:	e583200c 	str	r2, [r3, #12]
    d754:	e3a04000 	mov	r4, #0, 0
    d758:	e1a02004 	mov	r2, r4
    d75c:	e1540005 	cmp	r4, r5
    d760:	2a00000d 	bcs	d79c <emmc_issue_command+0x98>
    d764:	e59f3180 	ldr	r3, [pc, #384]	; d8ec <emmc_issue_command+0x1e8>
    d768:	e5931030 	ldr	r1, [r3, #48]	; 0x30
    d76c:	e59f317c 	ldr	r3, [pc, #380]	; d8f0 <emmc_issue_command+0x1ec>
    d770:	e1110003 	tst	r1, r3
    d774:	1a000008 	bne	d79c <emmc_issue_command+0x98>
    d778:	e3a00001 	mov	r0, #1, 0
    d77c:	eb0008a5 	bl	fa18 <delay_ms>
    d780:	e2844001 	add	r4, r4, #1, 0
    d784:	eafffff3 	b	d758 <emmc_issue_command+0x54>
    d788:	e1a01002 	mov	r1, r2
    d78c:	e59f0160 	ldr	r0, [pc, #352]	; d8f4 <emmc_issue_command+0x1f0>
    d790:	eb00070c 	bl	f3c8 <printk>
    d794:	e3a00000 	mov	r0, #0, 0
    d798:	ea000034 	b	d870 <emmc_issue_command+0x16c>
    d79c:	e1520005 	cmp	r2, r5
    d7a0:	2a000034 	bcs	d878 <emmc_issue_command+0x174>
    d7a4:	e59f3140 	ldr	r3, [pc, #320]	; d8ec <emmc_issue_command+0x1e8>
    d7a8:	e5930030 	ldr	r0, [r3, #48]	; 0x30
    d7ac:	e59f2144 	ldr	r2, [pc, #324]	; d8f8 <emmc_issue_command+0x1f4>
    d7b0:	e5832030 	str	r2, [r3, #48]	; 0x30
    d7b4:	e3c03cff 	bic	r3, r0, #65280	; 0xff00
    d7b8:	e3c330fe 	bic	r3, r3, #254, 0	; 0xfe
    d7bc:	e3530001 	cmp	r3, #1, 0
    d7c0:	1a000032 	bne	d890 <emmc_issue_command+0x18c>
    d7c4:	e5dd3006 	ldrb	r3, [sp, #6]
    d7c8:	e2033003 	and	r3, r3, #3, 0
    d7cc:	e3530001 	cmp	r3, #1, 0
    d7d0:	0a000033 	beq	d8a4 <emmc_issue_command+0x1a0>
    d7d4:	e6af2073 	sxtb	r2, r3
    d7d8:	e3520000 	cmp	r2, #0, 0
    d7dc:	0a000006 	beq	d7fc <emmc_issue_command+0xf8>
    d7e0:	e2833002 	add	r3, r3, #2, 0
    d7e4:	e2033003 	and	r3, r3, #3, 0
    d7e8:	e3530001 	cmp	r3, #1, 0
    d7ec:	959f30f8 	ldrls	r3, [pc, #248]	; d8ec <emmc_issue_command+0x1e8>
    d7f0:	95932010 	ldrls	r2, [r3, #16]
    d7f4:	959f30ec 	ldrls	r3, [pc, #236]	; d8e8 <emmc_issue_command+0x1e4>
    d7f8:	95832014 	strls	r2, [r3, #20]
    d7fc:	e5dd4006 	ldrb	r4, [sp, #6]
    d800:	e2145020 	ands	r5, r4, #32, 0
    d804:	1a000031 	bne	d8d0 <emmc_issue_command+0x1cc>
    d808:	e2044003 	and	r4, r4, #3, 0
    d80c:	e3540003 	cmp	r4, #3, 0
    d810:	0a000001 	beq	d81c <emmc_issue_command+0x118>
    d814:	e3550000 	cmp	r5, #0, 0
    d818:	0a000011 	beq	d864 <emmc_issue_command+0x160>
    d81c:	e3a03e7d 	mov	r3, #2000	; 0x7d0
    d820:	e3a02001 	mov	r2, #1, 0
    d824:	e59f10d0 	ldr	r1, [pc, #208]	; d8fc <emmc_issue_command+0x1f8>
    d828:	e59f00d0 	ldr	r0, [pc, #208]	; d900 <emmc_issue_command+0x1fc>
    d82c:	ebffff61 	bl	d5b8 <wait_reg_mask>
    d830:	e59f30b4 	ldr	r3, [pc, #180]	; d8ec <emmc_issue_command+0x1e8>
    d834:	e5930030 	ldr	r0, [r3, #48]	; 0x30
    d838:	e59f20c4 	ldr	r2, [pc, #196]	; d904 <emmc_issue_command+0x200>
    d83c:	e5832030 	str	r2, [r3, #48]	; 0x30
    d840:	e3c03cff 	bic	r3, r0, #65280	; 0xff00
    d844:	e3c330fd 	bic	r3, r3, #253, 0	; 0xfd
    d848:	e2822811 	add	r2, r2, #1114112	; 0x110000
    d84c:	e3530002 	cmp	r3, #2, 0
    d850:	11530002 	cmpne	r3, r2
    d854:	1a000020 	bne	d8dc <emmc_issue_command+0x1d8>
    d858:	e59f308c 	ldr	r3, [pc, #140]	; d8ec <emmc_issue_command+0x1e8>
    d85c:	e59f20a0 	ldr	r2, [pc, #160]	; d904 <emmc_issue_command+0x200>
    d860:	e5832030 	str	r2, [r3, #48]	; 0x30
    d864:	e3a00001 	mov	r0, #1, 0
    d868:	e59f3078 	ldr	r3, [pc, #120]	; d8e8 <emmc_issue_command+0x1e4>
    d86c:	e5c30000 	strb	r0, [r3]
    d870:	e28dd014 	add	sp, sp, #20, 0
    d874:	e8bd8030 	pop	{r4, r5, pc}
    d878:	e59f0088 	ldr	r0, [pc, #136]	; d908 <emmc_issue_command+0x204>
    d87c:	eb0006d1 	bl	f3c8 <printk>
    d880:	e3a00000 	mov	r0, #0, 0
    d884:	e59f305c 	ldr	r3, [pc, #92]	; d8e8 <emmc_issue_command+0x1e4>
    d888:	e5c30000 	strb	r0, [r3]
    d88c:	eafffff7 	b	d870 <emmc_issue_command+0x16c>
    d890:	ebffff25 	bl	d52c <set_last_error>
    d894:	e3a00000 	mov	r0, #0, 0
    d898:	e59f3048 	ldr	r3, [pc, #72]	; d8e8 <emmc_issue_command+0x1e4>
    d89c:	e5c30000 	strb	r0, [r3]
    d8a0:	eafffff2 	b	d870 <emmc_issue_command+0x16c>
    d8a4:	e59f2040 	ldr	r2, [pc, #64]	; d8ec <emmc_issue_command+0x1e8>
    d8a8:	e5921010 	ldr	r1, [r2, #16]
    d8ac:	e59f3034 	ldr	r3, [pc, #52]	; d8e8 <emmc_issue_command+0x1e4>
    d8b0:	e5831014 	str	r1, [r3, #20]
    d8b4:	e5921014 	ldr	r1, [r2, #20]
    d8b8:	e5831018 	str	r1, [r3, #24]
    d8bc:	e5921018 	ldr	r1, [r2, #24]
    d8c0:	e583101c 	str	r1, [r3, #28]
    d8c4:	e592201c 	ldr	r2, [r2, #28]
    d8c8:	e5832020 	str	r2, [r3, #32]
    d8cc:	eaffffca 	b	d7fc <emmc_issue_command+0xf8>
    d8d0:	e59d0004 	ldr	r0, [sp, #4]
    d8d4:	ebffff4e 	bl	d614 <do_data_transfer>
    d8d8:	eaffffca 	b	d808 <emmc_issue_command+0x104>
    d8dc:	ebffff12 	bl	d52c <set_last_error>
    d8e0:	e3a00000 	mov	r0, #0, 0
    d8e4:	eaffffe1 	b	d870 <emmc_issue_command+0x16c>
    d8e8:	000134e0 	.word	0x000134e0
    d8ec:	20300000 	.word	0x20300000
    d8f0:	00008001 	.word	0x00008001
    d8f4:	00011a3c 	.word	0x00011a3c
    d8f8:	ffff0001 	.word	0xffff0001
    d8fc:	00008002 	.word	0x00008002
    d900:	20300030 	.word	0x20300030
    d904:	ffff0002 	.word	0xffff0002
    d908:	00011a64 	.word	0x00011a64

0000d90c <emmc_command>:
    d90c:	e92d4010 	push	{r4, lr}
    d910:	e3500000 	cmp	r0, #0, 0
    d914:	ba00000b 	blt	d948 <emmc_command+0x3c>
    d918:	e59fc048 	ldr	ip, [pc, #72]	; d968 <emmc_command+0x5c>
    d91c:	e59f3048 	ldr	r3, [pc, #72]	; d96c <emmc_command+0x60>
    d920:	e7930100 	ldr	r0, [r3, r0, lsl #2]
    d924:	e58c0008 	str	r0, [ip, #8]
    d928:	e59c0008 	ldr	r0, [ip, #8]
    d92c:	e59330e0 	ldr	r3, [r3, #224]	; 0xe0
    d930:	e1500003 	cmp	r0, r3
    d934:	0a000007 	beq	d958 <emmc_command+0x4c>
    d938:	e59f3028 	ldr	r3, [pc, #40]	; d968 <emmc_command+0x5c>
    d93c:	e5930008 	ldr	r0, [r3, #8]
    d940:	ebffff6f 	bl	d704 <emmc_issue_command>
    d944:	e8bd8010 	pop	{r4, pc}
    d948:	e59f0020 	ldr	r0, [pc, #32]	; d970 <emmc_command+0x64>
    d94c:	eb00069d 	bl	f3c8 <printk>
    d950:	e3a00000 	mov	r0, #0, 0
    d954:	e8bd8010 	pop	{r4, pc}
    d958:	e59f0014 	ldr	r0, [pc, #20]	; d974 <emmc_command+0x68>
    d95c:	eb000699 	bl	f3c8 <printk>
    d960:	e3a00000 	mov	r0, #0, 0
    d964:	e8bd8010 	pop	{r4, pc}
    d968:	000134e0 	.word	0x000134e0
    d96c:	00011ea8 	.word	0x00011ea8
    d970:	00011a90 	.word	0x00011a90
    d974:	00011ab4 	.word	0x00011ab4

0000d978 <check_v2_card>:
    d978:	e92d4010 	push	{r4, lr}
    d97c:	e3a020c8 	mov	r2, #200, 0	; 0xc8
    d980:	e59f10a0 	ldr	r1, [pc, #160]	; da28 <check_v2_card+0xb0>
    d984:	e3a00008 	mov	r0, #8, 0
    d988:	ebffffdf 	bl	d90c <emmc_command>
    d98c:	e2504000 	subs	r4, r0, #0, 0
    d990:	1a000017 	bne	d9f4 <check_v2_card+0x7c>
    d994:	e59f3090 	ldr	r3, [pc, #144]	; da2c <check_v2_card+0xb4>
    d998:	e5933040 	ldr	r3, [r3, #64]	; 0x40
    d99c:	e3530000 	cmp	r3, #0, 0
    d9a0:	0a000006 	beq	d9c0 <check_v2_card+0x48>
    d9a4:	e3130801 	tst	r3, #65536	; 0x10000
    d9a8:	0a00000e 	beq	d9e8 <check_v2_card+0x70>
    d9ac:	ebfffee5 	bl	d548 <reset_command>
    d9b0:	e3500000 	cmp	r0, #0, 0
    d9b4:	1a000004 	bne	d9cc <check_v2_card+0x54>
    d9b8:	e1a04000 	mov	r4, r0
    d9bc:	ea000013 	b	da10 <check_v2_card+0x98>
    d9c0:	e59f0068 	ldr	r0, [pc, #104]	; da30 <check_v2_card+0xb8>
    d9c4:	eb00067f 	bl	f3c8 <printk>
    d9c8:	ea000010 	b	da10 <check_v2_card+0x98>
    d9cc:	e3a00000 	mov	r0, #0, 0
    d9d0:	ebfffed1 	bl	d51c <sd_error_mask>
    d9d4:	e59f3058 	ldr	r3, [pc, #88]	; da34 <check_v2_card+0xbc>
    d9d8:	e5830030 	str	r0, [r3, #48]	; 0x30
    d9dc:	e59f0054 	ldr	r0, [pc, #84]	; da38 <check_v2_card+0xc0>
    d9e0:	eb000678 	bl	f3c8 <printk>
    d9e4:	ea000009 	b	da10 <check_v2_card+0x98>
    d9e8:	e59f004c 	ldr	r0, [pc, #76]	; da3c <check_v2_card+0xc4>
    d9ec:	eb000675 	bl	f3c8 <printk>
    d9f0:	ea000006 	b	da10 <check_v2_card+0x98>
    d9f4:	e59f3030 	ldr	r3, [pc, #48]	; da2c <check_v2_card+0xb4>
    d9f8:	e5931014 	ldr	r1, [r3, #20]
    d9fc:	e1a03a01 	lsl	r3, r1, #20
    da00:	e1a03a23 	lsr	r3, r3, #20
    da04:	e59f201c 	ldr	r2, [pc, #28]	; da28 <check_v2_card+0xb0>
    da08:	e1530002 	cmp	r3, r2
    da0c:	1a000001 	bne	da18 <check_v2_card+0xa0>
    da10:	e1a00004 	mov	r0, r4
    da14:	e8bd8010 	pop	{r4, pc}
    da18:	e59f0020 	ldr	r0, [pc, #32]	; da40 <check_v2_card+0xc8>
    da1c:	eb000669 	bl	f3c8 <printk>
    da20:	e3a04000 	mov	r4, #0, 0
    da24:	eafffff9 	b	da10 <check_v2_card+0x98>
    da28:	000001aa 	.word	0x000001aa
    da2c:	000134e0 	.word	0x000134e0
    da30:	00011ad0 	.word	0x00011ad0
    da34:	20300000 	.word	0x20300000
    da38:	00011af0 	.word	0x00011af0
    da3c:	00011b14 	.word	0x00011b14
    da40:	00011b3c 	.word	0x00011b3c

0000da44 <check_usable_card>:
    da44:	e92d4010 	push	{r4, lr}
    da48:	e3a02ffa 	mov	r2, #1000	; 0x3e8
    da4c:	e3a01000 	mov	r1, #0, 0
    da50:	e3a00005 	mov	r0, #5, 0
    da54:	ebffffac 	bl	d90c <emmc_command>
    da58:	e2504000 	subs	r4, r0, #0, 0
    da5c:	1a000010 	bne	daa4 <check_usable_card+0x60>
    da60:	e59f3050 	ldr	r3, [pc, #80]	; dab8 <check_usable_card+0x74>
    da64:	e5933040 	ldr	r3, [r3, #64]	; 0x40
    da68:	e3530000 	cmp	r3, #0, 0
    da6c:	0a000009 	beq	da98 <check_usable_card+0x54>
    da70:	e3130801 	tst	r3, #65536	; 0x10000
    da74:	0a00000c 	beq	daac <check_usable_card+0x68>
    da78:	ebfffeb2 	bl	d548 <reset_command>
    da7c:	e2504000 	subs	r4, r0, #0, 0
    da80:	0a000007 	beq	daa4 <check_usable_card+0x60>
    da84:	e3a00000 	mov	r0, #0, 0
    da88:	ebfffea3 	bl	d51c <sd_error_mask>
    da8c:	e59f3028 	ldr	r3, [pc, #40]	; dabc <check_usable_card+0x78>
    da90:	e5830030 	str	r0, [r3, #48]	; 0x30
    da94:	ea000002 	b	daa4 <check_usable_card+0x60>
    da98:	e59f0020 	ldr	r0, [pc, #32]	; dac0 <check_usable_card+0x7c>
    da9c:	eb000649 	bl	f3c8 <printk>
    daa0:	e3a04001 	mov	r4, #1, 0
    daa4:	e1a00004 	mov	r0, r4
    daa8:	e8bd8010 	pop	{r4, pc}
    daac:	e59f0010 	ldr	r0, [pc, #16]	; dac4 <check_usable_card+0x80>
    dab0:	eb000644 	bl	f3c8 <printk>
    dab4:	eafffffa 	b	daa4 <check_usable_card+0x60>
    dab8:	000134e0 	.word	0x000134e0
    dabc:	20300000 	.word	0x20300000
    dac0:	00011b5c 	.word	0x00011b5c
    dac4:	00011b80 	.word	0x00011b80

0000dac8 <check_rca>:
    dac8:	e92d4010 	push	{r4, lr}
    dacc:	e3a02e7d 	mov	r2, #2000	; 0x7d0
    dad0:	e3a01000 	mov	r1, #0, 0
    dad4:	e3a00002 	mov	r0, #2, 0
    dad8:	ebffff8b 	bl	d90c <emmc_command>
    dadc:	e2504000 	subs	r4, r0, #0, 0
    dae0:	0a00000d 	beq	db1c <check_rca+0x54>
    dae4:	e3a02e7d 	mov	r2, #2000	; 0x7d0
    dae8:	e3a01000 	mov	r1, #0, 0
    daec:	e3a00003 	mov	r0, #3, 0
    daf0:	ebffff85 	bl	d90c <emmc_command>
    daf4:	e2504000 	subs	r4, r0, #0, 0
    daf8:	0a00000a 	beq	db28 <check_rca+0x60>
    dafc:	e59f2040 	ldr	r2, [pc, #64]	; db44 <check_rca+0x7c>
    db00:	e5923014 	ldr	r3, [r2, #20]
    db04:	e1a01823 	lsr	r1, r3, #16
    db08:	e5821028 	str	r1, [r2, #40]	; 0x28
    db0c:	e3130c01 	tst	r3, #256	; 0x100
    db10:	0a000007 	beq	db34 <check_rca+0x6c>
    db14:	e1a00004 	mov	r0, r4
    db18:	e8bd8010 	pop	{r4, pc}
    db1c:	e59f0024 	ldr	r0, [pc, #36]	; db48 <check_rca+0x80>
    db20:	eb000628 	bl	f3c8 <printk>
    db24:	eafffffa 	b	db14 <check_rca+0x4c>
    db28:	e59f001c 	ldr	r0, [pc, #28]	; db4c <check_rca+0x84>
    db2c:	eb000625 	bl	f3c8 <printk>
    db30:	eafffff7 	b	db14 <check_rca+0x4c>
    db34:	e59f0014 	ldr	r0, [pc, #20]	; db50 <check_rca+0x88>
    db38:	eb000622 	bl	f3c8 <printk>
    db3c:	e3a04000 	mov	r4, #0, 0
    db40:	eafffff3 	b	db14 <check_rca+0x4c>
    db44:	000134e0 	.word	0x000134e0
    db48:	00011ba4 	.word	0x00011ba4
    db4c:	00011bc4 	.word	0x00011bc4
    db50:	00011bec 	.word	0x00011bec

0000db54 <select_card>:
    db54:	e92d4010 	push	{r4, lr}
    db58:	e59f3058 	ldr	r3, [pc, #88]	; dbb8 <select_card+0x64>
    db5c:	e5931028 	ldr	r1, [r3, #40]	; 0x28
    db60:	e3a02e7d 	mov	r2, #2000	; 0x7d0
    db64:	e1a01801 	lsl	r1, r1, #16
    db68:	e3a00007 	mov	r0, #7, 0
    db6c:	ebffff66 	bl	d90c <emmc_command>
    db70:	e2504000 	subs	r4, r0, #0, 0
    db74:	0a000008 	beq	db9c <select_card+0x48>
    db78:	e59f3038 	ldr	r3, [pc, #56]	; dbb8 <select_card+0x64>
    db7c:	e5931014 	ldr	r1, [r3, #20]
    db80:	e1a014a1 	lsr	r1, r1, #9
    db84:	e201100f 	and	r1, r1, #15, 0
    db88:	e2413003 	sub	r3, r1, #3, 0
    db8c:	e3530001 	cmp	r3, #1, 0
    db90:	8a000004 	bhi	dba8 <select_card+0x54>
    db94:	e1a00004 	mov	r0, r4
    db98:	e8bd8010 	pop	{r4, pc}
    db9c:	e59f0018 	ldr	r0, [pc, #24]	; dbbc <select_card+0x68>
    dba0:	eb000608 	bl	f3c8 <printk>
    dba4:	eafffffa 	b	db94 <select_card+0x40>
    dba8:	e59f0010 	ldr	r0, [pc, #16]	; dbc0 <select_card+0x6c>
    dbac:	eb000605 	bl	f3c8 <printk>
    dbb0:	e3a04000 	mov	r4, #0, 0
    dbb4:	eafffff6 	b	db94 <select_card+0x40>
    dbb8:	000134e0 	.word	0x000134e0
    dbbc:	00011c0c 	.word	0x00011c0c
    dbc0:	00011c30 	.word	0x00011c30

0000dbc4 <do_data_command>:
    dbc4:	e92d40f0 	push	{r4, r5, r6, r7, lr}
    dbc8:	e24dd00c 	sub	sp, sp, #12, 0
    dbcc:	e1a0c001 	mov	ip, r1
    dbd0:	e1a01002 	mov	r1, r2
    dbd4:	e1a05003 	mov	r5, r3
    dbd8:	e59f3114 	ldr	r3, [pc, #276]	; dcf4 <do_data_command+0x130>
    dbdc:	e5d33024 	ldrb	r3, [r3, #36]	; 0x24
    dbe0:	e3530000 	cmp	r3, #0, 0
    dbe4:	01a05485 	lsleq	r5, r5, #9
    dbe8:	e59f3104 	ldr	r3, [pc, #260]	; dcf4 <do_data_command+0x130>
    dbec:	e5932010 	ldr	r2, [r3, #16]
    dbf0:	e1520001 	cmp	r2, r1
    dbf4:	8a000010 	bhi	dc3c <do_data_command+0x78>
    dbf8:	e3520c02 	cmp	r2, #512	; 0x200
    dbfc:	1a000012 	bne	dc4c <do_data_command+0x88>
    dc00:	e1a034a1 	lsr	r3, r1, #9
    dc04:	e59f20e8 	ldr	r2, [pc, #232]	; dcf4 <do_data_command+0x130>
    dc08:	e5823004 	str	r3, [r2, #4]
    dc0c:	e1a02b81 	lsl	r2, r1, #23
    dc10:	e1a02ba2 	lsr	r2, r2, #23
    dc14:	e3520000 	cmp	r2, #0, 0
    dc18:	1a000013 	bne	dc6c <do_data_command+0xa8>
    dc1c:	e59f20d0 	ldr	r2, [pc, #208]	; dcf4 <do_data_command+0x130>
    dc20:	e582c038 	str	ip, [r2, #56]	; 0x38
    dc24:	e3500000 	cmp	r0, #0, 0
    dc28:	0a000013 	beq	dc7c <do_data_command+0xb8>
    dc2c:	e3530001 	cmp	r3, #1, 0
    dc30:	9a000011 	bls	dc7c <do_data_command+0xb8>
    dc34:	e3a07019 	mov	r7, #25, 0
    dc38:	ea000017 	b	dc9c <do_data_command+0xd8>
    dc3c:	e59f00b4 	ldr	r0, [pc, #180]	; dcf8 <do_data_command+0x134>
    dc40:	eb0005e0 	bl	f3c8 <printk>
    dc44:	e3a04000 	mov	r4, #0, 0
    dc48:	ea000026 	b	dce8 <do_data_command+0x124>
    dc4c:	e59f30a8 	ldr	r3, [pc, #168]	; dcfc <do_data_command+0x138>
    dc50:	e58d3000 	str	r3, [sp]
    dc54:	e59f30a4 	ldr	r3, [pc, #164]	; dd00 <do_data_command+0x13c>
    dc58:	e59f20a4 	ldr	r2, [pc, #164]	; dd04 <do_data_command+0x140>
    dc5c:	e59f10a4 	ldr	r1, [pc, #164]	; dd08 <do_data_command+0x144>
    dc60:	e59f00a4 	ldr	r0, [pc, #164]	; dd0c <do_data_command+0x148>
    dc64:	eb0005d7 	bl	f3c8 <printk>
    dc68:	eb000706 	bl	f888 <clean_reboot>
    dc6c:	e59f009c 	ldr	r0, [pc, #156]	; dd10 <do_data_command+0x14c>
    dc70:	eb0005d4 	bl	f3c8 <printk>
    dc74:	e3a04000 	mov	r4, #0, 0
    dc78:	ea00001a 	b	dce8 <do_data_command+0x124>
    dc7c:	e3500000 	cmp	r0, #0, 0
    dc80:	1a000004 	bne	dc98 <do_data_command+0xd4>
    dc84:	e3530001 	cmp	r3, #1, 0
    dc88:	83a07012 	movhi	r7, #18, 0
    dc8c:	8a000002 	bhi	dc9c <do_data_command+0xd8>
    dc90:	e3a07011 	mov	r7, #17, 0
    dc94:	ea000000 	b	dc9c <do_data_command+0xd8>
    dc98:	e3a07018 	mov	r7, #24, 0
    dc9c:	e3a06000 	mov	r6, #0, 0
    dca0:	e3560002 	cmp	r6, #2, 0
    dca4:	ca00000e 	bgt	dce4 <do_data_command+0x120>
    dca8:	e59f2064 	ldr	r2, [pc, #100]	; dd14 <do_data_command+0x150>
    dcac:	e1a01005 	mov	r1, r5
    dcb0:	e1a00007 	mov	r0, r7
    dcb4:	ebffff14 	bl	d90c <emmc_command>
    dcb8:	e2504000 	subs	r4, r0, #0, 0
    dcbc:	1a000009 	bne	dce8 <do_data_command+0x124>
    dcc0:	e2866001 	add	r6, r6, #1, 0
    dcc4:	e3560002 	cmp	r6, #2, 0
    dcc8:	ca000002 	bgt	dcd8 <do_data_command+0x114>
    dccc:	e59f0044 	ldr	r0, [pc, #68]	; dd18 <do_data_command+0x154>
    dcd0:	eb0005bc 	bl	f3c8 <printk>
    dcd4:	eafffff1 	b	dca0 <do_data_command+0xdc>
    dcd8:	e59f003c 	ldr	r0, [pc, #60]	; dd1c <do_data_command+0x158>
    dcdc:	eb0005b9 	bl	f3c8 <printk>
    dce0:	ea000000 	b	dce8 <do_data_command+0x124>
    dce4:	e3a04001 	mov	r4, #1, 0
    dce8:	e1a00004 	mov	r0, r4
    dcec:	e28dd00c 	add	sp, sp, #12, 0
    dcf0:	e8bd80f0 	pop	{r4, r5, r6, r7, pc}
    dcf4:	000134e0 	.word	0x000134e0
    dcf8:	00011c50 	.word	0x00011c50
    dcfc:	00011c88 	.word	0x00011c88
    dd00:	000002b1 	.word	0x000002b1
    dd04:	00011f8c 	.word	0x00011f8c
    dd08:	00011c70 	.word	0x00011c70
    dd0c:	0000ff5c 	.word	0x0000ff5c
    dd10:	00011ca4 	.word	0x00011ca4
    dd14:	00001388 	.word	0x00001388
    dd18:	00011cc0 	.word	0x00011cc0
    dd1c:	00011ce4 	.word	0x00011ce4

0000dd20 <emmc_setup_clock>:
    dd20:	e92d4070 	push	{r4, r5, r6, lr}
    dd24:	e59f5074 	ldr	r5, [pc, #116]	; dda0 <emmc_setup_clock+0x80>
    dd28:	e3a03000 	mov	r3, #0, 0
    dd2c:	e585303c 	str	r3, [r5, #60]	; 0x3c
    dd30:	e595402c 	ldr	r4, [r5, #44]	; 0x2c
    dd34:	e3844001 	orr	r4, r4, #1, 0
    dd38:	e59f0064 	ldr	r0, [pc, #100]	; dda4 <emmc_setup_clock+0x84>
    dd3c:	ebfffdc5 	bl	d458 <get_clock_divider>
    dd40:	e1844000 	orr	r4, r4, r0
    dd44:	e3c4480f 	bic	r4, r4, #983040	; 0xf0000
    dd48:	e384480b 	orr	r4, r4, #720896	; 0xb0000
    dd4c:	e585402c 	str	r4, [r5, #44]	; 0x2c
    dd50:	e3a03e7d 	mov	r3, #2000	; 0x7d0
    dd54:	e3a02001 	mov	r2, #1, 0
    dd58:	e3a01002 	mov	r1, #2, 0
    dd5c:	e59f0044 	ldr	r0, [pc, #68]	; dda8 <emmc_setup_clock+0x88>
    dd60:	ebfffe14 	bl	d5b8 <wait_reg_mask>
    dd64:	e2504000 	subs	r4, r0, #0, 0
    dd68:	0a000009 	beq	dd94 <emmc_setup_clock+0x74>
    dd6c:	e3a0001e 	mov	r0, #30, 0
    dd70:	eb000728 	bl	fa18 <delay_ms>
    dd74:	e59f2024 	ldr	r2, [pc, #36]	; dda0 <emmc_setup_clock+0x80>
    dd78:	e592302c 	ldr	r3, [r2, #44]	; 0x2c
    dd7c:	e3833004 	orr	r3, r3, #4, 0
    dd80:	e582302c 	str	r3, [r2, #44]	; 0x2c
    dd84:	e3a0001e 	mov	r0, #30, 0
    dd88:	eb000722 	bl	fa18 <delay_ms>
    dd8c:	e1a00004 	mov	r0, r4
    dd90:	e8bd8070 	pop	{r4, r5, r6, pc}
    dd94:	e59f0010 	ldr	r0, [pc, #16]	; ddac <emmc_setup_clock+0x8c>
    dd98:	eb00058a 	bl	f3c8 <printk>
    dd9c:	eafffffa 	b	dd8c <emmc_setup_clock+0x6c>
    dda0:	20300000 	.word	0x20300000
    dda4:	0ee6b280 	.word	0x0ee6b280
    dda8:	2030002c 	.word	0x2030002c
    ddac:	00011d08 	.word	0x00011d08

0000ddb0 <emmc_app_command>:
    ddb0:	e92d4070 	push	{r4, r5, r6, lr}
    ddb4:	e59f307c 	ldr	r3, [pc, #124]	; de38 <emmc_app_command+0x88>
    ddb8:	e0833100 	add	r3, r3, r0, lsl #2
    ddbc:	e5d33003 	ldrb	r3, [r3, #3]
    ddc0:	e203303f 	and	r3, r3, #63, 0	; 0x3f
    ddc4:	e353003b 	cmp	r3, #59, 0	; 0x3b
    ddc8:	8a000016 	bhi	de28 <emmc_app_command+0x78>
    ddcc:	e1a04000 	mov	r4, r0
    ddd0:	e1a05001 	mov	r5, r1
    ddd4:	e59f3060 	ldr	r3, [pc, #96]	; de3c <emmc_app_command+0x8c>
    ddd8:	e59f2058 	ldr	r2, [pc, #88]	; de38 <emmc_app_command+0x88>
    dddc:	e59220dc 	ldr	r2, [r2, #220]	; 0xdc
    dde0:	e5832008 	str	r2, [r3, #8]
    dde4:	e5931028 	ldr	r1, [r3, #40]	; 0x28
    dde8:	e3510000 	cmp	r1, #0, 0
    ddec:	11a01801 	lslne	r1, r1, #16
    ddf0:	e3a02e7d 	mov	r2, #2000	; 0x7d0
    ddf4:	e59f3040 	ldr	r3, [pc, #64]	; de3c <emmc_app_command+0x8c>
    ddf8:	e5930008 	ldr	r0, [r3, #8]
    ddfc:	ebfffe40 	bl	d704 <emmc_issue_command>
    de00:	e3500000 	cmp	r0, #0, 0
    de04:	08bd8070 	popeq	{r4, r5, r6, pc}
    de08:	e59f3028 	ldr	r3, [pc, #40]	; de38 <emmc_app_command+0x88>
    de0c:	e7930104 	ldr	r0, [r3, r4, lsl #2]
    de10:	e59f3024 	ldr	r3, [pc, #36]	; de3c <emmc_app_command+0x8c>
    de14:	e5830008 	str	r0, [r3, #8]
    de18:	e3a02e7d 	mov	r2, #2000	; 0x7d0
    de1c:	e1a01005 	mov	r1, r5
    de20:	ebfffe37 	bl	d704 <emmc_issue_command>
    de24:	e8bd8070 	pop	{r4, r5, r6, pc}
    de28:	e59f0010 	ldr	r0, [pc, #16]	; de40 <emmc_app_command+0x90>
    de2c:	eb000565 	bl	f3c8 <printk>
    de30:	e3a00000 	mov	r0, #0, 0
    de34:	e8bd8070 	pop	{r4, r5, r6, pc}
    de38:	00011ea8 	.word	0x00011ea8
    de3c:	000134e0 	.word	0x000134e0
    de40:	00011d28 	.word	0x00011d28

0000de44 <check_ocr>:
    de44:	e92d4010 	push	{r4, lr}
    de48:	e3a02e7d 	mov	r2, #2000	; 0x7d0
    de4c:	e3a01000 	mov	r1, #0, 0
    de50:	e3a00029 	mov	r0, #41, 0	; 0x29
    de54:	ebffffd5 	bl	ddb0 <emmc_app_command>
    de58:	e2504000 	subs	r4, r0, #0, 0
    de5c:	0a000005 	beq	de78 <check_ocr+0x34>
    de60:	e59f2020 	ldr	r2, [pc, #32]	; de88 <check_ocr+0x44>
    de64:	e5923014 	ldr	r3, [r2, #20]
    de68:	e1a03423 	lsr	r3, r3, #8
    de6c:	e1c232b6 	strh	r3, [r2, #38]	; 0x26
    de70:	e1a00004 	mov	r0, r4
    de74:	e8bd8010 	pop	{r4, pc}
    de78:	e3a01001 	mov	r1, #1, 0
    de7c:	e59f0008 	ldr	r0, [pc, #8]	; de8c <check_ocr+0x48>
    de80:	eb000550 	bl	f3c8 <printk>
    de84:	eafffff9 	b	de70 <check_ocr+0x2c>
    de88:	000134e0 	.word	0x000134e0
    de8c:	00011d48 	.word	0x00011d48

0000de90 <check_sdhc_support>:
    de90:	e92d4070 	push	{r4, r5, r6, lr}
    de94:	e1a05000 	mov	r5, r0
    de98:	ea00000d 	b	ded4 <check_sdhc_support+0x44>
    de9c:	e3a01101 	mov	r1, #1073741824	; 0x40000000
    dea0:	e3a02e7d 	mov	r2, #2000	; 0x7d0
    dea4:	e38118ff 	orr	r1, r1, #16711680	; 0xff0000
    dea8:	e3811902 	orr	r1, r1, #32768	; 0x8000
    deac:	e3a00029 	mov	r0, #41, 0	; 0x29
    deb0:	ebffffbe 	bl	ddb0 <emmc_app_command>
    deb4:	e2504000 	subs	r4, r0, #0, 0
    deb8:	0a000009 	beq	dee4 <check_sdhc_support+0x54>
    debc:	e59f304c 	ldr	r3, [pc, #76]	; df10 <check_sdhc_support+0x80>
    dec0:	e5933014 	ldr	r3, [r3, #20]
    dec4:	e3530000 	cmp	r3, #0, 0
    dec8:	ba000009 	blt	def4 <check_sdhc_support+0x64>
    decc:	e3a00f7d 	mov	r0, #500	; 0x1f4
    ded0:	eb0006d0 	bl	fa18 <delay_ms>
    ded4:	e3550000 	cmp	r5, #0, 0
    ded8:	1affffef 	bne	de9c <check_sdhc_support+0xc>
    dedc:	e3a01000 	mov	r1, #0, 0
    dee0:	eaffffee 	b	dea0 <check_sdhc_support+0x10>
    dee4:	e59f0028 	ldr	r0, [pc, #40]	; df14 <check_sdhc_support+0x84>
    dee8:	eb000536 	bl	f3c8 <printk>
    deec:	e1a00004 	mov	r0, r4
    def0:	e8bd8070 	pop	{r4, r5, r6, pc}
    def4:	e1a01423 	lsr	r1, r3, #8
    def8:	e59f2010 	ldr	r2, [pc, #16]	; df10 <check_sdhc_support+0x80>
    defc:	e1c212b6 	strh	r1, [r2, #38]	; 0x26
    df00:	e1a03f23 	lsr	r3, r3, #30
    df04:	e2033001 	and	r3, r3, #1, 0
    df08:	e5c23024 	strb	r3, [r2, #36]	; 0x24
    df0c:	eafffff6 	b	deec <check_sdhc_support+0x5c>
    df10:	000134e0 	.word	0x000134e0
    df14:	00011d74 	.word	0x00011d74

0000df18 <set_scr>:
    df18:	e92d4010 	push	{r4, lr}
    df1c:	e59f313c 	ldr	r3, [pc, #316]	; e060 <set_scr+0x148>
    df20:	e5d33024 	ldrb	r3, [r3, #36]	; 0x24
    df24:	e3530000 	cmp	r3, #0, 0
    df28:	1a000005 	bne	df44 <set_scr+0x2c>
    df2c:	e3a02e7d 	mov	r2, #2000	; 0x7d0
    df30:	e3a01c02 	mov	r1, #512	; 0x200
    df34:	e3a00010 	mov	r0, #16, 0
    df38:	ebfffe73 	bl	d90c <emmc_command>
    df3c:	e2504000 	subs	r4, r0, #0, 0
    df40:	0a00002a 	beq	dff0 <set_scr+0xd8>
    df44:	e59f2118 	ldr	r2, [pc, #280]	; e064 <set_scr+0x14c>
    df48:	e5923004 	ldr	r3, [r2, #4]
    df4c:	e3c33eff 	bic	r3, r3, #4080	; 0xff0
    df50:	e3c3300f 	bic	r3, r3, #15, 0
    df54:	e3833c02 	orr	r3, r3, #512	; 0x200
    df58:	e5823004 	str	r3, [r2, #4]
    df5c:	e59f30fc 	ldr	r3, [pc, #252]	; e060 <set_scr+0x148>
    df60:	e2832048 	add	r2, r3, #72, 0	; 0x48
    df64:	e5832038 	str	r2, [r3, #56]	; 0x38
    df68:	e3a02008 	mov	r2, #8, 0
    df6c:	e5832010 	str	r2, [r3, #16]
    df70:	e3a02001 	mov	r2, #1, 0
    df74:	e5832004 	str	r2, [r3, #4]
    df78:	e59f20e8 	ldr	r2, [pc, #232]	; e068 <set_scr+0x150>
    df7c:	e3a01000 	mov	r1, #0, 0
    df80:	e3a00033 	mov	r0, #51, 0	; 0x33
    df84:	ebffff89 	bl	ddb0 <emmc_app_command>
    df88:	e2504000 	subs	r4, r0, #0, 0
    df8c:	0a00001a 	beq	dffc <set_scr+0xe4>
    df90:	e59f10c8 	ldr	r1, [pc, #200]	; e060 <set_scr+0x148>
    df94:	e3a03c02 	mov	r3, #512	; 0x200
    df98:	e5813010 	str	r3, [r1, #16]
    df9c:	e5913048 	ldr	r3, [r1, #72]	; 0x48
    dfa0:	e1a02403 	lsl	r2, r3, #8
    dfa4:	e20228ff 	and	r2, r2, #16711680	; 0xff0000
    dfa8:	e1822c03 	orr	r2, r2, r3, lsl #24
    dfac:	e1a03423 	lsr	r3, r3, #8
    dfb0:	e2033cff 	and	r3, r3, #65280	; 0xff00
    dfb4:	e1823003 	orr	r3, r2, r3
    dfb8:	e3e00000 	mvn	r0, #0, 0
    dfbc:	e5810054 	str	r0, [r1, #84]	; 0x54
    dfc0:	e1a02c22 	lsr	r2, r2, #24
    dfc4:	e1a017a3 	lsr	r1, r3, #15
    dfc8:	e2011001 	and	r1, r1, #1, 0
    dfcc:	e1a03523 	lsr	r3, r3, #10
    dfd0:	e2033001 	and	r3, r3, #1, 0
    dfd4:	e212200f 	ands	r2, r2, #15, 0
    dfd8:	1a00000a 	bne	e008 <set_scr+0xf0>
    dfdc:	e59f307c 	ldr	r3, [pc, #124]	; e060 <set_scr+0x148>
    dfe0:	e3a02001 	mov	r2, #1, 0
    dfe4:	e5832054 	str	r2, [r3, #84]	; 0x54
    dfe8:	e1a00004 	mov	r0, r4
    dfec:	e8bd8010 	pop	{r4, pc}
    dff0:	e59f0074 	ldr	r0, [pc, #116]	; e06c <set_scr+0x154>
    dff4:	eb0004f3 	bl	f3c8 <printk>
    dff8:	eafffffa 	b	dfe8 <set_scr+0xd0>
    dffc:	e59f006c 	ldr	r0, [pc, #108]	; e070 <set_scr+0x158>
    e000:	eb0004f0 	bl	f3c8 <printk>
    e004:	eafffff7 	b	dfe8 <set_scr+0xd0>
    e008:	e3520001 	cmp	r2, #1, 0
    e00c:	0a000006 	beq	e02c <set_scr+0x114>
    e010:	e3520002 	cmp	r2, #2, 0
    e014:	1afffff3 	bne	dfe8 <set_scr+0xd0>
    e018:	e3510000 	cmp	r1, #0, 0
    e01c:	1a000006 	bne	e03c <set_scr+0x124>
    e020:	e59f3038 	ldr	r3, [pc, #56]	; e060 <set_scr+0x148>
    e024:	e5832054 	str	r2, [r3, #84]	; 0x54
    e028:	eaffffee 	b	dfe8 <set_scr+0xd0>
    e02c:	e59f302c 	ldr	r3, [pc, #44]	; e060 <set_scr+0x148>
    e030:	e3a0200b 	mov	r2, #11, 0
    e034:	e5832054 	str	r2, [r3, #84]	; 0x54
    e038:	eaffffea 	b	dfe8 <set_scr+0xd0>
    e03c:	e3530000 	cmp	r3, #0, 0
    e040:	059f2018 	ldreq	r2, [pc, #24]	; e060 <set_scr+0x148>
    e044:	03a01003 	moveq	r1, #3, 0
    e048:	05821054 	streq	r1, [r2, #84]	; 0x54
    e04c:	e3530000 	cmp	r3, #0, 0
    e050:	159f3008 	ldrne	r3, [pc, #8]	; e060 <set_scr+0x148>
    e054:	13a02004 	movne	r2, #4, 0
    e058:	15832054 	strne	r2, [r3, #84]	; 0x54
    e05c:	eaffffe1 	b	dfe8 <set_scr+0xd0>
    e060:	000134e0 	.word	0x000134e0
    e064:	20300000 	.word	0x20300000
    e068:	00007530 	.word	0x00007530
    e06c:	00011d98 	.word	0x00011d98
    e070:	00011dbc 	.word	0x00011dbc

0000e074 <emmc_card_reset>:
    e074:	e92d4070 	push	{r4, r5, r6, lr}
    e078:	e59f30fc 	ldr	r3, [pc, #252]	; e17c <emmc_card_reset+0x108>
    e07c:	e3a02401 	mov	r2, #16777216	; 0x1000000
    e080:	e583202c 	str	r2, [r3, #44]	; 0x2c
    e084:	e3a03e7d 	mov	r3, #2000	; 0x7d0
    e088:	e3a02000 	mov	r2, #0, 0
    e08c:	e3a01407 	mov	r1, #117440512	; 0x7000000
    e090:	e59f00e8 	ldr	r0, [pc, #232]	; e180 <emmc_card_reset+0x10c>
    e094:	ebfffd47 	bl	d5b8 <wait_reg_mask>
    e098:	e2504000 	subs	r4, r0, #0, 0
    e09c:	0a00002f 	beq	e160 <emmc_card_reset+0xec>
    e0a0:	ebffff1e 	bl	dd20 <emmc_setup_clock>
    e0a4:	e2504000 	subs	r4, r0, #0, 0
    e0a8:	0a00002e 	beq	e168 <emmc_card_reset+0xf4>
    e0ac:	e59f30c8 	ldr	r3, [pc, #200]	; e17c <emmc_card_reset+0x108>
    e0b0:	e3a04000 	mov	r4, #0, 0
    e0b4:	e5834038 	str	r4, [r3, #56]	; 0x38
    e0b8:	e3e02000 	mvn	r2, #0, 0
    e0bc:	e5832030 	str	r2, [r3, #48]	; 0x30
    e0c0:	e5832034 	str	r2, [r3, #52]	; 0x34
    e0c4:	e3a000cb 	mov	r0, #203, 0	; 0xcb
    e0c8:	eb000652 	bl	fa18 <delay_ms>
    e0cc:	e59f30b0 	ldr	r3, [pc, #176]	; e184 <emmc_card_reset+0x110>
    e0d0:	e5834004 	str	r4, [r3, #4]
    e0d4:	e583400c 	str	r4, [r3, #12]
    e0d8:	e5c34000 	strb	r4, [r3]
    e0dc:	e5834010 	str	r4, [r3, #16]
    e0e0:	e3a02e7d 	mov	r2, #2000	; 0x7d0
    e0e4:	e1a01004 	mov	r1, r4
    e0e8:	e1a00004 	mov	r0, r4
    e0ec:	ebfffe06 	bl	d90c <emmc_command>
    e0f0:	e2504000 	subs	r4, r0, #0, 0
    e0f4:	0a00001d 	beq	e170 <emmc_card_reset+0xfc>
    e0f8:	ebfffe1e 	bl	d978 <check_v2_card>
    e0fc:	e1a05000 	mov	r5, r0
    e100:	ebfffe4f 	bl	da44 <check_usable_card>
    e104:	e2504000 	subs	r4, r0, #0, 0
    e108:	0a000016 	beq	e168 <emmc_card_reset+0xf4>
    e10c:	ebffff4c 	bl	de44 <check_ocr>
    e110:	e2504000 	subs	r4, r0, #0, 0
    e114:	0a000013 	beq	e168 <emmc_card_reset+0xf4>
    e118:	e1a00005 	mov	r0, r5
    e11c:	ebffff5b 	bl	de90 <check_sdhc_support>
    e120:	e2504000 	subs	r4, r0, #0, 0
    e124:	0a00000f 	beq	e168 <emmc_card_reset+0xf4>
    e128:	e3a0000a 	mov	r0, #10, 0
    e12c:	eb000639 	bl	fa18 <delay_ms>
    e130:	ebfffe64 	bl	dac8 <check_rca>
    e134:	e2504000 	subs	r4, r0, #0, 0
    e138:	0a00000a 	beq	e168 <emmc_card_reset+0xf4>
    e13c:	ebfffe84 	bl	db54 <select_card>
    e140:	e2504000 	subs	r4, r0, #0, 0
    e144:	0a000007 	beq	e168 <emmc_card_reset+0xf4>
    e148:	ebffff72 	bl	df18 <set_scr>
    e14c:	e2504000 	subs	r4, r0, #0, 0
    e150:	159f3024 	ldrne	r3, [pc, #36]	; e17c <emmc_card_reset+0x108>
    e154:	13e02000 	mvnne	r2, #0, 0
    e158:	15832030 	strne	r2, [r3, #48]	; 0x30
    e15c:	ea000001 	b	e168 <emmc_card_reset+0xf4>
    e160:	e59f0020 	ldr	r0, [pc, #32]	; e188 <emmc_card_reset+0x114>
    e164:	eb000497 	bl	f3c8 <printk>
    e168:	e1a00004 	mov	r0, r4
    e16c:	e8bd8070 	pop	{r4, r5, r6, pc}
    e170:	e59f0014 	ldr	r0, [pc, #20]	; e18c <emmc_card_reset+0x118>
    e174:	eb000493 	bl	f3c8 <printk>
    e178:	eafffffa 	b	e168 <emmc_card_reset+0xf4>
    e17c:	20300000 	.word	0x20300000
    e180:	2030002c 	.word	0x2030002c
    e184:	000134e0 	.word	0x000134e0
    e188:	00011ddc 	.word	0x00011ddc
    e18c:	00011dfc 	.word	0x00011dfc

0000e190 <emmc_read>:
    e190:	e92d4030 	push	{r4, r5, lr}
    e194:	e24dd00c 	sub	sp, sp, #12, 0
    e198:	e1a03b82 	lsl	r3, r2, #23
    e19c:	e1a03ba3 	lsr	r3, r3, #23
    e1a0:	e3530000 	cmp	r3, #0, 0
    e1a4:	1a000009 	bne	e1d0 <emmc_read+0x40>
    e1a8:	e1a05000 	mov	r5, r0
    e1ac:	e1a04002 	mov	r4, r2
    e1b0:	e1a03000 	mov	r3, r0
    e1b4:	e3a00000 	mov	r0, #0, 0
    e1b8:	ebfffe81 	bl	dbc4 <do_data_command>
    e1bc:	e3500000 	cmp	r0, #0, 0
    e1c0:	0a00000a 	beq	e1f0 <emmc_read+0x60>
    e1c4:	e1a00004 	mov	r0, r4
    e1c8:	e28dd00c 	add	sp, sp, #12, 0
    e1cc:	e8bd8030 	pop	{r4, r5, pc}
    e1d0:	e59f3030 	ldr	r3, [pc, #48]	; e208 <emmc_read+0x78>
    e1d4:	e58d3000 	str	r3, [sp]
    e1d8:	e59f302c 	ldr	r3, [pc, #44]	; e20c <emmc_read+0x7c>
    e1dc:	e59f202c 	ldr	r2, [pc, #44]	; e210 <emmc_read+0x80>
    e1e0:	e59f102c 	ldr	r1, [pc, #44]	; e214 <emmc_read+0x84>
    e1e4:	e59f002c 	ldr	r0, [pc, #44]	; e218 <emmc_read+0x88>
    e1e8:	eb000476 	bl	f3c8 <printk>
    e1ec:	eb0005a5 	bl	f888 <clean_reboot>
    e1f0:	e1a02004 	mov	r2, r4
    e1f4:	e1a01005 	mov	r1, r5
    e1f8:	e59f001c 	ldr	r0, [pc, #28]	; e21c <emmc_read+0x8c>
    e1fc:	eb000471 	bl	f3c8 <printk>
    e200:	e3e00000 	mvn	r0, #0, 0
    e204:	eaffffef 	b	e1c8 <emmc_read+0x38>
    e208:	00011e1c 	.word	0x00011e1c
    e20c:	000002dd 	.word	0x000002dd
    e210:	00011f9c 	.word	0x00011f9c
    e214:	00011c70 	.word	0x00011c70
    e218:	0000ff5c 	.word	0x0000ff5c
    e21c:	00011e2c 	.word	0x00011e2c

0000e220 <emmc_write>:
    e220:	e92d4010 	push	{r4, lr}
    e224:	e24dd008 	sub	sp, sp, #8, 0
    e228:	e1a04002 	mov	r4, r2
    e22c:	e1a02b82 	lsl	r2, r2, #23
    e230:	e1a02ba2 	lsr	r2, r2, #23
    e234:	e3520000 	cmp	r2, #0, 0
    e238:	1a000008 	bne	e260 <emmc_write+0x40>
    e23c:	e1a03000 	mov	r3, r0
    e240:	e1a02004 	mov	r2, r4
    e244:	e3a00001 	mov	r0, #1, 0
    e248:	ebfffe5d 	bl	dbc4 <do_data_command>
    e24c:	e3500000 	cmp	r0, #0, 0
    e250:	0a00000a 	beq	e280 <emmc_write+0x60>
    e254:	e1a00004 	mov	r0, r4
    e258:	e28dd008 	add	sp, sp, #8, 0
    e25c:	e8bd8010 	pop	{r4, pc}
    e260:	e59f302c 	ldr	r3, [pc, #44]	; e294 <emmc_write+0x74>
    e264:	e58d3000 	str	r3, [sp]
    e268:	e3a03e2f 	mov	r3, #752	; 0x2f0
    e26c:	e59f2024 	ldr	r2, [pc, #36]	; e298 <emmc_write+0x78>
    e270:	e59f1024 	ldr	r1, [pc, #36]	; e29c <emmc_write+0x7c>
    e274:	e59f0024 	ldr	r0, [pc, #36]	; e2a0 <emmc_write+0x80>
    e278:	eb000452 	bl	f3c8 <printk>
    e27c:	eb000581 	bl	f888 <clean_reboot>
    e280:	e1a01000 	mov	r1, r0
    e284:	e59f0018 	ldr	r0, [pc, #24]	; e2a4 <emmc_write+0x84>
    e288:	eb00044e 	bl	f3c8 <printk>
    e28c:	e3e00000 	mvn	r0, #0, 0
    e290:	eafffff0 	b	e258 <emmc_write+0x38>
    e294:	00011e1c 	.word	0x00011e1c
    e298:	00011fa8 	.word	0x00011fa8
    e29c:	00011c70 	.word	0x00011c70
    e2a0:	0000ff5c 	.word	0x0000ff5c
    e2a4:	00011e58 	.word	0x00011e58

0000e2a8 <emmc_init>:
    e2a8:	e92d4070 	push	{r4, r5, r6, lr}
    e2ac:	e3a01000 	mov	r1, #0, 0
    e2b0:	e3a00022 	mov	r0, #34, 0	; 0x22
    e2b4:	eb000352 	bl	f004 <gpio_set_function>
    e2b8:	e3a01000 	mov	r1, #0, 0
    e2bc:	e3a00023 	mov	r0, #35, 0	; 0x23
    e2c0:	eb00034f 	bl	f004 <gpio_set_function>
    e2c4:	e3a01000 	mov	r1, #0, 0
    e2c8:	e3a00024 	mov	r0, #36, 0	; 0x24
    e2cc:	eb00034c 	bl	f004 <gpio_set_function>
    e2d0:	e3a01000 	mov	r1, #0, 0
    e2d4:	e3a00025 	mov	r0, #37, 0	; 0x25
    e2d8:	eb000349 	bl	f004 <gpio_set_function>
    e2dc:	e3a01000 	mov	r1, #0, 0
    e2e0:	e3a00026 	mov	r0, #38, 0	; 0x26
    e2e4:	eb000346 	bl	f004 <gpio_set_function>
    e2e8:	e3a01000 	mov	r1, #0, 0
    e2ec:	e3a00027 	mov	r0, #39, 0	; 0x27
    e2f0:	eb000343 	bl	f004 <gpio_set_function>
    e2f4:	e3a01007 	mov	r1, #7, 0
    e2f8:	e3a00030 	mov	r0, #48, 0	; 0x30
    e2fc:	eb000340 	bl	f004 <gpio_set_function>
    e300:	e3a01007 	mov	r1, #7, 0
    e304:	e3a00031 	mov	r0, #49, 0	; 0x31
    e308:	eb00033d 	bl	f004 <gpio_set_function>
    e30c:	e3a01007 	mov	r1, #7, 0
    e310:	e3a00032 	mov	r0, #50, 0	; 0x32
    e314:	eb00033a 	bl	f004 <gpio_set_function>
    e318:	e3a01007 	mov	r1, #7, 0
    e31c:	e3a00033 	mov	r0, #51, 0	; 0x33
    e320:	eb000337 	bl	f004 <gpio_set_function>
    e324:	e3a01007 	mov	r1, #7, 0
    e328:	e3a00034 	mov	r0, #52, 0	; 0x34
    e32c:	eb000334 	bl	f004 <gpio_set_function>
    e330:	e59f305c 	ldr	r3, [pc, #92]	; e394 <emmc_init+0xec>
    e334:	e3a00000 	mov	r0, #0, 0
    e338:	e5830004 	str	r0, [r3, #4]
    e33c:	e583000c 	str	r0, [r3, #12]
    e340:	e5c30000 	strb	r0, [r3]
    e344:	e5830010 	str	r0, [r3, #16]
    e348:	e5c30024 	strb	r0, [r3, #36]	; 0x24
    e34c:	e1c302b6 	strh	r0, [r3, #38]	; 0x26
    e350:	e5830028 	str	r0, [r3, #40]	; 0x28
    e354:	e583003c 	str	r0, [r3, #60]	; 0x3c
    e358:	e1a05000 	mov	r5, r0
    e35c:	e1a04000 	mov	r4, r0
    e360:	e3550009 	cmp	r5, #9, 0
    e364:	ca000008 	bgt	e38c <emmc_init+0xe4>
    e368:	ebffff41 	bl	e074 <emmc_card_reset>
    e36c:	e2504000 	subs	r4, r0, #0, 0
    e370:	1a000005 	bne	e38c <emmc_init+0xe4>
    e374:	e3a00064 	mov	r0, #100, 0	; 0x64
    e378:	eb0005a6 	bl	fa18 <delay_ms>
    e37c:	e59f0014 	ldr	r0, [pc, #20]	; e398 <emmc_init+0xf0>
    e380:	eb000410 	bl	f3c8 <printk>
    e384:	e2855001 	add	r5, r5, #1, 0
    e388:	eafffff4 	b	e360 <emmc_init+0xb8>
    e38c:	e1a00004 	mov	r0, r4
    e390:	e8bd8070 	pop	{r4, r5, r6, pc}
    e394:	000134e0 	.word	0x000134e0
    e398:	00011e74 	.word	0x00011e74

0000e39c <kmalloc_heap_end>:
    e39c:	e59f3004 	ldr	r3, [pc, #4]	; e3a8 <kmalloc_heap_end+0xc>
    e3a0:	e5930000 	ldr	r0, [r3]
    e3a4:	e12fff1e 	bx	lr
    e3a8:	00013538 	.word	0x00013538

0000e3ac <kmalloc_heap_start>:
    e3ac:	e59f3004 	ldr	r3, [pc, #4]	; e3b8 <kmalloc_heap_start+0xc>
    e3b0:	e5930004 	ldr	r0, [r3, #4]
    e3b4:	e12fff1e 	bx	lr
    e3b8:	00013538 	.word	0x00013538

0000e3bc <kmalloc_heap_ptr>:
    e3bc:	e59f3004 	ldr	r3, [pc, #4]	; e3c8 <kmalloc_heap_ptr+0xc>
    e3c0:	e5930008 	ldr	r0, [r3, #8]
    e3c4:	e12fff1e 	bx	lr
    e3c8:	00013538 	.word	0x00013538

0000e3cc <kmalloc_init_set_start>:
    e3cc:	e92d4030 	push	{r4, r5, lr}
    e3d0:	e24dd00c 	sub	sp, sp, #12, 0
    e3d4:	e1a04000 	mov	r4, r0
    e3d8:	e1a05001 	mov	r5, r1
    e3dc:	eb000531 	bl	f8a8 <program_end>
    e3e0:	e1540000 	cmp	r4, r0
    e3e4:	3a000010 	bcc	e42c <kmalloc_init_set_start+0x60>
    e3e8:	e3550000 	cmp	r5, #0, 0
    e3ec:	0a000014 	beq	e444 <kmalloc_init_set_start+0x78>
    e3f0:	e59f30ac 	ldr	r3, [pc, #172]	; e4a4 <kmalloc_init_set_start+0xd8>
    e3f4:	e5933004 	ldr	r3, [r3, #4]
    e3f8:	e1530004 	cmp	r3, r4
    e3fc:	8a000018 	bhi	e464 <kmalloc_init_set_start+0x98>
    e400:	e59f309c 	ldr	r3, [pc, #156]	; e4a4 <kmalloc_init_set_start+0xd8>
    e404:	e5933008 	ldr	r3, [r3, #8]
    e408:	e1530004 	cmp	r3, r4
    e40c:	8a00001a 	bhi	e47c <kmalloc_init_set_start+0xb0>
    e410:	e59f308c 	ldr	r3, [pc, #140]	; e4a4 <kmalloc_init_set_start+0xd8>
    e414:	e5834008 	str	r4, [r3, #8]
    e418:	e5834004 	str	r4, [r3, #4]
    e41c:	e0844005 	add	r4, r4, r5
    e420:	e5834000 	str	r4, [r3]
    e424:	e28dd00c 	add	sp, sp, #12, 0
    e428:	e8bd8030 	pop	{r4, r5, pc}
    e42c:	e3a03030 	mov	r3, #48, 0	; 0x30
    e430:	e59f2070 	ldr	r2, [pc, #112]	; e4a8 <kmalloc_init_set_start+0xdc>
    e434:	e59f1070 	ldr	r1, [pc, #112]	; e4ac <kmalloc_init_set_start+0xe0>
    e438:	e59f0070 	ldr	r0, [pc, #112]	; e4b0 <kmalloc_init_set_start+0xe4>
    e43c:	eb0003e1 	bl	f3c8 <printk>
    e440:	eb000510 	bl	f888 <clean_reboot>
    e444:	e59f3068 	ldr	r3, [pc, #104]	; e4b4 <kmalloc_init_set_start+0xe8>
    e448:	e58d3000 	str	r3, [sp]
    e44c:	e3a03032 	mov	r3, #50, 0	; 0x32
    e450:	e59f2050 	ldr	r2, [pc, #80]	; e4a8 <kmalloc_init_set_start+0xdc>
    e454:	e59f1050 	ldr	r1, [pc, #80]	; e4ac <kmalloc_init_set_start+0xe0>
    e458:	e59f0058 	ldr	r0, [pc, #88]	; e4b8 <kmalloc_init_set_start+0xec>
    e45c:	eb0003d9 	bl	f3c8 <printk>
    e460:	eb000508 	bl	f888 <clean_reboot>
    e464:	e3a03034 	mov	r3, #52, 0	; 0x34
    e468:	e59f2038 	ldr	r2, [pc, #56]	; e4a8 <kmalloc_init_set_start+0xdc>
    e46c:	e59f1038 	ldr	r1, [pc, #56]	; e4ac <kmalloc_init_set_start+0xe0>
    e470:	e59f0044 	ldr	r0, [pc, #68]	; e4bc <kmalloc_init_set_start+0xf0>
    e474:	eb0003d3 	bl	f3c8 <printk>
    e478:	eb000502 	bl	f888 <clean_reboot>
    e47c:	e59f3020 	ldr	r3, [pc, #32]	; e4a4 <kmalloc_init_set_start+0xd8>
    e480:	e5933000 	ldr	r3, [r3]
    e484:	e58d3004 	str	r3, [sp, #4]
    e488:	e58d4000 	str	r4, [sp]
    e48c:	e3a03038 	mov	r3, #56, 0	; 0x38
    e490:	e59f2010 	ldr	r2, [pc, #16]	; e4a8 <kmalloc_init_set_start+0xdc>
    e494:	e59f1010 	ldr	r1, [pc, #16]	; e4ac <kmalloc_init_set_start+0xe0>
    e498:	e59f0020 	ldr	r0, [pc, #32]	; e4c0 <kmalloc_init_set_start+0xf4>
    e49c:	eb0003c9 	bl	f3c8 <printk>
    e4a0:	eb0004f8 	bl	f888 <clean_reboot>
    e4a4:	00013538 	.word	0x00013538
    e4a8:	000121c4 	.word	0x000121c4
    e4ac:	00011fb4 	.word	0x00011fb4
    e4b0:	00011fc0 	.word	0x00011fc0
    e4b4:	00011fe8 	.word	0x00011fe8
    e4b8:	0000ff5c 	.word	0x0000ff5c
    e4bc:	00011ff4 	.word	0x00011ff4
    e4c0:	00012040 	.word	0x00012040

0000e4c4 <kmalloc_notzero>:
    e4c4:	e52de004 	push	{lr}		; (str lr, [sp, #-4]!)
    e4c8:	e24dd00c 	sub	sp, sp, #12, 0
    e4cc:	e3500000 	cmp	r0, #0, 0
    e4d0:	0a00000f 	beq	e514 <kmalloc_notzero+0x50>
    e4d4:	e2800007 	add	r0, r0, #7, 0
    e4d8:	e3c03007 	bic	r3, r0, #7, 0
    e4dc:	e59f20ac 	ldr	r2, [pc, #172]	; e590 <kmalloc_notzero+0xcc>
    e4e0:	e5920008 	ldr	r0, [r2, #8]
    e4e4:	e3100007 	tst	r0, #7, 0
    e4e8:	1a000011 	bne	e534 <kmalloc_notzero+0x70>
    e4ec:	e3500000 	cmp	r0, #0, 0
    e4f0:	0a000017 	beq	e554 <kmalloc_notzero+0x90>
    e4f4:	e0802003 	add	r2, r0, r3
    e4f8:	e59f1090 	ldr	r1, [pc, #144]	; e590 <kmalloc_notzero+0xcc>
    e4fc:	e5812008 	str	r2, [r1, #8]
    e500:	e5911000 	ldr	r1, [r1]
    e504:	e1520001 	cmp	r2, r1
    e508:	8a000017 	bhi	e56c <kmalloc_notzero+0xa8>
    e50c:	e28dd00c 	add	sp, sp, #12, 0
    e510:	e49df004 	pop	{pc}		; (ldr pc, [sp], #4)
    e514:	e59f3078 	ldr	r3, [pc, #120]	; e594 <kmalloc_notzero+0xd0>
    e518:	e58d3000 	str	r3, [sp]
    e51c:	e3a03041 	mov	r3, #65, 0	; 0x41
    e520:	e59f2070 	ldr	r2, [pc, #112]	; e598 <kmalloc_notzero+0xd4>
    e524:	e59f1070 	ldr	r1, [pc, #112]	; e59c <kmalloc_notzero+0xd8>
    e528:	e59f0070 	ldr	r0, [pc, #112]	; e5a0 <kmalloc_notzero+0xdc>
    e52c:	eb0003a5 	bl	f3c8 <printk>
    e530:	eb0004d4 	bl	f888 <clean_reboot>
    e534:	e59f3068 	ldr	r3, [pc, #104]	; e5a4 <kmalloc_notzero+0xe0>
    e538:	e58d3000 	str	r3, [sp]
    e53c:	e3a03044 	mov	r3, #68, 0	; 0x44
    e540:	e59f2050 	ldr	r2, [pc, #80]	; e598 <kmalloc_notzero+0xd4>
    e544:	e59f1050 	ldr	r1, [pc, #80]	; e59c <kmalloc_notzero+0xd8>
    e548:	e59f0050 	ldr	r0, [pc, #80]	; e5a0 <kmalloc_notzero+0xdc>
    e54c:	eb00039d 	bl	f3c8 <printk>
    e550:	eb0004cc 	bl	f888 <clean_reboot>
    e554:	e3a03048 	mov	r3, #72, 0	; 0x48
    e558:	e59f2038 	ldr	r2, [pc, #56]	; e598 <kmalloc_notzero+0xd4>
    e55c:	e59f1038 	ldr	r1, [pc, #56]	; e59c <kmalloc_notzero+0xd8>
    e560:	e59f0040 	ldr	r0, [pc, #64]	; e5a8 <kmalloc_notzero+0xe4>
    e564:	eb000397 	bl	f3c8 <printk>
    e568:	eb0004c6 	bl	f888 <clean_reboot>
    e56c:	e0422001 	sub	r2, r2, r1
    e570:	e58d2004 	str	r2, [sp, #4]
    e574:	e58d3000 	str	r3, [sp]
    e578:	e3a0304c 	mov	r3, #76, 0	; 0x4c
    e57c:	e59f2014 	ldr	r2, [pc, #20]	; e598 <kmalloc_notzero+0xd4>
    e580:	e59f1014 	ldr	r1, [pc, #20]	; e59c <kmalloc_notzero+0xd8>
    e584:	e59f0020 	ldr	r0, [pc, #32]	; e5ac <kmalloc_notzero+0xe8>
    e588:	eb00038e 	bl	f3c8 <printk>
    e58c:	eb0004bd 	bl	f888 <clean_reboot>
    e590:	00013538 	.word	0x00013538
    e594:	00011fec 	.word	0x00011fec
    e598:	000121dc 	.word	0x000121dc
    e59c:	00011fb4 	.word	0x00011fb4
    e5a0:	0000ff5c 	.word	0x0000ff5c
    e5a4:	00012084 	.word	0x00012084
    e5a8:	0001209c 	.word	0x0001209c
    e5ac:	000120c8 	.word	0x000120c8

0000e5b0 <kmalloc>:
    e5b0:	e92d4030 	push	{r4, r5, lr}
    e5b4:	e24dd00c 	sub	sp, sp, #12, 0
    e5b8:	e2504000 	subs	r4, r0, #0, 0
    e5bc:	0a000008 	beq	e5e4 <kmalloc+0x34>
    e5c0:	e1a00004 	mov	r0, r4
    e5c4:	ebffffbe 	bl	e4c4 <kmalloc_notzero>
    e5c8:	e1a05000 	mov	r5, r0
    e5cc:	e1a02004 	mov	r2, r4
    e5d0:	e3a01000 	mov	r1, #0, 0
    e5d4:	eb000353 	bl	f328 <memset>
    e5d8:	e1a00005 	mov	r0, r5
    e5dc:	e28dd00c 	add	sp, sp, #12, 0
    e5e0:	e8bd8030 	pop	{r4, r5, pc}
    e5e4:	e59f3018 	ldr	r3, [pc, #24]	; e604 <kmalloc+0x54>
    e5e8:	e58d3000 	str	r3, [sp]
    e5ec:	e3a03054 	mov	r3, #84, 0	; 0x54
    e5f0:	e59f2010 	ldr	r2, [pc, #16]	; e608 <kmalloc+0x58>
    e5f4:	e59f1010 	ldr	r1, [pc, #16]	; e60c <kmalloc+0x5c>
    e5f8:	e59f0010 	ldr	r0, [pc, #16]	; e610 <kmalloc+0x60>
    e5fc:	eb000371 	bl	f3c8 <printk>
    e600:	eb0004a0 	bl	f888 <clean_reboot>
    e604:	00011fec 	.word	0x00011fec
    e608:	000121ec 	.word	0x000121ec
    e60c:	00011fb4 	.word	0x00011fb4
    e610:	0000ff5c 	.word	0x0000ff5c

0000e614 <kmalloc_aligned>:
    e614:	e52de004 	push	{lr}		; (str lr, [sp, #-4]!)
    e618:	e24dd00c 	sub	sp, sp, #12, 0
    e61c:	e3500000 	cmp	r0, #0, 0
    e620:	0a000014 	beq	e678 <kmalloc_aligned+0x64>
    e624:	e2613000 	rsb	r3, r1, #0, 0
    e628:	e1d13003 	bics	r3, r1, r3
    e62c:	1a000019 	bne	e698 <kmalloc_aligned+0x84>
    e630:	e3510008 	cmp	r1, #8, 0
    e634:	33a01008 	movcc	r1, #8, 0
    e638:	e59f30b8 	ldr	r3, [pc, #184]	; e6f8 <kmalloc_aligned+0xe4>
    e63c:	e5932008 	ldr	r2, [r3, #8]
    e640:	e2613000 	rsb	r3, r1, #0, 0
    e644:	e1d1c003 	bics	ip, r1, r3
    e648:	1a00001a 	bne	e6b8 <kmalloc_aligned+0xa4>
    e64c:	e0822001 	add	r2, r2, r1
    e650:	e2422001 	sub	r2, r2, #1, 0
    e654:	e0033002 	and	r3, r3, r2
    e658:	e2411001 	sub	r1, r1, #1, 0
    e65c:	e1110003 	tst	r1, r3
    e660:	1a00001c 	bne	e6d8 <kmalloc_aligned+0xc4>
    e664:	e59f208c 	ldr	r2, [pc, #140]	; e6f8 <kmalloc_aligned+0xe4>
    e668:	e5823008 	str	r3, [r2, #8]
    e66c:	ebffffcf 	bl	e5b0 <kmalloc>
    e670:	e28dd00c 	add	sp, sp, #12, 0
    e674:	e49df004 	pop	{pc}		; (ldr pc, [sp], #4)
    e678:	e59f307c 	ldr	r3, [pc, #124]	; e6fc <kmalloc_aligned+0xe8>
    e67c:	e58d3000 	str	r3, [sp]
    e680:	e3a0305e 	mov	r3, #94, 0	; 0x5e
    e684:	e59f2074 	ldr	r2, [pc, #116]	; e700 <kmalloc_aligned+0xec>
    e688:	e59f1074 	ldr	r1, [pc, #116]	; e704 <kmalloc_aligned+0xf0>
    e68c:	e59f0074 	ldr	r0, [pc, #116]	; e708 <kmalloc_aligned+0xf4>
    e690:	eb00034c 	bl	f3c8 <printk>
    e694:	eb00047b 	bl	f888 <clean_reboot>
    e698:	e59f306c 	ldr	r3, [pc, #108]	; e70c <kmalloc_aligned+0xf8>
    e69c:	e58d3000 	str	r3, [sp]
    e6a0:	e3a0305f 	mov	r3, #95, 0	; 0x5f
    e6a4:	e59f2054 	ldr	r2, [pc, #84]	; e700 <kmalloc_aligned+0xec>
    e6a8:	e59f1054 	ldr	r1, [pc, #84]	; e704 <kmalloc_aligned+0xf0>
    e6ac:	e59f005c 	ldr	r0, [pc, #92]	; e710 <kmalloc_aligned+0xfc>
    e6b0:	eb000344 	bl	f3c8 <printk>
    e6b4:	eb000473 	bl	f888 <clean_reboot>
    e6b8:	e59f3054 	ldr	r3, [pc, #84]	; e714 <kmalloc_aligned+0x100>
    e6bc:	e58d3000 	str	r3, [sp]
    e6c0:	e3a03011 	mov	r3, #17, 0
    e6c4:	e59f204c 	ldr	r2, [pc, #76]	; e718 <kmalloc_aligned+0x104>
    e6c8:	e59f1034 	ldr	r1, [pc, #52]	; e704 <kmalloc_aligned+0xf0>
    e6cc:	e59f0034 	ldr	r0, [pc, #52]	; e708 <kmalloc_aligned+0xf4>
    e6d0:	eb00033c 	bl	f3c8 <printk>
    e6d4:	eb00046b 	bl	f888 <clean_reboot>
    e6d8:	e59f303c 	ldr	r3, [pc, #60]	; e71c <kmalloc_aligned+0x108>
    e6dc:	e58d3000 	str	r3, [sp]
    e6e0:	e3a03066 	mov	r3, #102, 0	; 0x66
    e6e4:	e59f2014 	ldr	r2, [pc, #20]	; e700 <kmalloc_aligned+0xec>
    e6e8:	e59f1014 	ldr	r1, [pc, #20]	; e704 <kmalloc_aligned+0xf0>
    e6ec:	e59f002c 	ldr	r0, [pc, #44]	; e720 <kmalloc_aligned+0x10c>
    e6f0:	eb000334 	bl	f3c8 <printk>
    e6f4:	eb000463 	bl	f888 <clean_reboot>
    e6f8:	00013538 	.word	0x00013538
    e6fc:	00011fec 	.word	0x00011fec
    e700:	000121f4 	.word	0x000121f4
    e704:	00011fb4 	.word	0x00011fb4
    e708:	0000ff5c 	.word	0x0000ff5c
    e70c:	00012150 	.word	0x00012150
    e710:	00012110 	.word	0x00012110
    e714:	00012164 	.word	0x00012164
    e718:	00012204 	.word	0x00012204
    e71c:	000121a8 	.word	0x000121a8
    e720:	00012170 	.word	0x00012170

0000e724 <kfree_all>:
    e724:	e59f3008 	ldr	r3, [pc, #8]	; e734 <kfree_all+0x10>
    e728:	e5932004 	ldr	r2, [r3, #4]
    e72c:	e5832008 	str	r2, [r3, #8]
    e730:	e12fff1e 	bx	lr
    e734:	00013538 	.word	0x00013538

0000e738 <clear_c>:
    e738:	e3c00b1e 	bic	r0, r0, #30720	; 0x7800
    e73c:	e3c0004e 	bic	r0, r0, #78, 0	; 0x4e
    e740:	e6ff0070 	uxth	r0, r0
    e744:	e12fff1e 	bx	lr

0000e748 <clear_s>:
    e748:	e1a00b00 	lsl	r0, r0, #22
    e74c:	e1a00b20 	lsr	r0, r0, #22
    e750:	e12fff1e 	bx	lr

0000e754 <xfer_end>:
    e754:	e52de004 	push	{lr}		; (str lr, [sp, #-4]!)
    e758:	e24dd00c 	sub	sp, sp, #12, 0
    e75c:	e59f30c4 	ldr	r3, [pc, #196]	; e828 <xfer_end+0xd4>
    e760:	e5933004 	ldr	r3, [r3, #4]
    e764:	e3130002 	tst	r3, #2, 0
    e768:	1a000013 	bne	e7bc <xfer_end+0x68>
    e76c:	e59f30b4 	ldr	r3, [pc, #180]	; e828 <xfer_end+0xd4>
    e770:	e5933004 	ldr	r3, [r3, #4]
    e774:	e3130c01 	tst	r3, #256	; 0x100
    e778:	1a000009 	bne	e7a4 <xfer_end+0x50>
    e77c:	e59f30a4 	ldr	r3, [pc, #164]	; e828 <xfer_end+0xd4>
    e780:	e5933004 	ldr	r3, [r3, #4]
    e784:	e3130c02 	tst	r3, #512	; 0x200
    e788:	0afffff3 	beq	e75c <xfer_end+0x8>
    e78c:	e3a03f46 	mov	r3, #280	; 0x118
    e790:	e59f2094 	ldr	r2, [pc, #148]	; e82c <xfer_end+0xd8>
    e794:	e59f1094 	ldr	r1, [pc, #148]	; e830 <xfer_end+0xdc>
    e798:	e59f0094 	ldr	r0, [pc, #148]	; e834 <xfer_end+0xe0>
    e79c:	eb000309 	bl	f3c8 <printk>
    e7a0:	eb000438 	bl	f888 <clean_reboot>
    e7a4:	e3a03f46 	mov	r3, #280	; 0x118
    e7a8:	e59f207c 	ldr	r2, [pc, #124]	; e82c <xfer_end+0xd8>
    e7ac:	e59f107c 	ldr	r1, [pc, #124]	; e830 <xfer_end+0xdc>
    e7b0:	e59f0080 	ldr	r0, [pc, #128]	; e838 <xfer_end+0xe4>
    e7b4:	eb000303 	bl	f3c8 <printk>
    e7b8:	eb000432 	bl	f888 <clean_reboot>
    e7bc:	e59f3064 	ldr	r3, [pc, #100]	; e828 <xfer_end+0xd4>
    e7c0:	e5933004 	ldr	r3, [r3, #4]
    e7c4:	e3130001 	tst	r3, #1, 0
    e7c8:	1a000006 	bne	e7e8 <xfer_end+0x94>
    e7cc:	e59f3054 	ldr	r3, [pc, #84]	; e828 <xfer_end+0xd4>
    e7d0:	e5933004 	ldr	r3, [r3, #4]
    e7d4:	e3130c01 	tst	r3, #256	; 0x100
    e7d8:	1a00000a 	bne	e808 <xfer_end+0xb4>
    e7dc:	eb000464 	bl	f974 <dev_barrier>
    e7e0:	e28dd00c 	add	sp, sp, #12, 0
    e7e4:	e49df004 	pop	{pc}		; (ldr pc, [sp], #4)
    e7e8:	e59f304c 	ldr	r3, [pc, #76]	; e83c <xfer_end+0xe8>
    e7ec:	e58d3000 	str	r3, [sp]
    e7f0:	e59f3048 	ldr	r3, [pc, #72]	; e840 <xfer_end+0xec>
    e7f4:	e59f2030 	ldr	r2, [pc, #48]	; e82c <xfer_end+0xd8>
    e7f8:	e59f1030 	ldr	r1, [pc, #48]	; e830 <xfer_end+0xdc>
    e7fc:	e59f0040 	ldr	r0, [pc, #64]	; e844 <xfer_end+0xf0>
    e800:	eb0002f0 	bl	f3c8 <printk>
    e804:	eb00041f 	bl	f888 <clean_reboot>
    e808:	e59f3038 	ldr	r3, [pc, #56]	; e848 <xfer_end+0xf4>
    e80c:	e58d3000 	str	r3, [sp]
    e810:	e59f3034 	ldr	r3, [pc, #52]	; e84c <xfer_end+0xf8>
    e814:	e59f2010 	ldr	r2, [pc, #16]	; e82c <xfer_end+0xd8>
    e818:	e59f1010 	ldr	r1, [pc, #16]	; e830 <xfer_end+0xdc>
    e81c:	e59f0020 	ldr	r0, [pc, #32]	; e844 <xfer_end+0xf0>
    e820:	eb0002e8 	bl	f3c8 <printk>
    e824:	eb000417 	bl	f888 <clean_reboot>
    e828:	20804000 	.word	0x20804000
    e82c:	0001236c 	.word	0x0001236c
    e830:	0001220c 	.word	0x0001220c
    e834:	00012238 	.word	0x00012238
    e838:	00012214 	.word	0x00012214
    e83c:	00012268 	.word	0x00012268
    e840:	0000011b 	.word	0x0000011b
    e844:	0000ff5c 	.word	0x0000ff5c
    e848:	0001227c 	.word	0x0001227c
    e84c:	0000011d 	.word	0x0000011d

0000e850 <read_s>:
    e850:	e92d4010 	push	{r4, lr}
    e854:	ebffe5f4 	bl	802c <GET32>
    e858:	ebffffba 	bl	e748 <clear_s>
    e85c:	e8bd8010 	pop	{r4, pc}

0000e860 <reset_status>:
    e860:	e92d4010 	push	{r4, lr}
    e864:	e59f4018 	ldr	r4, [pc, #24]	; e884 <reset_status+0x24>
    e868:	e1a00004 	mov	r0, r4
    e86c:	ebfffff7 	bl	e850 <read_s>
    e870:	e3801c03 	orr	r1, r0, #768	; 0x300
    e874:	e3811002 	orr	r1, r1, #2, 0
    e878:	e1a00004 	mov	r0, r4
    e87c:	ebffe5e8 	bl	8024 <PUT32>
    e880:	e8bd8010 	pop	{r4, pc}
    e884:	20804004 	.word	0x20804004

0000e888 <read_c>:
    e888:	e92d4010 	push	{r4, lr}
    e88c:	ebffe5e6 	bl	802c <GET32>
    e890:	ebffffa8 	bl	e738 <clear_c>
    e894:	e8bd8010 	pop	{r4, pc}

0000e898 <xfer_start>:
    e898:	e92d4070 	push	{r4, r5, r6, lr}
    e89c:	e24dd008 	sub	sp, sp, #8, 0
    e8a0:	e1a06000 	mov	r6, r0
    e8a4:	e1a05001 	mov	r5, r1
    e8a8:	e1a04002 	mov	r4, r2
    e8ac:	eb000430 	bl	f974 <dev_barrier>
    e8b0:	e59f3180 	ldr	r3, [pc, #384]	; ea38 <xfer_start+0x1a0>
    e8b4:	e5933004 	ldr	r3, [r3, #4]
    e8b8:	e3130001 	tst	r3, #1, 0
    e8bc:	0a000013 	beq	e910 <xfer_start+0x78>
    e8c0:	e59f3170 	ldr	r3, [pc, #368]	; ea38 <xfer_start+0x1a0>
    e8c4:	e5933004 	ldr	r3, [r3, #4]
    e8c8:	e3130c01 	tst	r3, #256	; 0x100
    e8cc:	1a000009 	bne	e8f8 <xfer_start+0x60>
    e8d0:	e59f3160 	ldr	r3, [pc, #352]	; ea38 <xfer_start+0x1a0>
    e8d4:	e5933004 	ldr	r3, [r3, #4]
    e8d8:	e3130c02 	tst	r3, #512	; 0x200
    e8dc:	0afffff3 	beq	e8b0 <xfer_start+0x18>
    e8e0:	e3a030f7 	mov	r3, #247, 0	; 0xf7
    e8e4:	e59f2150 	ldr	r2, [pc, #336]	; ea3c <xfer_start+0x1a4>
    e8e8:	e59f1150 	ldr	r1, [pc, #336]	; ea40 <xfer_start+0x1a8>
    e8ec:	e59f0150 	ldr	r0, [pc, #336]	; ea44 <xfer_start+0x1ac>
    e8f0:	eb0002b4 	bl	f3c8 <printk>
    e8f4:	eb0003e3 	bl	f888 <clean_reboot>
    e8f8:	e3a030f7 	mov	r3, #247, 0	; 0xf7
    e8fc:	e59f2138 	ldr	r2, [pc, #312]	; ea3c <xfer_start+0x1a4>
    e900:	e59f1138 	ldr	r1, [pc, #312]	; ea40 <xfer_start+0x1a8>
    e904:	e59f013c 	ldr	r0, [pc, #316]	; ea48 <xfer_start+0x1b0>
    e908:	eb0002ae 	bl	f3c8 <printk>
    e90c:	eb0003dd 	bl	f888 <clean_reboot>
    e910:	e59f3120 	ldr	r3, [pc, #288]	; ea38 <xfer_start+0x1a0>
    e914:	e5933004 	ldr	r3, [r3, #4]
    e918:	e3130040 	tst	r3, #64, 0	; 0x40
    e91c:	0a000025 	beq	e9b8 <xfer_start+0x120>
    e920:	ebffffce 	bl	e860 <reset_status>
    e924:	e1b033a6 	lsrs	r3, r6, #7
    e928:	1a00002a 	bne	e9d8 <xfer_start+0x140>
    e92c:	e1a01006 	mov	r1, r6
    e930:	e59f0114 	ldr	r0, [pc, #276]	; ea4c <xfer_start+0x1b4>
    e934:	ebffe5ba 	bl	8024 <PUT32>
    e938:	e1b03825 	lsrs	r3, r5, #16
    e93c:	1a00002d 	bne	e9f8 <xfer_start+0x160>
    e940:	e1a01005 	mov	r1, r5
    e944:	e59f0104 	ldr	r0, [pc, #260]	; ea50 <xfer_start+0x1b8>
    e948:	ebffe5b5 	bl	8024 <PUT32>
    e94c:	e59f50e4 	ldr	r5, [pc, #228]	; ea38 <xfer_start+0x1a0>
    e950:	e1a00005 	mov	r0, r5
    e954:	ebffffcb 	bl	e888 <read_c>
    e958:	e38030b0 	orr	r3, r0, #176, 0	; 0xb0
    e95c:	e2041001 	and	r1, r4, #1, 0
    e960:	e3c33001 	bic	r3, r3, #1, 0
    e964:	e1811003 	orr	r1, r1, r3
    e968:	e1a00005 	mov	r0, r5
    e96c:	ebffe5ac 	bl	8024 <PUT32>
    e970:	e59f30c0 	ldr	r3, [pc, #192]	; ea38 <xfer_start+0x1a0>
    e974:	e5933004 	ldr	r3, [r3, #4]
    e978:	e3130001 	tst	r3, #1, 0
    e97c:	1a00002b 	bne	ea30 <xfer_start+0x198>
    e980:	e59f30b0 	ldr	r3, [pc, #176]	; ea38 <xfer_start+0x1a0>
    e984:	e5933004 	ldr	r3, [r3, #4]
    e988:	e3130c01 	tst	r3, #256	; 0x100
    e98c:	1a000021 	bne	ea18 <xfer_start+0x180>
    e990:	e59f30a0 	ldr	r3, [pc, #160]	; ea38 <xfer_start+0x1a0>
    e994:	e5933004 	ldr	r3, [r3, #4]
    e998:	e3130c02 	tst	r3, #512	; 0x200
    e99c:	0afffff3 	beq	e970 <xfer_start+0xd8>
    e9a0:	e59f30ac 	ldr	r3, [pc, #172]	; ea54 <xfer_start+0x1bc>
    e9a4:	e59f2090 	ldr	r2, [pc, #144]	; ea3c <xfer_start+0x1a4>
    e9a8:	e59f1090 	ldr	r1, [pc, #144]	; ea40 <xfer_start+0x1a8>
    e9ac:	e59f0090 	ldr	r0, [pc, #144]	; ea44 <xfer_start+0x1ac>
    e9b0:	eb000284 	bl	f3c8 <printk>
    e9b4:	eb0003b3 	bl	f888 <clean_reboot>
    e9b8:	e59f3098 	ldr	r3, [pc, #152]	; ea58 <xfer_start+0x1c0>
    e9bc:	e58d3000 	str	r3, [sp]
    e9c0:	e3a030fa 	mov	r3, #250, 0	; 0xfa
    e9c4:	e59f2070 	ldr	r2, [pc, #112]	; ea3c <xfer_start+0x1a4>
    e9c8:	e59f1070 	ldr	r1, [pc, #112]	; ea40 <xfer_start+0x1a8>
    e9cc:	e59f0088 	ldr	r0, [pc, #136]	; ea5c <xfer_start+0x1c4>
    e9d0:	eb00027c 	bl	f3c8 <printk>
    e9d4:	eb0003ab 	bl	f888 <clean_reboot>
    e9d8:	e59f3080 	ldr	r3, [pc, #128]	; ea60 <xfer_start+0x1c8>
    e9dc:	e58d3000 	str	r3, [sp]
    e9e0:	e3a030ff 	mov	r3, #255, 0	; 0xff
    e9e4:	e59f2050 	ldr	r2, [pc, #80]	; ea3c <xfer_start+0x1a4>
    e9e8:	e59f1050 	ldr	r1, [pc, #80]	; ea40 <xfer_start+0x1a8>
    e9ec:	e59f0068 	ldr	r0, [pc, #104]	; ea5c <xfer_start+0x1c4>
    e9f0:	eb000274 	bl	f3c8 <printk>
    e9f4:	eb0003a3 	bl	f888 <clean_reboot>
    e9f8:	e59f3064 	ldr	r3, [pc, #100]	; ea64 <xfer_start+0x1cc>
    e9fc:	e58d3000 	str	r3, [sp]
    ea00:	e59f3060 	ldr	r3, [pc, #96]	; ea68 <xfer_start+0x1d0>
    ea04:	e59f2030 	ldr	r2, [pc, #48]	; ea3c <xfer_start+0x1a4>
    ea08:	e59f1030 	ldr	r1, [pc, #48]	; ea40 <xfer_start+0x1a8>
    ea0c:	e59f0048 	ldr	r0, [pc, #72]	; ea5c <xfer_start+0x1c4>
    ea10:	eb00026c 	bl	f3c8 <printk>
    ea14:	eb00039b 	bl	f888 <clean_reboot>
    ea18:	e59f3034 	ldr	r3, [pc, #52]	; ea54 <xfer_start+0x1bc>
    ea1c:	e59f2018 	ldr	r2, [pc, #24]	; ea3c <xfer_start+0x1a4>
    ea20:	e59f1018 	ldr	r1, [pc, #24]	; ea40 <xfer_start+0x1a8>
    ea24:	e59f001c 	ldr	r0, [pc, #28]	; ea48 <xfer_start+0x1b0>
    ea28:	eb000266 	bl	f3c8 <printk>
    ea2c:	eb000395 	bl	f888 <clean_reboot>
    ea30:	e28dd008 	add	sp, sp, #8, 0
    ea34:	e8bd8070 	pop	{r4, r5, r6, pc}
    ea38:	20804000 	.word	0x20804000
    ea3c:	00012378 	.word	0x00012378
    ea40:	0001220c 	.word	0x0001220c
    ea44:	00012238 	.word	0x00012238
    ea48:	00012214 	.word	0x00012214
    ea4c:	2080400c 	.word	0x2080400c
    ea50:	20804008 	.word	0x20804008
    ea54:	00000112 	.word	0x00000112
    ea58:	00012290 	.word	0x00012290
    ea5c:	0000ff5c 	.word	0x0000ff5c
    ea60:	000122a8 	.word	0x000122a8
    ea64:	000122bc 	.word	0x000122bc
    ea68:	00000103 	.word	0x00000103

0000ea6c <xfer_start_hack>:
    ea6c:	e92d4070 	push	{r4, r5, r6, lr}
    ea70:	e24dd008 	sub	sp, sp, #8, 0
    ea74:	e1a06000 	mov	r6, r0
    ea78:	e1a05001 	mov	r5, r1
    ea7c:	e1a04002 	mov	r4, r2
    ea80:	eb0003bb 	bl	f974 <dev_barrier>
    ea84:	e59f3150 	ldr	r3, [pc, #336]	; ebdc <xfer_start_hack+0x170>
    ea88:	e5933004 	ldr	r3, [r3, #4]
    ea8c:	e3130001 	tst	r3, #1, 0
    ea90:	0a000013 	beq	eae4 <xfer_start_hack+0x78>
    ea94:	e59f3140 	ldr	r3, [pc, #320]	; ebdc <xfer_start_hack+0x170>
    ea98:	e5933004 	ldr	r3, [r3, #4]
    ea9c:	e3130c01 	tst	r3, #256	; 0x100
    eaa0:	1a000009 	bne	eacc <xfer_start_hack+0x60>
    eaa4:	e59f3130 	ldr	r3, [pc, #304]	; ebdc <xfer_start_hack+0x170>
    eaa8:	e5933004 	ldr	r3, [r3, #4]
    eaac:	e3130c02 	tst	r3, #512	; 0x200
    eab0:	0afffff3 	beq	ea84 <xfer_start_hack+0x18>
    eab4:	e3a03f52 	mov	r3, #328	; 0x148
    eab8:	e59f2120 	ldr	r2, [pc, #288]	; ebe0 <xfer_start_hack+0x174>
    eabc:	e59f1120 	ldr	r1, [pc, #288]	; ebe4 <xfer_start_hack+0x178>
    eac0:	e59f0120 	ldr	r0, [pc, #288]	; ebe8 <xfer_start_hack+0x17c>
    eac4:	eb00023f 	bl	f3c8 <printk>
    eac8:	eb00036e 	bl	f888 <clean_reboot>
    eacc:	e3a03f52 	mov	r3, #328	; 0x148
    ead0:	e59f2108 	ldr	r2, [pc, #264]	; ebe0 <xfer_start_hack+0x174>
    ead4:	e59f1108 	ldr	r1, [pc, #264]	; ebe4 <xfer_start_hack+0x178>
    ead8:	e59f010c 	ldr	r0, [pc, #268]	; ebec <xfer_start_hack+0x180>
    eadc:	eb000239 	bl	f3c8 <printk>
    eae0:	eb000368 	bl	f888 <clean_reboot>
    eae4:	ebffff5d 	bl	e860 <reset_status>
    eae8:	e1b033a6 	lsrs	r3, r6, #7
    eaec:	1a000022 	bne	eb7c <xfer_start_hack+0x110>
    eaf0:	e1a01006 	mov	r1, r6
    eaf4:	e59f00f4 	ldr	r0, [pc, #244]	; ebf0 <xfer_start_hack+0x184>
    eaf8:	ebffe549 	bl	8024 <PUT32>
    eafc:	e1b03825 	lsrs	r3, r5, #16
    eb00:	1a000025 	bne	eb9c <xfer_start_hack+0x130>
    eb04:	e1a01005 	mov	r1, r5
    eb08:	e59f00e4 	ldr	r0, [pc, #228]	; ebf4 <xfer_start_hack+0x188>
    eb0c:	ebffe544 	bl	8024 <PUT32>
    eb10:	e59f50c4 	ldr	r5, [pc, #196]	; ebdc <xfer_start_hack+0x170>
    eb14:	e1a00005 	mov	r0, r5
    eb18:	ebffff5a 	bl	e888 <read_c>
    eb1c:	e38030b0 	orr	r3, r0, #176, 0	; 0xb0
    eb20:	e2041001 	and	r1, r4, #1, 0
    eb24:	e3c33001 	bic	r3, r3, #1, 0
    eb28:	e1811003 	orr	r1, r1, r3
    eb2c:	e1a00005 	mov	r0, r5
    eb30:	ebffe53b 	bl	8024 <PUT32>
    eb34:	e59f30a0 	ldr	r3, [pc, #160]	; ebdc <xfer_start_hack+0x170>
    eb38:	e5933004 	ldr	r3, [r3, #4]
    eb3c:	e3130001 	tst	r3, #1, 0
    eb40:	1a000023 	bne	ebd4 <xfer_start_hack+0x168>
    eb44:	e59f3090 	ldr	r3, [pc, #144]	; ebdc <xfer_start_hack+0x170>
    eb48:	e5933004 	ldr	r3, [r3, #4]
    eb4c:	e3130c01 	tst	r3, #256	; 0x100
    eb50:	1a000019 	bne	ebbc <xfer_start_hack+0x150>
    eb54:	e59f3080 	ldr	r3, [pc, #128]	; ebdc <xfer_start_hack+0x170>
    eb58:	e5933004 	ldr	r3, [r3, #4]
    eb5c:	e3130c02 	tst	r3, #512	; 0x200
    eb60:	0afffff3 	beq	eb34 <xfer_start_hack+0xc8>
    eb64:	e59f308c 	ldr	r3, [pc, #140]	; ebf8 <xfer_start_hack+0x18c>
    eb68:	e59f2070 	ldr	r2, [pc, #112]	; ebe0 <xfer_start_hack+0x174>
    eb6c:	e59f1070 	ldr	r1, [pc, #112]	; ebe4 <xfer_start_hack+0x178>
    eb70:	e59f0070 	ldr	r0, [pc, #112]	; ebe8 <xfer_start_hack+0x17c>
    eb74:	eb000213 	bl	f3c8 <printk>
    eb78:	eb000342 	bl	f888 <clean_reboot>
    eb7c:	e59f3078 	ldr	r3, [pc, #120]	; ebfc <xfer_start_hack+0x190>
    eb80:	e58d3000 	str	r3, [sp]
    eb84:	e3a03e15 	mov	r3, #336	; 0x150
    eb88:	e59f2050 	ldr	r2, [pc, #80]	; ebe0 <xfer_start_hack+0x174>
    eb8c:	e59f1050 	ldr	r1, [pc, #80]	; ebe4 <xfer_start_hack+0x178>
    eb90:	e59f0068 	ldr	r0, [pc, #104]	; ec00 <xfer_start_hack+0x194>
    eb94:	eb00020b 	bl	f3c8 <printk>
    eb98:	eb00033a 	bl	f888 <clean_reboot>
    eb9c:	e59f3060 	ldr	r3, [pc, #96]	; ec04 <xfer_start_hack+0x198>
    eba0:	e58d3000 	str	r3, [sp]
    eba4:	e3a03f55 	mov	r3, #340	; 0x154
    eba8:	e59f2030 	ldr	r2, [pc, #48]	; ebe0 <xfer_start_hack+0x174>
    ebac:	e59f1030 	ldr	r1, [pc, #48]	; ebe4 <xfer_start_hack+0x178>
    ebb0:	e59f0048 	ldr	r0, [pc, #72]	; ec00 <xfer_start_hack+0x194>
    ebb4:	eb000203 	bl	f3c8 <printk>
    ebb8:	eb000332 	bl	f888 <clean_reboot>
    ebbc:	e59f3034 	ldr	r3, [pc, #52]	; ebf8 <xfer_start_hack+0x18c>
    ebc0:	e59f2018 	ldr	r2, [pc, #24]	; ebe0 <xfer_start_hack+0x174>
    ebc4:	e59f1018 	ldr	r1, [pc, #24]	; ebe4 <xfer_start_hack+0x178>
    ebc8:	e59f001c 	ldr	r0, [pc, #28]	; ebec <xfer_start_hack+0x180>
    ebcc:	eb0001fd 	bl	f3c8 <printk>
    ebd0:	eb00032c 	bl	f888 <clean_reboot>
    ebd4:	e28dd008 	add	sp, sp, #8, 0
    ebd8:	e8bd8070 	pop	{r4, r5, r6, pc}
    ebdc:	20804000 	.word	0x20804000
    ebe0:	00012384 	.word	0x00012384
    ebe4:	0001220c 	.word	0x0001220c
    ebe8:	00012238 	.word	0x00012238
    ebec:	00012214 	.word	0x00012214
    ebf0:	2080400c 	.word	0x2080400c
    ebf4:	20804008 	.word	0x20804008
    ebf8:	0000015e 	.word	0x0000015e
    ebfc:	000122a8 	.word	0x000122a8
    ec00:	0000ff5c 	.word	0x0000ff5c
    ec04:	000122bc 	.word	0x000122bc

0000ec08 <i2c_write>:
    ec08:	e92d4070 	push	{r4, r5, r6, lr}
    ec0c:	e1a05001 	mov	r5, r1
    ec10:	e1a04002 	mov	r4, r2
    ec14:	e3a02000 	mov	r2, #0, 0
    ec18:	e1a01004 	mov	r1, r4
    ec1c:	ebffff1d 	bl	e898 <xfer_start>
    ec20:	e3a02000 	mov	r2, #0, 0
    ec24:	ea000009 	b	ec50 <i2c_write+0x48>
    ec28:	e3a03f4a 	mov	r3, #296	; 0x128
    ec2c:	e59f2078 	ldr	r2, [pc, #120]	; ecac <i2c_write+0xa4>
    ec30:	e59f1078 	ldr	r1, [pc, #120]	; ecb0 <i2c_write+0xa8>
    ec34:	e59f0078 	ldr	r0, [pc, #120]	; ecb4 <i2c_write+0xac>
    ec38:	eb0001e2 	bl	f3c8 <printk>
    ec3c:	eb000311 	bl	f888 <clean_reboot>
    ec40:	e7d51002 	ldrb	r1, [r5, r2]
    ec44:	e59f306c 	ldr	r3, [pc, #108]	; ecb8 <i2c_write+0xb0>
    ec48:	e5831010 	str	r1, [r3, #16]
    ec4c:	e2822001 	add	r2, r2, #1, 0
    ec50:	e1520004 	cmp	r2, r4
    ec54:	2a000011 	bcs	eca0 <i2c_write+0x98>
    ec58:	e59f3058 	ldr	r3, [pc, #88]	; ecb8 <i2c_write+0xb0>
    ec5c:	e5933004 	ldr	r3, [r3, #4]
    ec60:	e3130010 	tst	r3, #16, 0
    ec64:	1afffff5 	bne	ec40 <i2c_write+0x38>
    ec68:	e59f3048 	ldr	r3, [pc, #72]	; ecb8 <i2c_write+0xb0>
    ec6c:	e5933004 	ldr	r3, [r3, #4]
    ec70:	e3130c01 	tst	r3, #256	; 0x100
    ec74:	1affffeb 	bne	ec28 <i2c_write+0x20>
    ec78:	e59f3038 	ldr	r3, [pc, #56]	; ecb8 <i2c_write+0xb0>
    ec7c:	e5933004 	ldr	r3, [r3, #4]
    ec80:	e3130c02 	tst	r3, #512	; 0x200
    ec84:	0afffff3 	beq	ec58 <i2c_write+0x50>
    ec88:	e3a03f4a 	mov	r3, #296	; 0x128
    ec8c:	e59f2018 	ldr	r2, [pc, #24]	; ecac <i2c_write+0xa4>
    ec90:	e59f1018 	ldr	r1, [pc, #24]	; ecb0 <i2c_write+0xa8>
    ec94:	e59f0020 	ldr	r0, [pc, #32]	; ecbc <i2c_write+0xb4>
    ec98:	eb0001ca 	bl	f3c8 <printk>
    ec9c:	eb0002f9 	bl	f888 <clean_reboot>
    eca0:	ebfffeab 	bl	e754 <xfer_end>
    eca4:	e3a00001 	mov	r0, #1, 0
    eca8:	e8bd8070 	pop	{r4, r5, r6, pc}
    ecac:	00012394 	.word	0x00012394
    ecb0:	0001220c 	.word	0x0001220c
    ecb4:	00012214 	.word	0x00012214
    ecb8:	20804000 	.word	0x20804000
    ecbc:	00012238 	.word	0x00012238

0000ecc0 <i2c_read>:
    ecc0:	e92d4070 	push	{r4, r5, r6, lr}
    ecc4:	e1a05001 	mov	r5, r1
    ecc8:	e1a04002 	mov	r4, r2
    eccc:	e3a02001 	mov	r2, #1, 0
    ecd0:	e1a01004 	mov	r1, r4
    ecd4:	ebfffeef 	bl	e898 <xfer_start>
    ecd8:	e3a02000 	mov	r2, #0, 0
    ecdc:	ea000009 	b	ed08 <i2c_read+0x48>
    ece0:	e59f307c 	ldr	r3, [pc, #124]	; ed64 <i2c_read+0xa4>
    ece4:	e59f207c 	ldr	r2, [pc, #124]	; ed68 <i2c_read+0xa8>
    ece8:	e59f107c 	ldr	r1, [pc, #124]	; ed6c <i2c_read+0xac>
    ecec:	e59f007c 	ldr	r0, [pc, #124]	; ed70 <i2c_read+0xb0>
    ecf0:	eb0001b4 	bl	f3c8 <printk>
    ecf4:	eb0002e3 	bl	f888 <clean_reboot>
    ecf8:	e59f3074 	ldr	r3, [pc, #116]	; ed74 <i2c_read+0xb4>
    ecfc:	e5933010 	ldr	r3, [r3, #16]
    ed00:	e7c53002 	strb	r3, [r5, r2]
    ed04:	e2822001 	add	r2, r2, #1, 0
    ed08:	e1520004 	cmp	r2, r4
    ed0c:	2a000011 	bcs	ed58 <i2c_read+0x98>
    ed10:	e59f305c 	ldr	r3, [pc, #92]	; ed74 <i2c_read+0xb4>
    ed14:	e5933004 	ldr	r3, [r3, #4]
    ed18:	e3130020 	tst	r3, #32, 0
    ed1c:	1afffff5 	bne	ecf8 <i2c_read+0x38>
    ed20:	e59f304c 	ldr	r3, [pc, #76]	; ed74 <i2c_read+0xb4>
    ed24:	e5933004 	ldr	r3, [r3, #4]
    ed28:	e3130c01 	tst	r3, #256	; 0x100
    ed2c:	1affffeb 	bne	ece0 <i2c_read+0x20>
    ed30:	e59f303c 	ldr	r3, [pc, #60]	; ed74 <i2c_read+0xb4>
    ed34:	e5933004 	ldr	r3, [r3, #4]
    ed38:	e3130c02 	tst	r3, #512	; 0x200
    ed3c:	0afffff3 	beq	ed10 <i2c_read+0x50>
    ed40:	e59f301c 	ldr	r3, [pc, #28]	; ed64 <i2c_read+0xa4>
    ed44:	e59f201c 	ldr	r2, [pc, #28]	; ed68 <i2c_read+0xa8>
    ed48:	e59f101c 	ldr	r1, [pc, #28]	; ed6c <i2c_read+0xac>
    ed4c:	e59f0024 	ldr	r0, [pc, #36]	; ed78 <i2c_read+0xb8>
    ed50:	eb00019c 	bl	f3c8 <printk>
    ed54:	eb0002cb 	bl	f888 <clean_reboot>
    ed58:	ebfffe7d 	bl	e754 <xfer_end>
    ed5c:	e3a00001 	mov	r0, #1, 0
    ed60:	e8bd8070 	pop	{r4, r5, r6, pc}
    ed64:	0000013a 	.word	0x0000013a
    ed68:	000123a0 	.word	0x000123a0
    ed6c:	0001220c 	.word	0x0001220c
    ed70:	00012214 	.word	0x00012214
    ed74:	20804000 	.word	0x20804000
    ed78:	00012238 	.word	0x00012238

0000ed7c <i2c_discover_addr>:
    ed7c:	e92d4070 	push	{r4, r5, r6, lr}
    ed80:	e1a05000 	mov	r5, r0
    ed84:	e1a06001 	mov	r6, r1
    ed88:	e3a04000 	mov	r4, #0, 0
    ed8c:	e35400ff 	cmp	r4, #255, 0	; 0xff
    ed90:	8a00004e 	bhi	eed0 <i2c_discover_addr+0x154>
    ed94:	e3a02001 	mov	r2, #1, 0
    ed98:	e1a01002 	mov	r1, r2
    ed9c:	e1a00004 	mov	r0, r4
    eda0:	ebffff31 	bl	ea6c <xfer_start_hack>
    eda4:	e59f3154 	ldr	r3, [pc, #340]	; ef00 <i2c_discover_addr+0x184>
    eda8:	e5933004 	ldr	r3, [r3, #4]
    edac:	e3130010 	tst	r3, #16, 0
    edb0:	1a000013 	bne	ee04 <i2c_discover_addr+0x88>
    edb4:	e59f3144 	ldr	r3, [pc, #324]	; ef00 <i2c_discover_addr+0x184>
    edb8:	e5933004 	ldr	r3, [r3, #4]
    edbc:	e3130c01 	tst	r3, #256	; 0x100
    edc0:	1a000009 	bne	edec <i2c_discover_addr+0x70>
    edc4:	e59f3134 	ldr	r3, [pc, #308]	; ef00 <i2c_discover_addr+0x184>
    edc8:	e5933004 	ldr	r3, [r3, #4]
    edcc:	e3130c02 	tst	r3, #512	; 0x200
    edd0:	0afffff3 	beq	eda4 <i2c_discover_addr+0x28>
    edd4:	e59f3128 	ldr	r3, [pc, #296]	; ef04 <i2c_discover_addr+0x188>
    edd8:	e59f2128 	ldr	r2, [pc, #296]	; ef08 <i2c_discover_addr+0x18c>
    eddc:	e59f1128 	ldr	r1, [pc, #296]	; ef0c <i2c_discover_addr+0x190>
    ede0:	e59f0128 	ldr	r0, [pc, #296]	; ef10 <i2c_discover_addr+0x194>
    ede4:	eb000177 	bl	f3c8 <printk>
    ede8:	eb0002a6 	bl	f888 <clean_reboot>
    edec:	e59f3110 	ldr	r3, [pc, #272]	; ef04 <i2c_discover_addr+0x188>
    edf0:	e59f2110 	ldr	r2, [pc, #272]	; ef08 <i2c_discover_addr+0x18c>
    edf4:	e59f1110 	ldr	r1, [pc, #272]	; ef0c <i2c_discover_addr+0x190>
    edf8:	e59f0114 	ldr	r0, [pc, #276]	; ef14 <i2c_discover_addr+0x198>
    edfc:	eb000171 	bl	f3c8 <printk>
    ee00:	eb0002a0 	bl	f888 <clean_reboot>
    ee04:	e59f30f4 	ldr	r3, [pc, #244]	; ef00 <i2c_discover_addr+0x184>
    ee08:	e5835010 	str	r5, [r3, #16]
    ee0c:	e59f30ec 	ldr	r3, [pc, #236]	; ef00 <i2c_discover_addr+0x184>
    ee10:	e5933004 	ldr	r3, [r3, #4]
    ee14:	e3130010 	tst	r3, #16, 0
    ee18:	1a000013 	bne	ee6c <i2c_discover_addr+0xf0>
    ee1c:	e59f30dc 	ldr	r3, [pc, #220]	; ef00 <i2c_discover_addr+0x184>
    ee20:	e5933004 	ldr	r3, [r3, #4]
    ee24:	e3130c01 	tst	r3, #256	; 0x100
    ee28:	1a000009 	bne	ee54 <i2c_discover_addr+0xd8>
    ee2c:	e59f30cc 	ldr	r3, [pc, #204]	; ef00 <i2c_discover_addr+0x184>
    ee30:	e5933004 	ldr	r3, [r3, #4]
    ee34:	e3130c02 	tst	r3, #512	; 0x200
    ee38:	0afffff3 	beq	ee0c <i2c_discover_addr+0x90>
    ee3c:	e59f30d4 	ldr	r3, [pc, #212]	; ef18 <i2c_discover_addr+0x19c>
    ee40:	e59f20c0 	ldr	r2, [pc, #192]	; ef08 <i2c_discover_addr+0x18c>
    ee44:	e59f10c0 	ldr	r1, [pc, #192]	; ef0c <i2c_discover_addr+0x190>
    ee48:	e59f00c0 	ldr	r0, [pc, #192]	; ef10 <i2c_discover_addr+0x194>
    ee4c:	eb00015d 	bl	f3c8 <printk>
    ee50:	eb00028c 	bl	f888 <clean_reboot>
    ee54:	e59f30bc 	ldr	r3, [pc, #188]	; ef18 <i2c_discover_addr+0x19c>
    ee58:	e59f20a8 	ldr	r2, [pc, #168]	; ef08 <i2c_discover_addr+0x18c>
    ee5c:	e59f10a8 	ldr	r1, [pc, #168]	; ef0c <i2c_discover_addr+0x190>
    ee60:	e59f00ac 	ldr	r0, [pc, #172]	; ef14 <i2c_discover_addr+0x198>
    ee64:	eb000157 	bl	f3c8 <printk>
    ee68:	eb000286 	bl	f888 <clean_reboot>
    ee6c:	e59f308c 	ldr	r3, [pc, #140]	; ef00 <i2c_discover_addr+0x184>
    ee70:	e5836010 	str	r6, [r3, #16]
    ee74:	e59f3084 	ldr	r3, [pc, #132]	; ef00 <i2c_discover_addr+0x184>
    ee78:	e5933004 	ldr	r3, [r3, #4]
    ee7c:	e3130002 	tst	r3, #2, 0
    ee80:	1a000018 	bne	eee8 <i2c_discover_addr+0x16c>
    ee84:	e59f3074 	ldr	r3, [pc, #116]	; ef00 <i2c_discover_addr+0x184>
    ee88:	e5933004 	ldr	r3, [r3, #4]
    ee8c:	e3130c01 	tst	r3, #256	; 0x100
    ee90:	1a000009 	bne	eebc <i2c_discover_addr+0x140>
    ee94:	e59f3064 	ldr	r3, [pc, #100]	; ef00 <i2c_discover_addr+0x184>
    ee98:	e5933004 	ldr	r3, [r3, #4]
    ee9c:	e3130c02 	tst	r3, #512	; 0x200
    eea0:	0afffff3 	beq	ee74 <i2c_discover_addr+0xf8>
    eea4:	e59f3070 	ldr	r3, [pc, #112]	; ef1c <i2c_discover_addr+0x1a0>
    eea8:	e59f2058 	ldr	r2, [pc, #88]	; ef08 <i2c_discover_addr+0x18c>
    eeac:	e59f1058 	ldr	r1, [pc, #88]	; ef0c <i2c_discover_addr+0x190>
    eeb0:	e59f0068 	ldr	r0, [pc, #104]	; ef20 <i2c_discover_addr+0x1a4>
    eeb4:	eb000143 	bl	f3c8 <printk>
    eeb8:	eb000272 	bl	f888 <clean_reboot>
    eebc:	e1a01004 	mov	r1, r4
    eec0:	e59f005c 	ldr	r0, [pc, #92]	; ef24 <i2c_discover_addr+0x1a8>
    eec4:	eb00013f 	bl	f3c8 <printk>
    eec8:	e2844001 	add	r4, r4, #1, 0
    eecc:	eaffffae 	b	ed8c <i2c_discover_addr+0x10>
    eed0:	e59f3050 	ldr	r3, [pc, #80]	; ef28 <i2c_discover_addr+0x1ac>
    eed4:	e59f202c 	ldr	r2, [pc, #44]	; ef08 <i2c_discover_addr+0x18c>
    eed8:	e59f102c 	ldr	r1, [pc, #44]	; ef0c <i2c_discover_addr+0x190>
    eedc:	e59f0048 	ldr	r0, [pc, #72]	; ef2c <i2c_discover_addr+0x1b0>
    eee0:	eb000138 	bl	f3c8 <printk>
    eee4:	eb000267 	bl	f888 <clean_reboot>
    eee8:	e1a01004 	mov	r1, r4
    eeec:	e59f003c 	ldr	r0, [pc, #60]	; ef30 <i2c_discover_addr+0x1b4>
    eef0:	eb000134 	bl	f3c8 <printk>
    eef4:	ebfffe16 	bl	e754 <xfer_end>
    eef8:	e6ef0074 	uxtb	r0, r4
    eefc:	e8bd8070 	pop	{r4, r5, r6, pc}
    ef00:	20804000 	.word	0x20804000
    ef04:	00000167 	.word	0x00000167
    ef08:	000123ac 	.word	0x000123ac
    ef0c:	0001220c 	.word	0x0001220c
    ef10:	00012238 	.word	0x00012238
    ef14:	00012214 	.word	0x00012214
    ef18:	00000169 	.word	0x00000169
    ef1c:	00000177 	.word	0x00000177
    ef20:	0001231c 	.word	0x0001231c
    ef24:	00012300 	.word	0x00012300
    ef28:	0000017a 	.word	0x0000017a
    ef2c:	0001234c 	.word	0x0001234c
    ef30:	000122d4 	.word	0x000122d4

0000ef34 <i2c_is_initialized>:
    ef34:	e59f3004 	ldr	r3, [pc, #4]	; ef40 <i2c_is_initialized+0xc>
    ef38:	e5930000 	ldr	r0, [r3]
    ef3c:	e12fff1e 	bx	lr
    ef40:	00013544 	.word	0x00013544

0000ef44 <i2c_init>:
    ef44:	e92d4010 	push	{r4, lr}
    ef48:	e24dd008 	sub	sp, sp, #8, 0
    ef4c:	eb000288 	bl	f974 <dev_barrier>
    ef50:	e3a01004 	mov	r1, #4, 0
    ef54:	e3a00002 	mov	r0, #2, 0
    ef58:	eb000029 	bl	f004 <gpio_set_function>
    ef5c:	e3a01004 	mov	r1, #4, 0
    ef60:	e3a00003 	mov	r0, #3, 0
    ef64:	eb000026 	bl	f004 <gpio_set_function>
    ef68:	eb000281 	bl	f974 <dev_barrier>
    ef6c:	e59f405c 	ldr	r4, [pc, #92]	; efd0 <i2c_init+0x8c>
    ef70:	e3a01902 	mov	r1, #32768	; 0x8000
    ef74:	e1a00004 	mov	r0, r4
    ef78:	ebffe429 	bl	8024 <PUT32>
    ef7c:	e3a03082 	mov	r3, #130, 0	; 0x82
    ef80:	e5843014 	str	r3, [r4, #20]
    ef84:	eb00027a 	bl	f974 <dev_barrier>
    ef88:	ebfffe34 	bl	e860 <reset_status>
    ef8c:	eb000278 	bl	f974 <dev_barrier>
    ef90:	e5943004 	ldr	r3, [r4, #4]
    ef94:	e3130001 	tst	r3, #1, 0
    ef98:	1a000004 	bne	efb0 <i2c_init+0x6c>
    ef9c:	e59f3030 	ldr	r3, [pc, #48]	; efd4 <i2c_init+0x90>
    efa0:	e3a02001 	mov	r2, #1, 0
    efa4:	e5832000 	str	r2, [r3]
    efa8:	e28dd008 	add	sp, sp, #8, 0
    efac:	e8bd8010 	pop	{r4, pc}
    efb0:	e59f3020 	ldr	r3, [pc, #32]	; efd8 <i2c_init+0x94>
    efb4:	e58d3000 	str	r3, [sp]
    efb8:	e59f301c 	ldr	r3, [pc, #28]	; efdc <i2c_init+0x98>
    efbc:	e59f201c 	ldr	r2, [pc, #28]	; efe0 <i2c_init+0x9c>
    efc0:	e59f101c 	ldr	r1, [pc, #28]	; efe4 <i2c_init+0xa0>
    efc4:	e59f001c 	ldr	r0, [pc, #28]	; efe8 <i2c_init+0xa4>
    efc8:	eb0000fe 	bl	f3c8 <printk>
    efcc:	eb00022d 	bl	f888 <clean_reboot>
    efd0:	20804000 	.word	0x20804000
    efd4:	00013544 	.word	0x00013544
    efd8:	00012268 	.word	0x00012268
    efdc:	000001ae 	.word	0x000001ae
    efe0:	000123c0 	.word	0x000123c0
    efe4:	0001220c 	.word	0x0001220c
    efe8:	0000ff5c 	.word	0x0000ff5c

0000efec <i2c_init_once>:
    efec:	e92d4010 	push	{r4, lr}
    eff0:	ebffffcf 	bl	ef34 <i2c_is_initialized>
    eff4:	e3500000 	cmp	r0, #0, 0
    eff8:	18bd8010 	popne	{r4, pc}
    effc:	ebffffd0 	bl	ef44 <i2c_init>
    f000:	e8bd8010 	pop	{r4, pc}

0000f004 <gpio_set_function>:
    f004:	e350002f 	cmp	r0, #47, 0	; 0x2f
    f008:	1350001f 	cmpne	r0, #31, 0
    f00c:	812fff1e 	bxhi	lr
    f010:	e92d4070 	push	{r4, r5, r6, lr}
    f014:	e1a05001 	mov	r5, r1
    f018:	e3510007 	cmp	r1, #7, 0
    f01c:	88bd8070 	pophi	{r4, r5, r6, pc}
    f020:	e350002f 	cmp	r0, #47, 0	; 0x2f
    f024:	13a03000 	movne	r3, #0, 0
    f028:	03a03001 	moveq	r3, #1, 0
    f02c:	e3510001 	cmp	r1, #1, 0
    f030:	03a03000 	moveq	r3, #0, 0
    f034:	e3530000 	cmp	r3, #0, 0
    f038:	18bd8070 	popne	{r4, r5, r6, pc}
    f03c:	e59f303c 	ldr	r3, [pc, #60]	; f080 <gpio_set_function+0x7c>
    f040:	e0832093 	umull	r2, r3, r3, r0
    f044:	e1a031a3 	lsr	r3, r3, #3
    f048:	e0834103 	add	r4, r3, r3, lsl #2
    f04c:	e0404084 	sub	r4, r0, r4, lsl #1
    f050:	e2830302 	add	r0, r3, #134217728	; 0x8000000
    f054:	e2800702 	add	r0, r0, #524288	; 0x80000
    f058:	e1a06100 	lsl	r6, r0, #2
    f05c:	e1a00006 	mov	r0, r6
    f060:	ebffe3f1 	bl	802c <GET32>
    f064:	e0844084 	add	r4, r4, r4, lsl #1
    f068:	e3a01007 	mov	r1, #7, 0
    f06c:	e1c01411 	bic	r1, r0, r1, lsl r4
    f070:	e1811415 	orr	r1, r1, r5, lsl r4
    f074:	e1a00006 	mov	r0, r6
    f078:	ebffe3e9 	bl	8024 <PUT32>
    f07c:	e8bd8070 	pop	{r4, r5, r6, pc}
    f080:	cccccccd 	.word	0xcccccccd

0000f084 <gpio_set_output>:
    f084:	e92d4010 	push	{r4, lr}
    f088:	e3a01001 	mov	r1, #1, 0
    f08c:	ebffffdc 	bl	f004 <gpio_set_function>
    f090:	e8bd8010 	pop	{r4, pc}

0000f094 <gpio_set_on>:
    f094:	e350002f 	cmp	r0, #47, 0	; 0x2f
    f098:	1350001f 	cmpne	r0, #31, 0
    f09c:	812fff1e 	bxhi	lr
    f0a0:	e92d4010 	push	{r4, lr}
    f0a4:	e200201f 	and	r2, r0, #31, 0
    f0a8:	e59f3014 	ldr	r3, [pc, #20]	; f0c4 <gpio_set_on+0x30>
    f0ac:	e08302a0 	add	r0, r3, r0, lsr #5
    f0b0:	e3a01001 	mov	r1, #1, 0
    f0b4:	e1a01211 	lsl	r1, r1, r2
    f0b8:	e1a00100 	lsl	r0, r0, #2
    f0bc:	ebffe3d8 	bl	8024 <PUT32>
    f0c0:	e8bd8010 	pop	{r4, pc}
    f0c4:	08080007 	.word	0x08080007

0000f0c8 <gpio_set_off>:
    f0c8:	e350002f 	cmp	r0, #47, 0	; 0x2f
    f0cc:	1350001f 	cmpne	r0, #31, 0
    f0d0:	812fff1e 	bxhi	lr
    f0d4:	e92d4010 	push	{r4, lr}
    f0d8:	e200201f 	and	r2, r0, #31, 0
    f0dc:	e59f3014 	ldr	r3, [pc, #20]	; f0f8 <gpio_set_off+0x30>
    f0e0:	e08302a0 	add	r0, r3, r0, lsr #5
    f0e4:	e3a01001 	mov	r1, #1, 0
    f0e8:	e1a01211 	lsl	r1, r1, r2
    f0ec:	e1a00100 	lsl	r0, r0, #2
    f0f0:	ebffe3cb 	bl	8024 <PUT32>
    f0f4:	e8bd8010 	pop	{r4, pc}
    f0f8:	0808000a 	.word	0x0808000a

0000f0fc <gpio_write>:
    f0fc:	e92d4010 	push	{r4, lr}
    f100:	e3510000 	cmp	r1, #0, 0
    f104:	0a000001 	beq	f110 <gpio_write+0x14>
    f108:	ebffffe1 	bl	f094 <gpio_set_on>
    f10c:	e8bd8010 	pop	{r4, pc}
    f110:	ebffffec 	bl	f0c8 <gpio_set_off>
    f114:	e8bd8010 	pop	{r4, pc}

0000f118 <gpio_set_input>:
    f118:	e92d4010 	push	{r4, lr}
    f11c:	e3a01000 	mov	r1, #0, 0
    f120:	ebffffb7 	bl	f004 <gpio_set_function>
    f124:	e8bd8010 	pop	{r4, pc}

0000f128 <gpio_read>:
    f128:	e92d4010 	push	{r4, lr}
    f12c:	e1a04000 	mov	r4, r0
    f130:	e59f0018 	ldr	r0, [pc, #24]	; f150 <gpio_read+0x28>
    f134:	e08002a4 	add	r0, r0, r4, lsr #5
    f138:	e1a00100 	lsl	r0, r0, #2
    f13c:	ebffe3ba 	bl	802c <GET32>
    f140:	e204401f 	and	r4, r4, #31, 0
    f144:	e1a00430 	lsr	r0, r0, r4
    f148:	e2000001 	and	r0, r0, #1, 0
    f14c:	e8bd8010 	pop	{r4, pc}
    f150:	0808000d 	.word	0x0808000d

0000f154 <our_crc32_inc>:
    f154:	e1e02002 	mvn	r2, r2
    f158:	e241c001 	sub	ip, r1, #1, 0
    f15c:	e3510000 	cmp	r1, #0, 0
    f160:	0a000007 	beq	f184 <our_crc32_inc+0x30>
    f164:	e4d03001 	ldrb	r3, [r0], #1
    f168:	e0233002 	eor	r3, r3, r2
    f16c:	e6ef3073 	uxtb	r3, r3
    f170:	e59f1014 	ldr	r1, [pc, #20]	; f18c <our_crc32_inc+0x38>
    f174:	e7913103 	ldr	r3, [r1, r3, lsl #2]
    f178:	e0232422 	eor	r2, r3, r2, lsr #8
    f17c:	e1a0100c 	mov	r1, ip
    f180:	eafffff4 	b	f158 <our_crc32_inc+0x4>
    f184:	e1e00002 	mvn	r0, r2
    f188:	e12fff1e 	bx	lr
    f18c:	000123cc 	.word	0x000123cc

0000f190 <our_crc32>:
    f190:	e92d4010 	push	{r4, lr}
    f194:	e3a02000 	mov	r2, #0, 0
    f198:	ebffffed 	bl	f154 <our_crc32_inc>
    f19c:	e8bd8010 	pop	{r4, pc}

0000f1a0 <memcmp>:
    f1a0:	e52de004 	push	{lr}		; (str lr, [sp, #-4]!)
    f1a4:	e1a0e000 	mov	lr, r0
    f1a8:	e3a03000 	mov	r3, #0, 0
    f1ac:	e1530002 	cmp	r3, r2
    f1b0:	2a000005 	bcs	f1cc <memcmp+0x2c>
    f1b4:	e7dec003 	ldrb	ip, [lr, r3]
    f1b8:	e7d10003 	ldrb	r0, [r1, r3]
    f1bc:	e05c0000 	subs	r0, ip, r0
    f1c0:	149df004 	popne	{pc}		; (ldrne pc, [sp], #4)
    f1c4:	e2833001 	add	r3, r3, #1, 0
    f1c8:	eafffff7 	b	f1ac <memcmp+0xc>
    f1cc:	e3a00000 	mov	r0, #0, 0
    f1d0:	e49df004 	pop	{pc}		; (ldr pc, [sp], #4)

0000f1d4 <memcpy256>:
    f1d4:	e92d40f0 	push	{r4, r5, r6, r7, lr}
    f1d8:	e24dd00c 	sub	sp, sp, #12, 0
    f1dc:	e212401f 	ands	r4, r2, #31, 0
    f1e0:	01a06000 	moveq	r6, r0
    f1e4:	01a07001 	moveq	r7, r1
    f1e8:	01a052a2 	lsreq	r5, r2, #5
    f1ec:	0a00000f 	beq	f230 <memcpy256+0x5c>
    f1f0:	e3a03020 	mov	r3, #32, 0
    f1f4:	e58d3004 	str	r3, [sp, #4]
    f1f8:	e58d2000 	str	r2, [sp]
    f1fc:	e3a0300f 	mov	r3, #15, 0
    f200:	e59f2038 	ldr	r2, [pc, #56]	; f240 <memcpy256+0x6c>
    f204:	e59f1038 	ldr	r1, [pc, #56]	; f244 <memcpy256+0x70>
    f208:	e59f0038 	ldr	r0, [pc, #56]	; f248 <memcpy256+0x74>
    f20c:	eb00006d 	bl	f3c8 <printk>
    f210:	eb00019c 	bl	f888 <clean_reboot>
    f214:	e086c284 	add	ip, r6, r4, lsl #5
    f218:	e087e284 	add	lr, r7, r4, lsl #5
    f21c:	e8be000f 	ldm	lr!, {r0, r1, r2, r3}
    f220:	e8ac000f 	stmia	ip!, {r0, r1, r2, r3}
    f224:	e89e000f 	ldm	lr, {r0, r1, r2, r3}
    f228:	e88c000f 	stm	ip, {r0, r1, r2, r3}
    f22c:	e2844001 	add	r4, r4, #1, 0
    f230:	e1540005 	cmp	r4, r5
    f234:	3afffff6 	bcc	f214 <memcpy256+0x40>
    f238:	e28dd00c 	add	sp, sp, #12, 0
    f23c:	e8bd80f0 	pop	{r4, r5, r6, r7, pc}
    f240:	00012818 	.word	0x00012818
    f244:	000127cc 	.word	0x000127cc
    f248:	000127dc 	.word	0x000127dc

0000f24c <memcpy>:
    f24c:	e3100007 	tst	r0, #7, 0
    f250:	1a00000f 	bne	f294 <memcpy+0x48>
    f254:	e3110007 	tst	r1, #7, 0
    f258:	1a00000d 	bne	f294 <memcpy+0x48>
    f25c:	e2123007 	ands	r3, r2, #7, 0
    f260:	1a00000b 	bne	f294 <memcpy+0x48>
    f264:	e1a021a2 	lsr	r2, r2, #3
    f268:	e1530002 	cmp	r3, r2
    f26c:	212fff1e 	bxcs	lr
    f270:	e92d0030 	push	{r4, r5}
    f274:	e1a0c183 	lsl	ip, r3, #3
    f278:	e18140dc 	ldrd	r4, [r1, ip]
    f27c:	e18040fc 	strd	r4, [r0, ip]
    f280:	e2833001 	add	r3, r3, #1, 0
    f284:	e1530002 	cmp	r3, r2
    f288:	3afffff9 	bcc	f274 <memcpy+0x28>
    f28c:	e8bd0030 	pop	{r4, r5}
    f290:	e12fff1e 	bx	lr
    f294:	e2103003 	ands	r3, r0, #3, 0
    f298:	1a000011 	bne	f2e4 <memcpy+0x98>
    f29c:	e211c003 	ands	ip, r1, #3, 0
    f2a0:	1a00000c 	bne	f2d8 <memcpy+0x8c>
    f2a4:	e2123003 	ands	r3, r2, #3, 0
    f2a8:	1a00000f 	bne	f2ec <memcpy+0xa0>
    f2ac:	e1a02122 	lsr	r2, r2, #2
    f2b0:	ea000002 	b	f2c0 <memcpy+0x74>
    f2b4:	e791c103 	ldr	ip, [r1, r3, lsl #2]
    f2b8:	e780c103 	str	ip, [r0, r3, lsl #2]
    f2bc:	e2833001 	add	r3, r3, #1, 0
    f2c0:	e1530002 	cmp	r3, r2
    f2c4:	3afffffa 	bcc	f2b4 <memcpy+0x68>
    f2c8:	e12fff1e 	bx	lr
    f2cc:	e7d1c003 	ldrb	ip, [r1, r3]
    f2d0:	e7c0c003 	strb	ip, [r0, r3]
    f2d4:	e2833001 	add	r3, r3, #1, 0
    f2d8:	e1530002 	cmp	r3, r2
    f2dc:	3afffffa 	bcc	f2cc <memcpy+0x80>
    f2e0:	e12fff1e 	bx	lr
    f2e4:	e3a03000 	mov	r3, #0, 0
    f2e8:	eafffffa 	b	f2d8 <memcpy+0x8c>
    f2ec:	e1a0300c 	mov	r3, ip
    f2f0:	eafffff8 	b	f2d8 <memcpy+0x8c>

0000f2f4 <memcpy_end>:
    f2f4:	e12fff1e 	bx	lr

0000f2f8 <memiszero>:
    f2f8:	e3a03000 	mov	r3, #0, 0
    f2fc:	e1530001 	cmp	r3, r1
    f300:	2a000004 	bcs	f318 <memiszero+0x20>
    f304:	e7d02003 	ldrb	r2, [r0, r3]
    f308:	e3520000 	cmp	r2, #0, 0
    f30c:	1a000003 	bne	f320 <memiszero+0x28>
    f310:	e2833001 	add	r3, r3, #1, 0
    f314:	eafffff8 	b	f2fc <memiszero+0x4>
    f318:	e3a00001 	mov	r0, #1, 0
    f31c:	e12fff1e 	bx	lr
    f320:	e3a00000 	mov	r0, #0, 0
    f324:	e12fff1e 	bx	lr

0000f328 <memset>:
    f328:	e3520000 	cmp	r2, #0, 0
    f32c:	012fff1e 	bxeq	lr
    f330:	e3510000 	cmp	r1, #0, 0
    f334:	1a000007 	bne	f358 <memset+0x30>
    f338:	e3100007 	tst	r0, #7, 0
    f33c:	1a000001 	bne	f348 <memset+0x20>
    f340:	e3120007 	tst	r2, #7, 0
    f344:	0a000011 	beq	f390 <memset+0x68>
    f348:	e3100003 	tst	r0, #3, 0
    f34c:	1a000001 	bne	f358 <memset+0x30>
    f350:	e3120003 	tst	r2, #3, 0
    f354:	0a000001 	beq	f360 <memset+0x38>
    f358:	e0802002 	add	r2, r0, r2
    f35c:	ea000008 	b	f384 <memset+0x5c>
    f360:	e1a02122 	lsr	r2, r2, #2
    f364:	ea000001 	b	f370 <memset+0x48>
    f368:	e4801004 	str	r1, [r0], #4
    f36c:	e1a02003 	mov	r2, r3
    f370:	e2423001 	sub	r3, r2, #1, 0
    f374:	e3520000 	cmp	r2, #0, 0
    f378:	1afffffa 	bne	f368 <memset+0x40>
    f37c:	e12fff1e 	bx	lr
    f380:	e4c01001 	strb	r1, [r0], #1
    f384:	e1500002 	cmp	r0, r2
    f388:	3afffffc 	bcc	f380 <memset+0x58>
    f38c:	e12fff1e 	bx	lr
    f390:	e1a021a2 	lsr	r2, r2, #3
    f394:	e2423001 	sub	r3, r2, #1, 0
    f398:	e3520000 	cmp	r2, #0, 0
    f39c:	012fff1e 	bxeq	lr
    f3a0:	e92d0030 	push	{r4, r5}
    f3a4:	e1a04001 	mov	r4, r1
    f3a8:	e1a05fc1 	asr	r5, r1, #31
    f3ac:	e0c040f8 	strd	r4, [r0], #8
    f3b0:	e1a02003 	mov	r2, r3
    f3b4:	e2433001 	sub	r3, r3, #1, 0
    f3b8:	e3520000 	cmp	r2, #0, 0
    f3bc:	1afffff8 	bne	f3a4 <memset+0x7c>
    f3c0:	e8bd0030 	pop	{r4, r5}
    f3c4:	e12fff1e 	bx	lr

0000f3c8 <printk>:
    f3c8:	e92d000f 	push	{r0, r1, r2, r3}
    f3cc:	e52de004 	push	{lr}		; (str lr, [sp, #-4]!)
    f3d0:	e24dd00c 	sub	sp, sp, #12, 0
    f3d4:	e28d1014 	add	r1, sp, #20, 0
    f3d8:	e58d1004 	str	r1, [sp, #4]
    f3dc:	e59d0010 	ldr	r0, [sp, #16]
    f3e0:	eb000047 	bl	f504 <vprintk>
    f3e4:	e28dd00c 	add	sp, sp, #12, 0
    f3e8:	e49de004 	pop	{lr}		; (ldr lr, [sp], #4)
    f3ec:	e28dd010 	add	sp, sp, #16, 0
    f3f0:	e12fff1e 	bx	lr

0000f3f4 <emit_val>:
    f3f4:	e92d4010 	push	{r4, lr}
    f3f8:	e24dd030 	sub	sp, sp, #48, 0	; 0x30
    f3fc:	e350000a 	cmp	r0, #10, 0
    f400:	0a000014 	beq	f458 <emit_val+0x64>
    f404:	e3500010 	cmp	r0, #16, 0
    f408:	0a000022 	beq	f498 <emit_val+0xa4>
    f40c:	e3500002 	cmp	r0, #2, 0
    f410:	0a000006 	beq	f430 <emit_val+0x3c>
    f414:	e58d0000 	str	r0, [sp]
    f418:	e3a0301b 	mov	r3, #27, 0
    f41c:	e59f20c0 	ldr	r2, [pc, #192]	; f4e4 <emit_val+0xf0>
    f420:	e59f10c0 	ldr	r1, [pc, #192]	; f4e8 <emit_val+0xf4>
    f424:	e59f00c0 	ldr	r0, [pc, #192]	; f4ec <emit_val+0xf8>
    f428:	ebffffe6 	bl	f3c8 <printk>
    f42c:	eb000115 	bl	f888 <clean_reboot>
    f430:	e28d400c 	add	r4, sp, #12, 0
    f434:	e2012001 	and	r2, r1, #1, 0
    f438:	e59f00b0 	ldr	r0, [pc, #176]	; f4f0 <emit_val+0xfc>
    f43c:	e7d02002 	ldrb	r2, [r0, r2]
    f440:	e5c42000 	strb	r2, [r4]
    f444:	e2844001 	add	r4, r4, #1, 0
    f448:	e3510001 	cmp	r1, #1, 0
    f44c:	e1a010a1 	lsr	r1, r1, #1
    f450:	8afffff7 	bhi	f434 <emit_val+0x40>
    f454:	ea00001d 	b	f4d0 <emit_val+0xdc>
    f458:	e28d400c 	add	r4, sp, #12, 0
    f45c:	e59f3090 	ldr	r3, [pc, #144]	; f4f4 <emit_val+0x100>
    f460:	e0832193 	umull	r2, r3, r3, r1
    f464:	e1a031a3 	lsr	r3, r3, #3
    f468:	e1a00003 	mov	r0, r3
    f46c:	e0833103 	add	r3, r3, r3, lsl #2
    f470:	e0413083 	sub	r3, r1, r3, lsl #1
    f474:	e59fc07c 	ldr	ip, [pc, #124]	; f4f8 <emit_val+0x104>
    f478:	e7dcc003 	ldrb	ip, [ip, r3]
    f47c:	e5c4c000 	strb	ip, [r4]
    f480:	e2844001 	add	r4, r4, #1, 0
    f484:	e1a03001 	mov	r3, r1
    f488:	e1a01000 	mov	r1, r0
    f48c:	e3530009 	cmp	r3, #9, 0
    f490:	8afffff1 	bhi	f45c <emit_val+0x68>
    f494:	ea00000d 	b	f4d0 <emit_val+0xdc>
    f498:	e28d400c 	add	r4, sp, #12, 0
    f49c:	e201200f 	and	r2, r1, #15, 0
    f4a0:	e59f0054 	ldr	r0, [pc, #84]	; f4fc <emit_val+0x108>
    f4a4:	e7d02002 	ldrb	r2, [r0, r2]
    f4a8:	e5c42000 	strb	r2, [r4]
    f4ac:	e2844001 	add	r4, r4, #1, 0
    f4b0:	e351000f 	cmp	r1, #15, 0
    f4b4:	e1a01221 	lsr	r1, r1, #4
    f4b8:	8afffff7 	bhi	f49c <emit_val+0xa8>
    f4bc:	ea000003 	b	f4d0 <emit_val+0xdc>
    f4c0:	e59f3038 	ldr	r3, [pc, #56]	; f500 <emit_val+0x10c>
    f4c4:	e5933000 	ldr	r3, [r3]
    f4c8:	e5740001 	ldrb	r0, [r4, #-1]!
    f4cc:	e12fff33 	blx	r3
    f4d0:	e28d300c 	add	r3, sp, #12, 0
    f4d4:	e1540003 	cmp	r4, r3
    f4d8:	8afffff8 	bhi	f4c0 <emit_val+0xcc>
    f4dc:	e28dd030 	add	sp, sp, #48, 0	; 0x30
    f4e0:	e8bd8010 	pop	{r4, pc}
    f4e4:	000128dc 	.word	0x000128dc
    f4e8:	00012824 	.word	0x00012824
    f4ec:	00012834 	.word	0x00012834
    f4f0:	00012858 	.word	0x00012858
    f4f4:	cccccccd 	.word	0xcccccccd
    f4f8:	0001285c 	.word	0x0001285c
    f4fc:	00012868 	.word	0x00012868
    f500:	00012a10 	.word	0x00012a10

0000f504 <vprintk>:
    f504:	e92d4030 	push	{r4, r5, lr}
    f508:	e24dd014 	sub	sp, sp, #20, 0
    f50c:	e1a04000 	mov	r4, r0
    f510:	e58d100c 	str	r1, [sp, #12]
    f514:	ea000003 	b	f528 <vprintk+0x24>
    f518:	e59f3288 	ldr	r3, [pc, #648]	; f7a8 <vprintk+0x2a4>
    f51c:	e5933000 	ldr	r3, [r3]
    f520:	e12fff33 	blx	r3
    f524:	e2844001 	add	r4, r4, #1, 0
    f528:	e5d40000 	ldrb	r0, [r4]
    f52c:	e3500000 	cmp	r0, #0, 0
    f530:	0a00009a 	beq	f7a0 <vprintk+0x29c>
    f534:	e3500025 	cmp	r0, #37, 0	; 0x25
    f538:	1afffff6 	bne	f518 <vprintk+0x14>
    f53c:	e2845001 	add	r5, r4, #1, 0
    f540:	e5d42001 	ldrb	r2, [r4, #1]
    f544:	e2423062 	sub	r3, r2, #98, 0	; 0x62
    f548:	e3530016 	cmp	r3, #22, 0
    f54c:	979ff103 	ldrls	pc, [pc, r3, lsl #2]
    f550:	ea00008b 	b	f784 <vprintk+0x280>
    f554:	0000f5b0 	.word	0x0000f5b0
    f558:	0000f5f0 	.word	0x0000f5f0
    f55c:	0000f708 	.word	0x0000f708
    f560:	0000f784 	.word	0x0000f784
    f564:	0000f784 	.word	0x0000f784
    f568:	0000f784 	.word	0x0000f784
    f56c:	0000f784 	.word	0x0000f784
    f570:	0000f784 	.word	0x0000f784
    f574:	0000f784 	.word	0x0000f784
    f578:	0000f784 	.word	0x0000f784
    f57c:	0000f614 	.word	0x0000f614
    f580:	0000f784 	.word	0x0000f784
    f584:	0000f784 	.word	0x0000f784
    f588:	0000f784 	.word	0x0000f784
    f58c:	0000f6cc 	.word	0x0000f6cc
    f590:	0000f784 	.word	0x0000f784
    f594:	0000f784 	.word	0x0000f784
    f598:	0000f74c 	.word	0x0000f74c
    f59c:	0000f784 	.word	0x0000f784
    f5a0:	0000f5d0 	.word	0x0000f5d0
    f5a4:	0000f784 	.word	0x0000f784
    f5a8:	0000f784 	.word	0x0000f784
    f5ac:	0000f6cc 	.word	0x0000f6cc
    f5b0:	e59d300c 	ldr	r3, [sp, #12]
    f5b4:	e2832004 	add	r2, r3, #4, 0
    f5b8:	e58d200c 	str	r2, [sp, #12]
    f5bc:	e5931000 	ldr	r1, [r3]
    f5c0:	e3a00002 	mov	r0, #2, 0
    f5c4:	ebffff8a 	bl	f3f4 <emit_val>
    f5c8:	e1a04005 	mov	r4, r5
    f5cc:	eaffffd4 	b	f524 <vprintk+0x20>
    f5d0:	e59d300c 	ldr	r3, [sp, #12]
    f5d4:	e2832004 	add	r2, r3, #4, 0
    f5d8:	e58d200c 	str	r2, [sp, #12]
    f5dc:	e5931000 	ldr	r1, [r3]
    f5e0:	e3a0000a 	mov	r0, #10, 0
    f5e4:	ebffff82 	bl	f3f4 <emit_val>
    f5e8:	e1a04005 	mov	r4, r5
    f5ec:	eaffffcc 	b	f524 <vprintk+0x20>
    f5f0:	e59f31b0 	ldr	r3, [pc, #432]	; f7a8 <vprintk+0x2a4>
    f5f4:	e5932000 	ldr	r2, [r3]
    f5f8:	e59d300c 	ldr	r3, [sp, #12]
    f5fc:	e2831004 	add	r1, r3, #4, 0
    f600:	e58d100c 	str	r1, [sp, #12]
    f604:	e5930000 	ldr	r0, [r3]
    f608:	e12fff32 	blx	r2
    f60c:	e1a04005 	mov	r4, r5
    f610:	eaffffc3 	b	f524 <vprintk+0x20>
    f614:	e2842002 	add	r2, r4, #2, 0
    f618:	e5d43002 	ldrb	r3, [r4, #2]
    f61c:	e353006c 	cmp	r3, #108, 0	; 0x6c
    f620:	1a000018 	bne	f688 <vprintk+0x184>
    f624:	e2845003 	add	r5, r4, #3, 0
    f628:	e5d43003 	ldrb	r3, [r4, #3]
    f62c:	e3530078 	cmp	r3, #120, 0	; 0x78
    f630:	1a00001b 	bne	f6a4 <vprintk+0x1a0>
    f634:	e59f416c 	ldr	r4, [pc, #364]	; f7a8 <vprintk+0x2a4>
    f638:	e5943000 	ldr	r3, [r4]
    f63c:	e3a00030 	mov	r0, #48, 0	; 0x30
    f640:	e12fff33 	blx	r3
    f644:	e5943000 	ldr	r3, [r4]
    f648:	e3a00078 	mov	r0, #120, 0	; 0x78
    f64c:	e12fff33 	blx	r3
    f650:	e59d300c 	ldr	r3, [sp, #12]
    f654:	e2833007 	add	r3, r3, #7, 0
    f658:	e3c33007 	bic	r3, r3, #7, 0
    f65c:	e2832008 	add	r2, r3, #8, 0
    f660:	e58d200c 	str	r2, [sp, #12]
    f664:	e5934000 	ldr	r4, [r3]
    f668:	e5931004 	ldr	r1, [r3, #4]
    f66c:	e3510000 	cmp	r1, #0, 0
    f670:	1a000012 	bne	f6c0 <vprintk+0x1bc>
    f674:	e1a01004 	mov	r1, r4
    f678:	e3a00010 	mov	r0, #16, 0
    f67c:	ebffff5c 	bl	f3f4 <emit_val>
    f680:	e1a04005 	mov	r4, r5
    f684:	eaffffa6 	b	f524 <vprintk+0x20>
    f688:	e58d2000 	str	r2, [sp]
    f68c:	e3a0303b 	mov	r3, #59, 0	; 0x3b
    f690:	e59f2114 	ldr	r2, [pc, #276]	; f7ac <vprintk+0x2a8>
    f694:	e59f1114 	ldr	r1, [pc, #276]	; f7b0 <vprintk+0x2ac>
    f698:	e59f0114 	ldr	r0, [pc, #276]	; f7b4 <vprintk+0x2b0>
    f69c:	ebffff49 	bl	f3c8 <printk>
    f6a0:	eb000078 	bl	f888 <clean_reboot>
    f6a4:	e58d5000 	str	r5, [sp]
    f6a8:	e3a0303e 	mov	r3, #62, 0	; 0x3e
    f6ac:	e59f20f8 	ldr	r2, [pc, #248]	; f7ac <vprintk+0x2a8>
    f6b0:	e59f10f8 	ldr	r1, [pc, #248]	; f7b0 <vprintk+0x2ac>
    f6b4:	e59f00f8 	ldr	r0, [pc, #248]	; f7b4 <vprintk+0x2b0>
    f6b8:	ebffff42 	bl	f3c8 <printk>
    f6bc:	eb000071 	bl	f888 <clean_reboot>
    f6c0:	e3a00010 	mov	r0, #16, 0
    f6c4:	ebffff4a 	bl	f3f4 <emit_val>
    f6c8:	eaffffe9 	b	f674 <vprintk+0x170>
    f6cc:	e59f40d4 	ldr	r4, [pc, #212]	; f7a8 <vprintk+0x2a4>
    f6d0:	e5943000 	ldr	r3, [r4]
    f6d4:	e3a00030 	mov	r0, #48, 0	; 0x30
    f6d8:	e12fff33 	blx	r3
    f6dc:	e5943000 	ldr	r3, [r4]
    f6e0:	e3a00078 	mov	r0, #120, 0	; 0x78
    f6e4:	e12fff33 	blx	r3
    f6e8:	e59d300c 	ldr	r3, [sp, #12]
    f6ec:	e2832004 	add	r2, r3, #4, 0
    f6f0:	e58d200c 	str	r2, [sp, #12]
    f6f4:	e5931000 	ldr	r1, [r3]
    f6f8:	e3a00010 	mov	r0, #16, 0
    f6fc:	ebffff3c 	bl	f3f4 <emit_val>
    f700:	e1a04005 	mov	r4, r5
    f704:	eaffff86 	b	f524 <vprintk+0x20>
    f708:	e59d300c 	ldr	r3, [sp, #12]
    f70c:	e2832004 	add	r2, r3, #4, 0
    f710:	e58d200c 	str	r2, [sp, #12]
    f714:	e5934000 	ldr	r4, [r3]
    f718:	e3540000 	cmp	r4, #0, 0
    f71c:	ba000004 	blt	f734 <vprintk+0x230>
    f720:	e1a01004 	mov	r1, r4
    f724:	e3a0000a 	mov	r0, #10, 0
    f728:	ebffff31 	bl	f3f4 <emit_val>
    f72c:	e1a04005 	mov	r4, r5
    f730:	eaffff7b 	b	f524 <vprintk+0x20>
    f734:	e59f306c 	ldr	r3, [pc, #108]	; f7a8 <vprintk+0x2a4>
    f738:	e5933000 	ldr	r3, [r3]
    f73c:	e3a0002d 	mov	r0, #45, 0	; 0x2d
    f740:	e12fff33 	blx	r3
    f744:	e2644000 	rsb	r4, r4, #0, 0
    f748:	eafffff4 	b	f720 <vprintk+0x21c>
    f74c:	e59d300c 	ldr	r3, [sp, #12]
    f750:	e2832004 	add	r2, r3, #4, 0
    f754:	e58d200c 	str	r2, [sp, #12]
    f758:	e5934000 	ldr	r4, [r3]
    f75c:	e5d40000 	ldrb	r0, [r4]
    f760:	e3500000 	cmp	r0, #0, 0
    f764:	0a000004 	beq	f77c <vprintk+0x278>
    f768:	e59f3038 	ldr	r3, [pc, #56]	; f7a8 <vprintk+0x2a4>
    f76c:	e5933000 	ldr	r3, [r3]
    f770:	e12fff33 	blx	r3
    f774:	e2844001 	add	r4, r4, #1, 0
    f778:	eafffff7 	b	f75c <vprintk+0x258>
    f77c:	e1a04005 	mov	r4, r5
    f780:	eaffff67 	b	f524 <vprintk+0x20>
    f784:	e58d2000 	str	r2, [sp]
    f788:	e3a03062 	mov	r3, #98, 0	; 0x62
    f78c:	e59f2018 	ldr	r2, [pc, #24]	; f7ac <vprintk+0x2a8>
    f790:	e59f1018 	ldr	r1, [pc, #24]	; f7b0 <vprintk+0x2ac>
    f794:	e59f001c 	ldr	r0, [pc, #28]	; f7b8 <vprintk+0x2b4>
    f798:	ebffff0a 	bl	f3c8 <printk>
    f79c:	eb000039 	bl	f888 <clean_reboot>
    f7a0:	e28dd014 	add	sp, sp, #20, 0
    f7a4:	e8bd8030 	pop	{r4, r5, pc}
    f7a8:	00012a10 	.word	0x00012a10
    f7ac:	000128e8 	.word	0x000128e8
    f7b0:	00012824 	.word	0x00012824
    f7b4:	0001287c 	.word	0x0001287c
    f7b8:	000128b4 	.word	0x000128b4

0000f7bc <default_putchar>:
    f7bc:	e92d4010 	push	{r4, lr}
    f7c0:	e1a04000 	mov	r4, r0
    f7c4:	e6ef0070 	uxtb	r0, r0
    f7c8:	eb0000d3 	bl	fb1c <uart_put8>
    f7cc:	e1a00004 	mov	r0, r4
    f7d0:	e8bd8010 	pop	{r4, pc}

0000f7d4 <rpi_putchar_set>:
    f7d4:	e59f300c 	ldr	r3, [pc, #12]	; f7e8 <rpi_putchar_set+0x14>
    f7d8:	e5932000 	ldr	r2, [r3]
    f7dc:	e5830000 	str	r0, [r3]
    f7e0:	e1a00002 	mov	r0, r2
    f7e4:	e12fff1e 	bx	lr
    f7e8:	00012a10 	.word	0x00012a10

0000f7ec <strcat>:
    f7ec:	e1a02000 	mov	r2, r0
    f7f0:	e1a03002 	mov	r3, r2
    f7f4:	e2822001 	add	r2, r2, #1, 0
    f7f8:	e5d3c000 	ldrb	ip, [r3]
    f7fc:	e35c0000 	cmp	ip, #0, 0
    f800:	1afffffa 	bne	f7f0 <strcat+0x4>
    f804:	e2433001 	sub	r3, r3, #1, 0
    f808:	e5d12000 	ldrb	r2, [r1]
    f80c:	e2811001 	add	r1, r1, #1, 0
    f810:	e5e32001 	strb	r2, [r3, #1]!
    f814:	e3520000 	cmp	r2, #0, 0
    f818:	1afffffa 	bne	f808 <strcat+0x1c>
    f81c:	e12fff1e 	bx	lr

0000f820 <strcmp>:
    f820:	e5d03000 	ldrb	r3, [r0]
    f824:	e3530000 	cmp	r3, #0, 0
    f828:	0a000004 	beq	f840 <strcmp+0x20>
    f82c:	e5d12000 	ldrb	r2, [r1]
    f830:	e1530002 	cmp	r3, r2
    f834:	02800001 	addeq	r0, r0, #1, 0
    f838:	02811001 	addeq	r1, r1, #1, 0
    f83c:	0afffff7 	beq	f820 <strcmp>
    f840:	e5d10000 	ldrb	r0, [r1]
    f844:	e0430000 	sub	r0, r3, r0
    f848:	e12fff1e 	bx	lr

0000f84c <strcpy>:
    f84c:	e1a0c000 	mov	ip, r0
    f850:	e5d12000 	ldrb	r2, [r1]
    f854:	e2811001 	add	r1, r1, #1, 0
    f858:	e5cc2000 	strb	r2, [ip]
    f85c:	e28cc001 	add	ip, ip, #1, 0
    f860:	e3520000 	cmp	r2, #0, 0
    f864:	1afffff9 	bne	f850 <strcpy+0x4>
    f868:	e12fff1e 	bx	lr

0000f86c <strlen>:
    f86c:	e1a02000 	mov	r2, r0
    f870:	e3a00000 	mov	r0, #0, 0
    f874:	e7d23000 	ldrb	r3, [r2, r0]
    f878:	e3530000 	cmp	r3, #0, 0
    f87c:	012fff1e 	bxeq	lr
    f880:	e2800001 	add	r0, r0, #1, 0
    f884:	eafffffa 	b	f874 <strlen+0x8>

0000f888 <clean_reboot>:
    f888:	e92d4010 	push	{r4, lr}
    f88c:	e59f0010 	ldr	r0, [pc, #16]	; f8a4 <clean_reboot+0x1c>
    f890:	eb0000ec 	bl	fc48 <putk>
    f894:	eb0000e2 	bl	fc24 <uart_flush_tx>
    f898:	e3a0000a 	mov	r0, #10, 0
    f89c:	eb00005d 	bl	fa18 <delay_ms>
    f8a0:	eb000039 	bl	f98c <rpi_reboot>
    f8a4:	000128f0 	.word	0x000128f0

0000f8a8 <program_end>:
    f8a8:	e59f0000 	ldr	r0, [pc]	; f8b0 <program_end+0x8>
    f8ac:	e12fff1e 	bx	lr
    f8b0:	00013748 	.word	0x00013748

0000f8b4 <_cstart>:
    f8b4:	e92d4030 	push	{r4, r5, lr}
    f8b8:	e24dd00c 	sub	sp, sp, #12, 0
    f8bc:	e59f3098 	ldr	r3, [pc, #152]	; f95c <_cstart+0xa8>
    f8c0:	e59f2098 	ldr	r2, [pc, #152]	; f960 <_cstart+0xac>
    f8c4:	e1530002 	cmp	r3, r2
    f8c8:	33a02000 	movcc	r2, #0, 0
    f8cc:	34c32001 	strbcc	r2, [r3], #1
    f8d0:	3afffffa 	bcc	f8c0 <_cstart+0xc>
    f8d4:	eb00005b 	bl	fa48 <uart_init>
    f8d8:	e3a03001 	mov	r3, #1, 0
    f8dc:	ee0f3f1c 	mcr	15, 0, r3, cr15, cr12, {0}
    f8e0:	e3a02a01 	mov	r2, #4096	; 0x1000
    f8e4:	e3a01000 	mov	r1, #0, 0
    f8e8:	e1a00001 	mov	r0, r1
    f8ec:	ebfffe8d 	bl	f328 <memset>
    f8f0:	e3a04000 	mov	r4, #0, 0
    f8f4:	e1a05004 	mov	r5, r4
    f8f8:	ea000005 	b	f914 <_cstart+0x60>
    f8fc:	e2855001 	add	r5, r5, #1, 0
    f900:	e5912000 	ldr	r2, [r1]
    f904:	e1a03005 	mov	r3, r5
    f908:	e59f0054 	ldr	r0, [pc, #84]	; f964 <_cstart+0xb0>
    f90c:	ebfffead 	bl	f3c8 <printk>
    f910:	e2844001 	add	r4, r4, #1, 0
    f914:	e3540b01 	cmp	r4, #1024	; 0x400
    f918:	2a000004 	bcs	f930 <_cstart+0x7c>
    f91c:	e1a01104 	lsl	r1, r4, #2
    f920:	e5913000 	ldr	r3, [r1]
    f924:	e3530000 	cmp	r3, #0, 0
    f928:	0afffff8 	beq	f910 <_cstart+0x5c>
    f92c:	eafffff2 	b	f8fc <_cstart+0x48>
    f930:	e3550000 	cmp	r5, #0, 0
    f934:	1a000001 	bne	f940 <_cstart+0x8c>
    f938:	ebffe6a7 	bl	93dc <notmain>
    f93c:	ebffffd1 	bl	f888 <clean_reboot>
    f940:	e58d5000 	str	r5, [sp]
    f944:	e3a0301b 	mov	r3, #27, 0
    f948:	e59f2018 	ldr	r2, [pc, #24]	; f968 <_cstart+0xb4>
    f94c:	e59f1018 	ldr	r1, [pc, #24]	; f96c <_cstart+0xb8>
    f950:	e59f0018 	ldr	r0, [pc, #24]	; f970 <_cstart+0xbc>
    f954:	ebfffe9b 	bl	f3c8 <printk>
    f958:	ebffffca 	bl	f888 <clean_reboot>
    f95c:	00012a18 	.word	0x00012a18
    f960:	00013748 	.word	0x00013748
    f964:	000128fc 	.word	0x000128fc
    f968:	00012994 	.word	0x00012994
    f96c:	00012928 	.word	0x00012928
    f970:	00012964 	.word	0x00012964

0000f974 <dev_barrier>:
    f974:	ea000002 	b	f984 <dsb>

0000f978 <dmb>:
    f978:	e3a00000 	mov	r0, #0, 0
    f97c:	ee070fba 	mcr	15, 0, r0, cr7, cr10, {5}
    f980:	e12fff1e 	bx	lr

0000f984 <dsb>:
    f984:	ee070f9a 	mcr	15, 0, r0, cr7, cr10, {4}
    f988:	e12fff1e 	bx	lr

0000f98c <rpi_reboot>:
    f98c:	e92d4010 	push	{r4, lr}
    f990:	e3a0000a 	mov	r0, #10, 0
    f994:	eb00001f 	bl	fa18 <delay_ms>
    f998:	e59f1014 	ldr	r1, [pc, #20]	; f9b4 <rpi_reboot+0x28>
    f99c:	e59f0014 	ldr	r0, [pc, #20]	; f9b8 <rpi_reboot+0x2c>
    f9a0:	ebffe19f 	bl	8024 <PUT32>
    f9a4:	e59f1010 	ldr	r1, [pc, #16]	; f9bc <rpi_reboot+0x30>
    f9a8:	e59f0010 	ldr	r0, [pc, #16]	; f9c0 <rpi_reboot+0x34>
    f9ac:	ebffe19c 	bl	8024 <PUT32>
    f9b0:	eafffffe 	b	f9b0 <rpi_reboot+0x24>
    f9b4:	5a000001 	.word	0x5a000001
    f9b8:	20100024 	.word	0x20100024
    f9bc:	5a000020 	.word	0x5a000020
    f9c0:	2010001c 	.word	0x2010001c

0000f9c4 <timer_get_usec_raw>:
    f9c4:	e92d4010 	push	{r4, lr}
    f9c8:	e59f0004 	ldr	r0, [pc, #4]	; f9d4 <timer_get_usec_raw+0x10>
    f9cc:	ebffe196 	bl	802c <GET32>
    f9d0:	e8bd8010 	pop	{r4, pc}
    f9d4:	20003004 	.word	0x20003004

0000f9d8 <timer_get_usec>:
    f9d8:	e92d4010 	push	{r4, lr}
    f9dc:	ebffffe4 	bl	f974 <dev_barrier>
    f9e0:	ebfffff7 	bl	f9c4 <timer_get_usec_raw>
    f9e4:	e1a04000 	mov	r4, r0
    f9e8:	ebffffe1 	bl	f974 <dev_barrier>
    f9ec:	e1a00004 	mov	r0, r4
    f9f0:	e8bd8010 	pop	{r4, pc}

0000f9f4 <delay_us>:
    f9f4:	e92d4070 	push	{r4, r5, r6, lr}
    f9f8:	e1a05000 	mov	r5, r0
    f9fc:	ebfffff5 	bl	f9d8 <timer_get_usec>
    fa00:	e1a04000 	mov	r4, r0
    fa04:	ebfffff3 	bl	f9d8 <timer_get_usec>
    fa08:	e0400004 	sub	r0, r0, r4
    fa0c:	e1500005 	cmp	r0, r5
    fa10:	3afffffb 	bcc	fa04 <delay_us+0x10>
    fa14:	e8bd8070 	pop	{r4, r5, r6, pc}

0000fa18 <delay_ms>:
    fa18:	e92d4010 	push	{r4, lr}
    fa1c:	e0603280 	rsb	r3, r0, r0, lsl #5
    fa20:	e0800103 	add	r0, r0, r3, lsl #2
    fa24:	e1a00180 	lsl	r0, r0, #3
    fa28:	ebfffff1 	bl	f9f4 <delay_us>
    fa2c:	e8bd8010 	pop	{r4, pc}

0000fa30 <delay_sec>:
    fa30:	e92d4010 	push	{r4, lr}
    fa34:	e0603280 	rsb	r3, r0, r0, lsl #5
    fa38:	e0800103 	add	r0, r0, r3, lsl #2
    fa3c:	e1a00180 	lsl	r0, r0, #3
    fa40:	ebfffff4 	bl	fa18 <delay_ms>
    fa44:	e8bd8010 	pop	{r4, pc}

0000fa48 <uart_init>:
    fa48:	e92d4010 	push	{r4, lr}
    fa4c:	ebffffc8 	bl	f974 <dev_barrier>
    fa50:	e3a01002 	mov	r1, #2, 0
    fa54:	e3a0000e 	mov	r0, #14, 0
    fa58:	ebfffd69 	bl	f004 <gpio_set_function>
    fa5c:	e3a01002 	mov	r1, #2, 0
    fa60:	e3a0000f 	mov	r0, #15, 0
    fa64:	ebfffd66 	bl	f004 <gpio_set_function>
    fa68:	ebffffc1 	bl	f974 <dev_barrier>
    fa6c:	e59f4068 	ldr	r4, [pc, #104]	; fadc <uart_init+0x94>
    fa70:	e1a00004 	mov	r0, r4
    fa74:	ebffe16c 	bl	802c <GET32>
    fa78:	e3801001 	orr	r1, r0, #1, 0
    fa7c:	e1a00004 	mov	r0, r4
    fa80:	ebffe167 	bl	8024 <PUT32>
    fa84:	ebffffba 	bl	f974 <dev_barrier>
    fa88:	e284405c 	add	r4, r4, #92, 0	; 0x5c
    fa8c:	e3a01000 	mov	r1, #0, 0
    fa90:	e1a00004 	mov	r0, r4
    fa94:	ebffe162 	bl	8024 <PUT32>
    fa98:	e3a01000 	mov	r1, #0, 0
    fa9c:	e59f003c 	ldr	r0, [pc, #60]	; fae0 <uart_init+0x98>
    faa0:	ebffe15f 	bl	8024 <PUT32>
    faa4:	e3a01006 	mov	r1, #6, 0
    faa8:	e59f0034 	ldr	r0, [pc, #52]	; fae4 <uart_init+0x9c>
    faac:	ebffe15c 	bl	8024 <PUT32>
    fab0:	e59f1030 	ldr	r1, [pc, #48]	; fae8 <uart_init+0xa0>
    fab4:	e59f0030 	ldr	r0, [pc, #48]	; faec <uart_init+0xa4>
    fab8:	ebffe159 	bl	8024 <PUT32>
    fabc:	e3a01003 	mov	r1, #3, 0
    fac0:	e59f0028 	ldr	r0, [pc, #40]	; faf0 <uart_init+0xa8>
    fac4:	ebffe156 	bl	8024 <PUT32>
    fac8:	e3a01003 	mov	r1, #3, 0
    facc:	e1a00004 	mov	r0, r4
    fad0:	ebffe153 	bl	8024 <PUT32>
    fad4:	ebffffa6 	bl	f974 <dev_barrier>
    fad8:	e8bd8010 	pop	{r4, pc}
    fadc:	20215004 	.word	0x20215004
    fae0:	20215044 	.word	0x20215044
    fae4:	20215048 	.word	0x20215048
    fae8:	0000010e 	.word	0x0000010e
    faec:	20215068 	.word	0x20215068
    faf0:	2021504c 	.word	0x2021504c

0000faf4 <uart_can_put8>:
    faf4:	e92d4010 	push	{r4, lr}
    faf8:	ebffff9d 	bl	f974 <dev_barrier>
    fafc:	e59f0014 	ldr	r0, [pc, #20]	; fb18 <uart_can_put8+0x24>
    fb00:	ebffe149 	bl	802c <GET32>
    fb04:	e1a04000 	mov	r4, r0
    fb08:	ebffff99 	bl	f974 <dev_barrier>
    fb0c:	e1a000a4 	lsr	r0, r4, #1
    fb10:	e2000001 	and	r0, r0, #1, 0
    fb14:	e8bd8010 	pop	{r4, pc}
    fb18:	20215064 	.word	0x20215064

0000fb1c <uart_put8>:
    fb1c:	e92d4010 	push	{r4, lr}
    fb20:	e1a04000 	mov	r4, r0
    fb24:	ebffff92 	bl	f974 <dev_barrier>
    fb28:	ebfffff1 	bl	faf4 <uart_can_put8>
    fb2c:	e3500000 	cmp	r0, #0, 0
    fb30:	0afffffc 	beq	fb28 <uart_put8+0xc>
    fb34:	e1a01004 	mov	r1, r4
    fb38:	e59f000c 	ldr	r0, [pc, #12]	; fb4c <uart_put8+0x30>
    fb3c:	ebffe138 	bl	8024 <PUT32>
    fb40:	ebffff8b 	bl	f974 <dev_barrier>
    fb44:	e3a00001 	mov	r0, #1, 0
    fb48:	e8bd8010 	pop	{r4, pc}
    fb4c:	20215040 	.word	0x20215040

0000fb50 <uart_has_data>:
    fb50:	e92d4010 	push	{r4, lr}
    fb54:	ebffff86 	bl	f974 <dev_barrier>
    fb58:	e59f0010 	ldr	r0, [pc, #16]	; fb70 <uart_has_data+0x20>
    fb5c:	ebffe132 	bl	802c <GET32>
    fb60:	e1a04000 	mov	r4, r0
    fb64:	ebffff82 	bl	f974 <dev_barrier>
    fb68:	e2040001 	and	r0, r4, #1, 0
    fb6c:	e8bd8010 	pop	{r4, pc}
    fb70:	20215064 	.word	0x20215064

0000fb74 <uart_get8>:
    fb74:	e92d4010 	push	{r4, lr}
    fb78:	ebffff7d 	bl	f974 <dev_barrier>
    fb7c:	ebfffff3 	bl	fb50 <uart_has_data>
    fb80:	e3500000 	cmp	r0, #0, 0
    fb84:	0afffffc 	beq	fb7c <uart_get8+0x8>
    fb88:	e59f0010 	ldr	r0, [pc, #16]	; fba0 <uart_get8+0x2c>
    fb8c:	ebffe126 	bl	802c <GET32>
    fb90:	e1a04000 	mov	r4, r0
    fb94:	ebffff76 	bl	f974 <dev_barrier>
    fb98:	e6ef0074 	uxtb	r0, r4
    fb9c:	e8bd8010 	pop	{r4, pc}
    fba0:	20215040 	.word	0x20215040

0000fba4 <uart_get8_async>:
    fba4:	e92d4010 	push	{r4, lr}
    fba8:	ebffffe8 	bl	fb50 <uart_has_data>
    fbac:	e3500000 	cmp	r0, #0, 0
    fbb0:	0a000001 	beq	fbbc <uart_get8_async+0x18>
    fbb4:	ebffffee 	bl	fb74 <uart_get8>
    fbb8:	e8bd8010 	pop	{r4, pc}
    fbbc:	e3e00000 	mvn	r0, #0, 0
    fbc0:	e8bd8010 	pop	{r4, pc}

0000fbc4 <uart_tx_is_empty>:
    fbc4:	e92d4010 	push	{r4, lr}
    fbc8:	ebffff69 	bl	f974 <dev_barrier>
    fbcc:	e59f0014 	ldr	r0, [pc, #20]	; fbe8 <uart_tx_is_empty+0x24>
    fbd0:	ebffe115 	bl	802c <GET32>
    fbd4:	e1a04000 	mov	r4, r0
    fbd8:	ebffff65 	bl	f974 <dev_barrier>
    fbdc:	e1a004a4 	lsr	r0, r4, #9
    fbe0:	e2000001 	and	r0, r0, #1, 0
    fbe4:	e8bd8010 	pop	{r4, pc}
    fbe8:	20215064 	.word	0x20215064

0000fbec <uart_disable>:
    fbec:	e92d4010 	push	{r4, lr}
    fbf0:	ebffff5f 	bl	f974 <dev_barrier>
    fbf4:	ebfffff2 	bl	fbc4 <uart_tx_is_empty>
    fbf8:	e3500000 	cmp	r0, #0, 0
    fbfc:	0afffffc 	beq	fbf4 <uart_disable+0x8>
    fc00:	e59f4018 	ldr	r4, [pc, #24]	; fc20 <uart_disable+0x34>
    fc04:	e1a00004 	mov	r0, r4
    fc08:	ebffe107 	bl	802c <GET32>
    fc0c:	e3c01001 	bic	r1, r0, #1, 0
    fc10:	e1a00004 	mov	r0, r4
    fc14:	ebffe102 	bl	8024 <PUT32>
    fc18:	ebffff55 	bl	f974 <dev_barrier>
    fc1c:	e8bd8010 	pop	{r4, pc}
    fc20:	20215004 	.word	0x20215004

0000fc24 <uart_flush_tx>:
    fc24:	e92d4010 	push	{r4, lr}
    fc28:	ebffff51 	bl	f974 <dev_barrier>
    fc2c:	ebffffe4 	bl	fbc4 <uart_tx_is_empty>
    fc30:	e3500000 	cmp	r0, #0, 0
    fc34:	1a000001 	bne	fc40 <uart_flush_tx+0x1c>
    fc38:	eb00000f 	bl	fc7c <rpi_wait>
    fc3c:	eafffffa 	b	fc2c <uart_flush_tx+0x8>
    fc40:	ebffff4b 	bl	f974 <dev_barrier>
    fc44:	e8bd8010 	pop	{r4, pc}

0000fc48 <putk>:
    fc48:	e92d4010 	push	{r4, lr}
    fc4c:	e1a04000 	mov	r4, r0
    fc50:	e5d40000 	ldrb	r0, [r4]
    fc54:	e3500000 	cmp	r0, #0, 0
    fc58:	0a000004 	beq	fc70 <putk+0x28>
    fc5c:	e59f3014 	ldr	r3, [pc, #20]	; fc78 <putk+0x30>
    fc60:	e5933000 	ldr	r3, [r3]
    fc64:	e12fff33 	blx	r3
    fc68:	e2844001 	add	r4, r4, #1, 0
    fc6c:	eafffff7 	b	fc50 <putk+0x8>
    fc70:	e3a00001 	mov	r0, #1, 0
    fc74:	e8bd8010 	pop	{r4, pc}
    fc78:	00012a10 	.word	0x00012a10

0000fc7c <rpi_wait>:
    fc7c:	e12fff1e 	bx	lr
